                              1 ;--------------------------------------------------------
                              2 ; File Created by SDCC : free open source ANSI-C Compiler
                              3 ; Version 3.1.1 #7100 (Apr  1 2013) (Linux)
                              4 ; This file was generated Tue Apr 23 09:41:17 2013
                              5 ;--------------------------------------------------------
                              6 	.module collect
                              7 	.optsdcc -mmcs51 --model-large
                              8 	
                              9 ;--------------------------------------------------------
                             10 ; Public variables in this module
                             11 ;--------------------------------------------------------
                             12 	.globl _collect_purge
                             13 	.globl _printf
                             14 	.globl _random_rand
                             15 	.globl _packetqueue_queuebuf
                             16 	.globl _packetqueue_len
                             17 	.globl _packetqueue_dequeue
                             18 	.globl _packetqueue_first
                             19 	.globl _packetqueue_enqueue_packetbuf
                             20 	.globl _collect_neighbor_rtmetric
                             21 	.globl _collect_neighbor_rtmetric_link_estimate
                             22 	.globl _collect_neighbor_set_congested
                             23 	.globl _collect_neighbor_tx_fail
                             24 	.globl _collect_neighbor_tx
                             25 	.globl _collect_neighbor_update_rtmetric
                             26 	.globl _collect_neighbor_list_purge
                             27 	.globl _collect_neighbor_list_best
                             28 	.globl _collect_neighbor_list_find
                             29 	.globl _collect_neighbor_list_add
                             30 	.globl _collect_neighbor_list_new
                             31 	.globl _collect_neighbor_list
                             32 	.globl _collect_neighbor_init
                             33 	.globl _list_item_next
                             34 	.globl _list_head
                             35 	.globl _list_init
                             36 	.globl _collect_link_estimate_num_estimates
                             37 	.globl _queuebuf_free
                             38 	.globl _queuebuf_to_packetbuf
                             39 	.globl _queuebuf_new_from_packetbuf
                             40 	.globl _unicast_send
                             41 	.globl _unicast_close
                             42 	.globl _unicast_open
                             43 	.globl _channel_set_attributes
                             44 	.globl _packetbuf_addr
                             45 	.globl _packetbuf_set_addr
                             46 	.globl _packetbuf_attr
                             47 	.globl _packetbuf_set_attr
                             48 	.globl _packetbuf_hdrreduce
                             49 	.globl _packetbuf_hdralloc
                             50 	.globl _packetbuf_set_datalen
                             51 	.globl _packetbuf_datalen
                             52 	.globl _packetbuf_dataptr
                             53 	.globl _packetbuf_clear
                             54 	.globl _announcement_bump
                             55 	.globl _announcement_set_value
                             56 	.globl _announcement_remove
                             57 	.globl _announcement_register
                             58 	.globl _rimeaddr_cmp
                             59 	.globl _rimeaddr_copy
                             60 	.globl _ctimer_stop
                             61 	.globl _ctimer_set
                             62 	.globl _clock_time
                             63 	.globl _memset
                             64 	.globl _memcpy
                             65 	.globl _IRCON2_P2IF
                             66 	.globl _IRCON2_UTX0IF
                             67 	.globl _IRCON2_UTX1IF
                             68 	.globl _IRCON2_P1IF
                             69 	.globl _IRCON2_WDTIF
                             70 	.globl _CY
                             71 	.globl _AC
                             72 	.globl _F0
                             73 	.globl _RS1
                             74 	.globl _RS0
                             75 	.globl _OV
                             76 	.globl _F1
                             77 	.globl _P
                             78 	.globl _IRCON_DMAIF
                             79 	.globl _IRCON_T1IF
                             80 	.globl _IRCON_T2IF
                             81 	.globl _IRCON_T3IF
                             82 	.globl _IRCON_T4IF
                             83 	.globl _IRCON_P0IF
                             84 	.globl _IRCON_STIF
                             85 	.globl _IEN1_DMAIE
                             86 	.globl _IEN1_T1IE
                             87 	.globl _IEN1_T2IE
                             88 	.globl _IEN1_T3IE
                             89 	.globl _IEN1_T4IE
                             90 	.globl _IEN1_P0IE
                             91 	.globl _IEN0_RFERRIE
                             92 	.globl _IEN0_ADCIE
                             93 	.globl _IEN0_URX0IE
                             94 	.globl _IEN0_URX1IE
                             95 	.globl _IEN0_ENCIE
                             96 	.globl _IEN0_STIE
                             97 	.globl _IEN0_EA
                             98 	.globl _EA
                             99 	.globl _P2_4
                            100 	.globl _P2_3
                            101 	.globl _P2_2
                            102 	.globl _P2_1
                            103 	.globl _P2_0
                            104 	.globl _S0CON_ENCIF_0
                            105 	.globl _S0CON_ENCIF_1
                            106 	.globl _P1_7
                            107 	.globl _P1_6
                            108 	.globl _P1_5
                            109 	.globl _P1_4
                            110 	.globl _P1_3
                            111 	.globl _P1_2
                            112 	.globl _P1_1
                            113 	.globl _P1_0
                            114 	.globl _TCON_IT0
                            115 	.globl _TCON_RFERRIF
                            116 	.globl _TCON_IT1
                            117 	.globl _TCON_URX0IF
                            118 	.globl _TCON_ADCIF
                            119 	.globl _TCON_URX1IF
                            120 	.globl _P0_0
                            121 	.globl _P0_1
                            122 	.globl _P0_2
                            123 	.globl _P0_3
                            124 	.globl _P0_4
                            125 	.globl _P0_5
                            126 	.globl _P0_6
                            127 	.globl _P0_7
                            128 	.globl _P2DIR
                            129 	.globl _P1DIR
                            130 	.globl _P0DIR
                            131 	.globl _U1GCR
                            132 	.globl _U1UCR
                            133 	.globl _U1BAUD
                            134 	.globl _U1BUF
                            135 	.globl _U1CSR
                            136 	.globl _P2INP
                            137 	.globl _P1INP
                            138 	.globl _P2SEL
                            139 	.globl _P1SEL
                            140 	.globl _P0SEL
                            141 	.globl _ADCCFG
                            142 	.globl _PERCFG
                            143 	.globl _B
                            144 	.globl _T4CC1
                            145 	.globl _T4CCTL1
                            146 	.globl _T4CC0
                            147 	.globl _T4CCTL0
                            148 	.globl _T4CTL
                            149 	.globl _T4CNT
                            150 	.globl _RFIF
                            151 	.globl _IRCON2
                            152 	.globl _T1CCTL2
                            153 	.globl _T1CCTL1
                            154 	.globl _T1CCTL0
                            155 	.globl _T1CTL
                            156 	.globl _T1CNTH
                            157 	.globl _T1CNTL
                            158 	.globl _RFST
                            159 	.globl _ACC
                            160 	.globl _T1CC2H
                            161 	.globl _T1CC2L
                            162 	.globl _T1CC1H
                            163 	.globl _T1CC1L
                            164 	.globl _T1CC0H
                            165 	.globl _T1CC0L
                            166 	.globl _RFD
                            167 	.globl _TIMIF
                            168 	.globl _DMAREQ
                            169 	.globl _DMAARM
                            170 	.globl _DMA0CFGH
                            171 	.globl _DMA0CFGL
                            172 	.globl _DMA1CFGH
                            173 	.globl _DMA1CFGL
                            174 	.globl _DMAIRQ
                            175 	.globl _PSW
                            176 	.globl _T3CC1
                            177 	.globl _T3CCTL1
                            178 	.globl _T3CC0
                            179 	.globl _T3CCTL0
                            180 	.globl _T3CTL
                            181 	.globl _T3CNT
                            182 	.globl _WDCTL
                            183 	.globl _T2CON
                            184 	.globl _MEMCTR
                            185 	.globl _CLKCON
                            186 	.globl _U0GCR
                            187 	.globl _U0UCR
                            188 	.globl _T2CNF
                            189 	.globl _U0BAUD
                            190 	.globl _U0BUF
                            191 	.globl _IRCON
                            192 	.globl _SLEEP
                            193 	.globl _RNDH
                            194 	.globl _RNDL
                            195 	.globl _ADCH
                            196 	.globl _ADCL
                            197 	.globl _IP1
                            198 	.globl _IEN1
                            199 	.globl _RCCTL
                            200 	.globl _ADCCON3
                            201 	.globl _ADCCON2
                            202 	.globl _ADCCON1
                            203 	.globl _ENCCS
                            204 	.globl _ENCDO
                            205 	.globl _ENCDI
                            206 	.globl _FWDATA
                            207 	.globl _FCTL
                            208 	.globl _FADDRH
                            209 	.globl _FADDRL
                            210 	.globl _FWT
                            211 	.globl _IP0
                            212 	.globl _IEN0
                            213 	.globl _IE
                            214 	.globl _T2THD
                            215 	.globl _T2TLD
                            216 	.globl _T2CAPHPH
                            217 	.globl _T2CAPLPL
                            218 	.globl _T2OF2
                            219 	.globl _T2OF1
                            220 	.globl _T2OF0
                            221 	.globl _P2
                            222 	.globl _PSBANK
                            223 	.globl _FMAP
                            224 	.globl _T2PEROF2
                            225 	.globl _T2PEROF1
                            226 	.globl _T2PEROF0
                            227 	.globl _S1CON
                            228 	.globl _IEN2
                            229 	.globl _HSRC
                            230 	.globl _S0CON
                            231 	.globl _ST2
                            232 	.globl _ST1
                            233 	.globl _ST0
                            234 	.globl _T2CMP
                            235 	.globl __XPAGE
                            236 	.globl _DPS
                            237 	.globl _RFIM
                            238 	.globl _P1
                            239 	.globl _P0INP
                            240 	.globl _P1IEN
                            241 	.globl _PICTL
                            242 	.globl _P2IFG
                            243 	.globl _P1IFG
                            244 	.globl _P0IFG
                            245 	.globl _TCON
                            246 	.globl _PCON
                            247 	.globl _U0CSR
                            248 	.globl _DPH1
                            249 	.globl _DPL1
                            250 	.globl _DPH0
                            251 	.globl _DPL0
                            252 	.globl _SP
                            253 	.globl _P0
                            254 	.globl _stats
                            255 	.globl _ADC_SHADOW
                            256 	.globl _U1BUF_SHADOW
                            257 	.globl _RFD_SHADOW
                            258 	.globl _U0BUF_SHADOW
                            259 	.globl _RFSTATUS
                            260 	.globl _CHIPID
                            261 	.globl _CHVER
                            262 	.globl _FSMTC1
                            263 	.globl _RXFIFOCNT
                            264 	.globl _IOCFG3
                            265 	.globl _IOCFG2
                            266 	.globl _IOCFG1
                            267 	.globl _IOCFG0
                            268 	.globl _SHORTADDRL
                            269 	.globl _SHORTADDRH
                            270 	.globl _PANIDL
                            271 	.globl _PANIDH
                            272 	.globl _IEEE_ADDR7
                            273 	.globl _IEEE_ADDR6
                            274 	.globl _IEEE_ADDR5
                            275 	.globl _IEEE_ADDR4
                            276 	.globl _IEEE_ADDR3
                            277 	.globl _IEEE_ADDR2
                            278 	.globl _IEEE_ADDR1
                            279 	.globl _IEEE_ADDR0
                            280 	.globl _DACTSTL
                            281 	.globl _DACTSTH
                            282 	.globl _ADCTSTL
                            283 	.globl _ADCTSTH
                            284 	.globl _FSMSTATE
                            285 	.globl _AGCCTRLL
                            286 	.globl _AGCCTRLH
                            287 	.globl _MANORL
                            288 	.globl _MANORH
                            289 	.globl _MANANDL
                            290 	.globl _MANANDH
                            291 	.globl _FSMTCL
                            292 	.globl _FSMTCH
                            293 	.globl _RFPWR
                            294 	.globl _CSPT
                            295 	.globl _CSPCTRL
                            296 	.globl _CSPZ
                            297 	.globl _CSPY
                            298 	.globl _CSPX
                            299 	.globl _FSCTRLL
                            300 	.globl _FSCTRLH
                            301 	.globl _RXCTRL1L
                            302 	.globl _RXCTRL1H
                            303 	.globl _RXCTRL0L
                            304 	.globl _RXCTRL0H
                            305 	.globl _TXCTRLL
                            306 	.globl _TXCTRLH
                            307 	.globl _SYNCWORDL
                            308 	.globl _SYNCWORDH
                            309 	.globl _RSSIL
                            310 	.globl _RSSIH
                            311 	.globl _MDMCTRL1L
                            312 	.globl _MDMCTRL1H
                            313 	.globl _MDMCTRL0L
                            314 	.globl _MDMCTRL0H
                            315 	.globl _collect_open
                            316 	.globl _collect_set_keepalive
                            317 	.globl _collect_close
                            318 	.globl _collect_set_sink
                            319 	.globl _collect_send
                            320 	.globl _collect_depth
                            321 	.globl _collect_parent
                            322 	.globl _collect_print_stats
                            323 ;--------------------------------------------------------
                            324 ; special function registers
                            325 ;--------------------------------------------------------
                            326 	.area RSEG    (ABS,DATA)
   0000                     327 	.org 0x0000
                    0080    328 _P0	=	0x0080
                    0081    329 _SP	=	0x0081
                    0082    330 _DPL0	=	0x0082
                    0083    331 _DPH0	=	0x0083
                    0084    332 _DPL1	=	0x0084
                    0085    333 _DPH1	=	0x0085
                    0086    334 _U0CSR	=	0x0086
                    0087    335 _PCON	=	0x0087
                    0088    336 _TCON	=	0x0088
                    0089    337 _P0IFG	=	0x0089
                    008A    338 _P1IFG	=	0x008a
                    008B    339 _P2IFG	=	0x008b
                    008C    340 _PICTL	=	0x008c
                    008D    341 _P1IEN	=	0x008d
                    008F    342 _P0INP	=	0x008f
                    0090    343 _P1	=	0x0090
                    0091    344 _RFIM	=	0x0091
                    0092    345 _DPS	=	0x0092
                    0093    346 __XPAGE	=	0x0093
                    0094    347 _T2CMP	=	0x0094
                    0095    348 _ST0	=	0x0095
                    0096    349 _ST1	=	0x0096
                    0097    350 _ST2	=	0x0097
                    0098    351 _S0CON	=	0x0098
                    0099    352 _HSRC	=	0x0099
                    009A    353 _IEN2	=	0x009a
                    009B    354 _S1CON	=	0x009b
                    009C    355 _T2PEROF0	=	0x009c
                    009D    356 _T2PEROF1	=	0x009d
                    009E    357 _T2PEROF2	=	0x009e
                    009F    358 _FMAP	=	0x009f
                    009F    359 _PSBANK	=	0x009f
                    00A0    360 _P2	=	0x00a0
                    00A1    361 _T2OF0	=	0x00a1
                    00A2    362 _T2OF1	=	0x00a2
                    00A3    363 _T2OF2	=	0x00a3
                    00A4    364 _T2CAPLPL	=	0x00a4
                    00A5    365 _T2CAPHPH	=	0x00a5
                    00A6    366 _T2TLD	=	0x00a6
                    00A7    367 _T2THD	=	0x00a7
                    00A8    368 _IE	=	0x00a8
                    00A8    369 _IEN0	=	0x00a8
                    00A9    370 _IP0	=	0x00a9
                    00AB    371 _FWT	=	0x00ab
                    00AC    372 _FADDRL	=	0x00ac
                    00AD    373 _FADDRH	=	0x00ad
                    00AE    374 _FCTL	=	0x00ae
                    00AF    375 _FWDATA	=	0x00af
                    00B1    376 _ENCDI	=	0x00b1
                    00B2    377 _ENCDO	=	0x00b2
                    00B3    378 _ENCCS	=	0x00b3
                    00B4    379 _ADCCON1	=	0x00b4
                    00B5    380 _ADCCON2	=	0x00b5
                    00B6    381 _ADCCON3	=	0x00b6
                    00B7    382 _RCCTL	=	0x00b7
                    00B8    383 _IEN1	=	0x00b8
                    00B9    384 _IP1	=	0x00b9
                    00BA    385 _ADCL	=	0x00ba
                    00BB    386 _ADCH	=	0x00bb
                    00BC    387 _RNDL	=	0x00bc
                    00BD    388 _RNDH	=	0x00bd
                    00BE    389 _SLEEP	=	0x00be
                    00C0    390 _IRCON	=	0x00c0
                    00C1    391 _U0BUF	=	0x00c1
                    00C2    392 _U0BAUD	=	0x00c2
                    00C3    393 _T2CNF	=	0x00c3
                    00C4    394 _U0UCR	=	0x00c4
                    00C5    395 _U0GCR	=	0x00c5
                    00C6    396 _CLKCON	=	0x00c6
                    00C7    397 _MEMCTR	=	0x00c7
                    00C8    398 _T2CON	=	0x00c8
                    00C9    399 _WDCTL	=	0x00c9
                    00CA    400 _T3CNT	=	0x00ca
                    00CB    401 _T3CTL	=	0x00cb
                    00CC    402 _T3CCTL0	=	0x00cc
                    00CD    403 _T3CC0	=	0x00cd
                    00CE    404 _T3CCTL1	=	0x00ce
                    00CF    405 _T3CC1	=	0x00cf
                    00D0    406 _PSW	=	0x00d0
                    00D1    407 _DMAIRQ	=	0x00d1
                    00D2    408 _DMA1CFGL	=	0x00d2
                    00D3    409 _DMA1CFGH	=	0x00d3
                    00D4    410 _DMA0CFGL	=	0x00d4
                    00D5    411 _DMA0CFGH	=	0x00d5
                    00D6    412 _DMAARM	=	0x00d6
                    00D7    413 _DMAREQ	=	0x00d7
                    00D8    414 _TIMIF	=	0x00d8
                    00D9    415 _RFD	=	0x00d9
                    00DA    416 _T1CC0L	=	0x00da
                    00DB    417 _T1CC0H	=	0x00db
                    00DC    418 _T1CC1L	=	0x00dc
                    00DD    419 _T1CC1H	=	0x00dd
                    00DE    420 _T1CC2L	=	0x00de
                    00DF    421 _T1CC2H	=	0x00df
                    00E0    422 _ACC	=	0x00e0
                    00E1    423 _RFST	=	0x00e1
                    00E2    424 _T1CNTL	=	0x00e2
                    00E3    425 _T1CNTH	=	0x00e3
                    00E4    426 _T1CTL	=	0x00e4
                    00E5    427 _T1CCTL0	=	0x00e5
                    00E6    428 _T1CCTL1	=	0x00e6
                    00E7    429 _T1CCTL2	=	0x00e7
                    00E8    430 _IRCON2	=	0x00e8
                    00E9    431 _RFIF	=	0x00e9
                    00EA    432 _T4CNT	=	0x00ea
                    00EB    433 _T4CTL	=	0x00eb
                    00EC    434 _T4CCTL0	=	0x00ec
                    00ED    435 _T4CC0	=	0x00ed
                    00EE    436 _T4CCTL1	=	0x00ee
                    00EF    437 _T4CC1	=	0x00ef
                    00F0    438 _B	=	0x00f0
                    00F1    439 _PERCFG	=	0x00f1
                    00F2    440 _ADCCFG	=	0x00f2
                    00F3    441 _P0SEL	=	0x00f3
                    00F4    442 _P1SEL	=	0x00f4
                    00F5    443 _P2SEL	=	0x00f5
                    00F6    444 _P1INP	=	0x00f6
                    00F7    445 _P2INP	=	0x00f7
                    00F8    446 _U1CSR	=	0x00f8
                    00F9    447 _U1BUF	=	0x00f9
                    00FA    448 _U1BAUD	=	0x00fa
                    00FB    449 _U1UCR	=	0x00fb
                    00FC    450 _U1GCR	=	0x00fc
                    00FD    451 _P0DIR	=	0x00fd
                    00FE    452 _P1DIR	=	0x00fe
                    00FF    453 _P2DIR	=	0x00ff
                            454 ;--------------------------------------------------------
                            455 ; special function bits
                            456 ;--------------------------------------------------------
                            457 	.area RSEG    (ABS,DATA)
   0000                     458 	.org 0x0000
                    0087    459 _P0_7	=	0x0087
                    0086    460 _P0_6	=	0x0086
                    0085    461 _P0_5	=	0x0085
                    0084    462 _P0_4	=	0x0084
                    0083    463 _P0_3	=	0x0083
                    0082    464 _P0_2	=	0x0082
                    0081    465 _P0_1	=	0x0081
                    0080    466 _P0_0	=	0x0080
                    008F    467 _TCON_URX1IF	=	0x008f
                    008D    468 _TCON_ADCIF	=	0x008d
                    008B    469 _TCON_URX0IF	=	0x008b
                    008A    470 _TCON_IT1	=	0x008a
                    0089    471 _TCON_RFERRIF	=	0x0089
                    0088    472 _TCON_IT0	=	0x0088
                    0090    473 _P1_0	=	0x0090
                    0091    474 _P1_1	=	0x0091
                    0092    475 _P1_2	=	0x0092
                    0093    476 _P1_3	=	0x0093
                    0094    477 _P1_4	=	0x0094
                    0095    478 _P1_5	=	0x0095
                    0096    479 _P1_6	=	0x0096
                    0097    480 _P1_7	=	0x0097
                    0099    481 _S0CON_ENCIF_1	=	0x0099
                    0098    482 _S0CON_ENCIF_0	=	0x0098
                    00A0    483 _P2_0	=	0x00a0
                    00A1    484 _P2_1	=	0x00a1
                    00A2    485 _P2_2	=	0x00a2
                    00A3    486 _P2_3	=	0x00a3
                    00A4    487 _P2_4	=	0x00a4
                    00AF    488 _EA	=	0x00af
                    00AF    489 _IEN0_EA	=	0x00af
                    00AD    490 _IEN0_STIE	=	0x00ad
                    00AC    491 _IEN0_ENCIE	=	0x00ac
                    00AB    492 _IEN0_URX1IE	=	0x00ab
                    00AA    493 _IEN0_URX0IE	=	0x00aa
                    00A9    494 _IEN0_ADCIE	=	0x00a9
                    00A8    495 _IEN0_RFERRIE	=	0x00a8
                    00BD    496 _IEN1_P0IE	=	0x00bd
                    00BC    497 _IEN1_T4IE	=	0x00bc
                    00BB    498 _IEN1_T3IE	=	0x00bb
                    00BA    499 _IEN1_T2IE	=	0x00ba
                    00B9    500 _IEN1_T1IE	=	0x00b9
                    00B8    501 _IEN1_DMAIE	=	0x00b8
                    00C7    502 _IRCON_STIF	=	0x00c7
                    00C5    503 _IRCON_P0IF	=	0x00c5
                    00C4    504 _IRCON_T4IF	=	0x00c4
                    00C3    505 _IRCON_T3IF	=	0x00c3
                    00C2    506 _IRCON_T2IF	=	0x00c2
                    00C1    507 _IRCON_T1IF	=	0x00c1
                    00C0    508 _IRCON_DMAIF	=	0x00c0
                    00D0    509 _P	=	0x00d0
                    00D1    510 _F1	=	0x00d1
                    00D2    511 _OV	=	0x00d2
                    00D3    512 _RS0	=	0x00d3
                    00D4    513 _RS1	=	0x00d4
                    00D5    514 _F0	=	0x00d5
                    00D6    515 _AC	=	0x00d6
                    00D7    516 _CY	=	0x00d7
                    00EC    517 _IRCON2_WDTIF	=	0x00ec
                    00EB    518 _IRCON2_P1IF	=	0x00eb
                    00EA    519 _IRCON2_UTX1IF	=	0x00ea
                    00E9    520 _IRCON2_UTX0IF	=	0x00e9
                    00E8    521 _IRCON2_P2IF	=	0x00e8
                            522 ;--------------------------------------------------------
                            523 ; overlayable register banks
                            524 ;--------------------------------------------------------
                            525 	.area REG_BANK_0	(REL,OVR,DATA)
   0000                     526 	.ds 8
                            527 ;--------------------------------------------------------
                            528 ; internal ram data
                            529 ;--------------------------------------------------------
                            530 	.area DSEG    (DATA)
                            531 ;--------------------------------------------------------
                            532 ; overlayable items in internal ram 
                            533 ;--------------------------------------------------------
                            534 	.area OSEG    (OVR,DATA)
                            535 ;--------------------------------------------------------
                            536 ; indirectly addressable internal ram data
                            537 ;--------------------------------------------------------
                            538 	.area ISEG    (DATA)
                            539 ;--------------------------------------------------------
                            540 ; absolute internal ram data
                            541 ;--------------------------------------------------------
                            542 	.area IABS    (ABS,DATA)
                            543 	.area IABS    (ABS,DATA)
                            544 ;--------------------------------------------------------
                            545 ; bit data
                            546 ;--------------------------------------------------------
                            547 	.area BSEG    (BIT)
                            548 ;--------------------------------------------------------
                            549 ; paged external ram data
                            550 ;--------------------------------------------------------
                            551 	.area PSEG    (PAG,XDATA)
                            552 ;--------------------------------------------------------
                            553 ; external ram data
                            554 ;--------------------------------------------------------
                            555 	.area XSEG    (XDATA)
                    DF02    556 _MDMCTRL0H	=	0xdf02
                    DF03    557 _MDMCTRL0L	=	0xdf03
                    DF04    558 _MDMCTRL1H	=	0xdf04
                    DF05    559 _MDMCTRL1L	=	0xdf05
                    DF06    560 _RSSIH	=	0xdf06
                    DF07    561 _RSSIL	=	0xdf07
                    DF08    562 _SYNCWORDH	=	0xdf08
                    DF09    563 _SYNCWORDL	=	0xdf09
                    DF0A    564 _TXCTRLH	=	0xdf0a
                    DF0B    565 _TXCTRLL	=	0xdf0b
                    DF0C    566 _RXCTRL0H	=	0xdf0c
                    DF0D    567 _RXCTRL0L	=	0xdf0d
                    DF0E    568 _RXCTRL1H	=	0xdf0e
                    DF0F    569 _RXCTRL1L	=	0xdf0f
                    DF10    570 _FSCTRLH	=	0xdf10
                    DF11    571 _FSCTRLL	=	0xdf11
                    DF12    572 _CSPX	=	0xdf12
                    DF13    573 _CSPY	=	0xdf13
                    DF14    574 _CSPZ	=	0xdf14
                    DF15    575 _CSPCTRL	=	0xdf15
                    DF16    576 _CSPT	=	0xdf16
                    DF17    577 _RFPWR	=	0xdf17
                    DF20    578 _FSMTCH	=	0xdf20
                    DF21    579 _FSMTCL	=	0xdf21
                    DF22    580 _MANANDH	=	0xdf22
                    DF23    581 _MANANDL	=	0xdf23
                    DF24    582 _MANORH	=	0xdf24
                    DF25    583 _MANORL	=	0xdf25
                    DF26    584 _AGCCTRLH	=	0xdf26
                    DF27    585 _AGCCTRLL	=	0xdf27
                    DF39    586 _FSMSTATE	=	0xdf39
                    DF3A    587 _ADCTSTH	=	0xdf3a
                    DF3B    588 _ADCTSTL	=	0xdf3b
                    DF3C    589 _DACTSTH	=	0xdf3c
                    DF3D    590 _DACTSTL	=	0xdf3d
                    DF43    591 _IEEE_ADDR0	=	0xdf43
                    DF44    592 _IEEE_ADDR1	=	0xdf44
                    DF45    593 _IEEE_ADDR2	=	0xdf45
                    DF46    594 _IEEE_ADDR3	=	0xdf46
                    DF47    595 _IEEE_ADDR4	=	0xdf47
                    DF48    596 _IEEE_ADDR5	=	0xdf48
                    DF49    597 _IEEE_ADDR6	=	0xdf49
                    DF4A    598 _IEEE_ADDR7	=	0xdf4a
                    DF4B    599 _PANIDH	=	0xdf4b
                    DF4C    600 _PANIDL	=	0xdf4c
                    DF4D    601 _SHORTADDRH	=	0xdf4d
                    DF4E    602 _SHORTADDRL	=	0xdf4e
                    DF4F    603 _IOCFG0	=	0xdf4f
                    DF50    604 _IOCFG1	=	0xdf50
                    DF51    605 _IOCFG2	=	0xdf51
                    DF52    606 _IOCFG3	=	0xdf52
                    DF53    607 _RXFIFOCNT	=	0xdf53
                    DF54    608 _FSMTC1	=	0xdf54
                    DF60    609 _CHVER	=	0xdf60
                    DF61    610 _CHIPID	=	0xdf61
                    DF62    611 _RFSTATUS	=	0xdf62
                    DFC1    612 _U0BUF_SHADOW	=	0xdfc1
                    DFD9    613 _RFD_SHADOW	=	0xdfd9
                    DFF9    614 _U1BUF_SHADOW	=	0xdff9
                    DFBA    615 _ADC_SHADOW	=	0xdfba
   0000                     616 _recent_packets:
   0000                     617 	.ds 96
   0060                     618 _recent_packet_ptr:
   0060                     619 	.ds 1
   0061                     620 _send_queue_memb_memb_count:
   0061                     621 	.ds 6
   0067                     622 _send_queue_memb_memb_mem:
   0067                     623 	.ds 198
   012D                     624 _stats::
   012D                     625 	.ds 56
                            626 ;--------------------------------------------------------
                            627 ; absolute external ram data
                            628 ;--------------------------------------------------------
                            629 	.area XABS    (ABS,XDATA)
                            630 ;--------------------------------------------------------
                            631 ; external initialized ram data
                            632 ;--------------------------------------------------------
                            633 	.area XISEG   (XDATA)
   0000                     634 _send_queue_memb:
   0000                     635 	.ds 10
                            636 	.area HOME    (CODE)
                            637 	.area GSINIT0 (CODE)
                            638 	.area GSINIT1 (CODE)
                            639 	.area GSINIT2 (CODE)
                            640 	.area GSINIT3 (CODE)
                            641 	.area GSINIT4 (CODE)
                            642 	.area GSINIT5 (CODE)
                            643 	.area GSINIT  (CODE)
                            644 	.area GSFINAL (CODE)
                            645 	.area CSEG    (CODE)
                            646 ;--------------------------------------------------------
                            647 ; global & static initialisations
                            648 ;--------------------------------------------------------
                            649 	.area HOME    (CODE)
                            650 	.area GSINIT  (CODE)
                            651 	.area GSFINAL (CODE)
                            652 	.area GSINIT  (CODE)
                            653 ;--------------------------------------------------------
                            654 ; Home
                            655 ;--------------------------------------------------------
                            656 	.area HOME    (CODE)
                            657 	.area HOME    (CODE)
                            658 ;--------------------------------------------------------
                            659 ; code
                            660 ;--------------------------------------------------------
                            661 	.area CSEG    (CODE)
                            662 ;------------------------------------------------------------
                            663 ;Allocation info for local variables in function 'rtmetric_compute'
                            664 ;------------------------------------------------------------
                            665 ;tc                        Allocated to registers r5 r6 r7 
                            666 ;n                         Allocated to registers r5 r6 r7 
                            667 ;rtmetric                  Allocated to registers r3 r4 
                            668 ;------------------------------------------------------------
                            669 ;	../../core/net/rime/collect.c:218: rtmetric_compute(struct collect_conn *tc)
                            670 ;	-----------------------------------------
                            671 ;	 function rtmetric_compute
                            672 ;	-----------------------------------------
   0000                     673 _rtmetric_compute:
                    0007    674 	ar7 = 0x07
                    0006    675 	ar6 = 0x06
                    0005    676 	ar5 = 0x05
                    0004    677 	ar4 = 0x04
                    0003    678 	ar3 = 0x03
                    0002    679 	ar2 = 0x02
                    0001    680 	ar1 = 0x01
                    0000    681 	ar0 = 0x00
   0000 AD 82               682 	mov	r5,dpl
   0002 AE 83               683 	mov	r6,dph
   0004 AF F0               684 	mov	r7,b
                            685 ;	../../core/net/rime/collect.c:230: n = collect_neighbor_list_find(&tc->neighbor_list, &tc->parent);
   0006 74 9C               686 	mov	a,#0x9C
   0008 2D                  687 	add	a,r5
   0009 FA                  688 	mov	r2,a
   000A E4                  689 	clr	a
   000B 3E                  690 	addc	a,r6
   000C FB                  691 	mov	r3,a
   000D 8F 04               692 	mov	ar4,r7
   000F 74 55               693 	mov	a,#0x55
   0011 2D                  694 	add	a,r5
   0012 FD                  695 	mov	r5,a
   0013 E4                  696 	clr	a
   0014 3E                  697 	addc	a,r6
   0015 FE                  698 	mov	r6,a
   0016 C0 02               699 	push	ar2
   0018 C0 03               700 	push	ar3
   001A C0 04               701 	push	ar4
   001C 8D 82               702 	mov	dpl,r5
   001E 8E 83               703 	mov	dph,r6
   0020 8F F0               704 	mov	b,r7
   0022 12s00r00            705 	lcall	_collect_neighbor_list_find
   0025 AD 82               706 	mov	r5,dpl
   0027 AE 83               707 	mov	r6,dph
   0029 AF F0               708 	mov	r7,b
   002B 15 81               709 	dec	sp
   002D 15 81               710 	dec	sp
   002F 15 81               711 	dec	sp
                            712 ;	../../core/net/rime/collect.c:234: if(n == NULL) {
   0031 ED                  713 	mov	a,r5
   0032 4E                  714 	orl	a,r6
   0033 70 06               715 	jnz	00102$
                            716 ;	../../core/net/rime/collect.c:235: rtmetric = RTMETRIC_MAX;
   0035 7B FF               717 	mov	r3,#0xFF
   0037 7C 01               718 	mov	r4,#0x01
   0039 80 11               719 	sjmp	00103$
   003B                     720 00102$:
                            721 ;	../../core/net/rime/collect.c:239: rtmetric = collect_neighbor_rtmetric_link_estimate(n);
   003B 8D 82               722 	mov	dpl,r5
   003D 8E 83               723 	mov	dph,r6
   003F 8F F0               724 	mov	b,r7
   0041 12s00r00            725 	lcall	_collect_neighbor_rtmetric_link_estimate
   0044 AE 82               726 	mov	r6,dpl
   0046 AF 83               727 	mov	r7,dph
   0048 8E 03               728 	mov	ar3,r6
   004A 8F 04               729 	mov	ar4,r7
   004C                     730 00103$:
                            731 ;	../../core/net/rime/collect.c:242: return rtmetric;
   004C 8B 82               732 	mov	dpl,r3
   004E 8C 83               733 	mov	dph,r4
   0050 22                  734 	ret
                            735 ;------------------------------------------------------------
                            736 ;Allocation info for local variables in function 'bump_advertisement'
                            737 ;------------------------------------------------------------
                            738 ;c                         Allocated to registers r5 r6 r7 
                            739 ;------------------------------------------------------------
                            740 ;	../../core/net/rime/collect.c:251: bump_advertisement(struct collect_conn *c)
                            741 ;	-----------------------------------------
                            742 ;	 function bump_advertisement
                            743 ;	-----------------------------------------
   0051                     744 _bump_advertisement:
   0051 AD 82               745 	mov	r5,dpl
   0053 AE 83               746 	mov	r6,dph
   0055 AF F0               747 	mov	r7,b
                            748 ;	../../core/net/rime/collect.c:256: announcement_bump(&c->announcement);
   0057 74 12               749 	mov	a,#0x12
   0059 2D                  750 	add	a,r5
   005A FD                  751 	mov	r5,a
   005B E4                  752 	clr	a
   005C 3E                  753 	addc	a,r6
   005D FE                  754 	mov	r6,a
   005E 8D 82               755 	mov	dpl,r5
   0060 8E 83               756 	mov	dph,r6
   0062 8F F0               757 	mov	b,r7
   0064 02s00r00            758 	ljmp	_announcement_bump
                            759 ;------------------------------------------------------------
                            760 ;Allocation info for local variables in function 'update_parent'
                            761 ;------------------------------------------------------------
                            762 ;tc                        Allocated to stack - _bp +1
                            763 ;current                   Allocated to registers r5 r6 r7 
                            764 ;best                      Allocated to stack - _bp +4
                            765 ;previous_parent           Allocated to stack - _bp +7
                            766 ;sloc0                     Allocated to stack - _bp +12
                            767 ;sloc1                     Allocated to stack - _bp +15
                            768 ;------------------------------------------------------------
                            769 ;	../../core/net/rime/collect.c:268: update_parent(struct collect_conn *tc)
                            770 ;	-----------------------------------------
                            771 ;	 function update_parent
                            772 ;	-----------------------------------------
   0067                     773 _update_parent:
   0067 C0*00               774 	push	_bp
   0069 85 81*00            775 	mov	_bp,sp
   006C C0 82               776 	push	dpl
   006E C0 83               777 	push	dph
   0070 C0 F0               778 	push	b
   0072 E5 81               779 	mov	a,sp
   0074 24 05               780 	add	a,#0x05
   0076 F5 81               781 	mov	sp,a
                            782 ;	../../core/net/rime/collect.c:274: current = collect_neighbor_list_find(&tc->neighbor_list, &tc->parent);
   0078 A8*00               783 	mov	r0,_bp
   007A 08                  784 	inc	r0
   007B 74 9C               785 	mov	a,#0x9C
   007D 26                  786 	add	a,@r0
   007E FA                  787 	mov	r2,a
   007F E4                  788 	clr	a
   0080 08                  789 	inc	r0
   0081 36                  790 	addc	a,@r0
   0082 FB                  791 	mov	r3,a
   0083 08                  792 	inc	r0
   0084 86 04               793 	mov	ar4,@r0
   0086 A8*00               794 	mov	r0,_bp
   0088 08                  795 	inc	r0
   0089 74 55               796 	mov	a,#0x55
   008B 26                  797 	add	a,@r0
   008C FD                  798 	mov	r5,a
   008D E4                  799 	clr	a
   008E 08                  800 	inc	r0
   008F 36                  801 	addc	a,@r0
   0090 FE                  802 	mov	r6,a
   0091 08                  803 	inc	r0
   0092 86 07               804 	mov	ar7,@r0
   0094 C0 02               805 	push	ar2
   0096 C0 03               806 	push	ar3
   0098 C0 04               807 	push	ar4
   009A 8D 82               808 	mov	dpl,r5
   009C 8E 83               809 	mov	dph,r6
   009E 8F F0               810 	mov	b,r7
   00A0 12s00r00            811 	lcall	_collect_neighbor_list_find
   00A3 AD 82               812 	mov	r5,dpl
   00A5 AE 83               813 	mov	r6,dph
   00A7 AF F0               814 	mov	r7,b
   00A9 15 81               815 	dec	sp
   00AB 15 81               816 	dec	sp
   00AD 15 81               817 	dec	sp
                            818 ;	../../core/net/rime/collect.c:278: best = collect_neighbor_list_best(&tc->neighbor_list);
   00AF A8*00               819 	mov	r0,_bp
   00B1 08                  820 	inc	r0
   00B2 74 55               821 	mov	a,#0x55
   00B4 26                  822 	add	a,@r0
   00B5 FA                  823 	mov	r2,a
   00B6 E4                  824 	clr	a
   00B7 08                  825 	inc	r0
   00B8 36                  826 	addc	a,@r0
   00B9 FB                  827 	mov	r3,a
   00BA 08                  828 	inc	r0
   00BB 86 04               829 	mov	ar4,@r0
   00BD 8A 82               830 	mov	dpl,r2
   00BF 8B 83               831 	mov	dph,r3
   00C1 8C F0               832 	mov	b,r4
   00C3 C0 07               833 	push	ar7
   00C5 C0 06               834 	push	ar6
   00C7 C0 05               835 	push	ar5
   00C9 12s00r00            836 	lcall	_collect_neighbor_list_best
   00CC AA 82               837 	mov	r2,dpl
   00CE AB 83               838 	mov	r3,dph
   00D0 AC F0               839 	mov	r4,b
   00D2 D0 05               840 	pop	ar5
   00D4 D0 06               841 	pop	ar6
   00D6 D0 07               842 	pop	ar7
   00D8 E5*00               843 	mov	a,_bp
   00DA 24 04               844 	add	a,#0x04
   00DC F8                  845 	mov	r0,a
   00DD A6 02               846 	mov	@r0,ar2
   00DF 08                  847 	inc	r0
   00E0 A6 03               848 	mov	@r0,ar3
   00E2 08                  849 	inc	r0
   00E3 A6 04               850 	mov	@r0,ar4
                            851 ;	../../core/net/rime/collect.c:297: if(best != NULL) {
   00E5 E5*00               852 	mov	a,_bp
   00E7 24 04               853 	add	a,#0x04
   00E9 F8                  854 	mov	r0,a
   00EA E6                  855 	mov	a,@r0
   00EB 08                  856 	inc	r0
   00EC 46                  857 	orl	a,@r0
   00ED 70 03               858 	jnz	00138$
   00EF 02s02r17            859 	ljmp	00126$
   00F2                     860 00138$:
                            861 ;	../../core/net/rime/collect.c:304: if(current == NULL) {
   00F2 ED                  862 	mov	a,r5
   00F3 4E                  863 	orl	a,r6
   00F4 70 6D               864 	jnz	00104$
                            865 ;	../../core/net/rime/collect.c:308: rimeaddr_copy(&tc->parent, &best->addr);
   00F6 E5*00               866 	mov	a,_bp
   00F8 24 04               867 	add	a,#0x04
   00FA F8                  868 	mov	r0,a
   00FB 74 03               869 	mov	a,#0x03
   00FD 26                  870 	add	a,@r0
   00FE FF                  871 	mov	r7,a
   00FF E4                  872 	clr	a
   0100 08                  873 	inc	r0
   0101 36                  874 	addc	a,@r0
   0102 FE                  875 	mov	r6,a
   0103 08                  876 	inc	r0
   0104 86 05               877 	mov	ar5,@r0
   0106 A8*00               878 	mov	r0,_bp
   0108 08                  879 	inc	r0
   0109 74 9C               880 	mov	a,#0x9C
   010B 26                  881 	add	a,@r0
   010C FA                  882 	mov	r2,a
   010D E4                  883 	clr	a
   010E 08                  884 	inc	r0
   010F 36                  885 	addc	a,@r0
   0110 FB                  886 	mov	r3,a
   0111 08                  887 	inc	r0
   0112 86 04               888 	mov	ar4,@r0
   0114 C0 07               889 	push	ar7
   0116 C0 06               890 	push	ar6
   0118 C0 05               891 	push	ar5
   011A 8A 82               892 	mov	dpl,r2
   011C 8B 83               893 	mov	dph,r3
   011E 8C F0               894 	mov	b,r4
   0120 12s00r00            895 	lcall	_rimeaddr_copy
   0123 15 81               896 	dec	sp
   0125 15 81               897 	dec	sp
   0127 15 81               898 	dec	sp
                            899 ;	../../core/net/rime/collect.c:309: stats.foundroute++;
   0129 90s01r2D            900 	mov	dptr,#_stats
   012C E0                  901 	movx	a,@dptr
   012D FF                  902 	mov	r7,a
   012E A3                  903 	inc	dptr
   012F E0                  904 	movx	a,@dptr
   0130 FE                  905 	mov	r6,a
   0131 A3                  906 	inc	dptr
   0132 E0                  907 	movx	a,@dptr
   0133 FD                  908 	mov	r5,a
   0134 A3                  909 	inc	dptr
   0135 E0                  910 	movx	a,@dptr
   0136 FC                  911 	mov	r4,a
   0137 0F                  912 	inc	r7
   0138 BF 00 09            913 	cjne	r7,#0x00,00140$
   013B 0E                  914 	inc	r6
   013C BE 00 05            915 	cjne	r6,#0x00,00140$
   013F 0D                  916 	inc	r5
   0140 BD 00 01            917 	cjne	r5,#0x00,00140$
   0143 0C                  918 	inc	r4
   0144                     919 00140$:
   0144 90s01r2D            920 	mov	dptr,#_stats
   0147 EF                  921 	mov	a,r7
   0148 F0                  922 	movx	@dptr,a
   0149 A3                  923 	inc	dptr
   014A EE                  924 	mov	a,r6
   014B F0                  925 	movx	@dptr,a
   014C A3                  926 	inc	dptr
   014D ED                  927 	mov	a,r5
   014E F0                  928 	movx	@dptr,a
   014F A3                  929 	inc	dptr
   0150 EC                  930 	mov	a,r4
   0151 F0                  931 	movx	@dptr,a
                            932 ;	../../core/net/rime/collect.c:310: bump_advertisement(tc);
   0152 A8*00               933 	mov	r0,_bp
   0154 08                  934 	inc	r0
   0155 86 82               935 	mov	dpl,@r0
   0157 08                  936 	inc	r0
   0158 86 83               937 	mov	dph,@r0
   015A 08                  938 	inc	r0
   015B 86 F0               939 	mov	b,@r0
   015D 12s00r51            940 	lcall	_bump_advertisement
   0160 02s02r9A            941 	ljmp	00128$
                            942 ;	../../core/net/rime/collect.c:313: printf("#A e=%d\n", collect_neighbor_link_estimate(best));
   0163                     943 00104$:
                            944 ;	../../core/net/rime/collect.c:315: if(collect_neighbor_rtmetric_link_estimate(best) +
   0163 E5*00               945 	mov	a,_bp
   0165 24 04               946 	add	a,#0x04
   0167 F8                  947 	mov	r0,a
   0168 86 82               948 	mov	dpl,@r0
   016A 08                  949 	inc	r0
   016B 86 83               950 	mov	dph,@r0
   016D 08                  951 	inc	r0
   016E 86 F0               952 	mov	b,@r0
   0170 C0 07               953 	push	ar7
   0172 C0 06               954 	push	ar6
   0174 C0 05               955 	push	ar5
   0176 12s00r00            956 	lcall	_collect_neighbor_rtmetric_link_estimate
   0179 E5 82               957 	mov	a,dpl
   017B 85 83 F0            958 	mov	b,dph
   017E D0 05               959 	pop	ar5
   0180 D0 06               960 	pop	ar6
   0182 D0 07               961 	pop	ar7
   0184 24 0C               962 	add	a,#0x0C
   0186 FB                  963 	mov	r3,a
   0187 E4                  964 	clr	a
   0188 35 F0               965 	addc	a,b
   018A FC                  966 	mov	r4,a
                            967 ;	../../core/net/rime/collect.c:317: collect_neighbor_rtmetric_link_estimate(current)) {
   018B 8D 82               968 	mov	dpl,r5
   018D 8E 83               969 	mov	dph,r6
   018F 8F F0               970 	mov	b,r7
   0191 C0 04               971 	push	ar4
   0193 C0 03               972 	push	ar3
   0195 12s00r00            973 	lcall	_collect_neighbor_rtmetric_link_estimate
   0198 AE 82               974 	mov	r6,dpl
   019A AF 83               975 	mov	r7,dph
   019C D0 03               976 	pop	ar3
   019E D0 04               977 	pop	ar4
   01A0 C3                  978 	clr	c
   01A1 EB                  979 	mov	a,r3
   01A2 9E                  980 	subb	a,r6
   01A3 EC                  981 	mov	a,r4
   01A4 9F                  982 	subb	a,r7
   01A5 40 03               983 	jc	00141$
   01A7 02s02r9A            984 	ljmp	00128$
   01AA                     985 00141$:
                            986 ;	../../core/net/rime/collect.c:325: rimeaddr_copy(&tc->parent, &best->addr);
   01AA E5*00               987 	mov	a,_bp
   01AC 24 04               988 	add	a,#0x04
   01AE F8                  989 	mov	r0,a
   01AF 74 03               990 	mov	a,#0x03
   01B1 26                  991 	add	a,@r0
   01B2 FD                  992 	mov	r5,a
   01B3 E4                  993 	clr	a
   01B4 08                  994 	inc	r0
   01B5 36                  995 	addc	a,@r0
   01B6 FE                  996 	mov	r6,a
   01B7 08                  997 	inc	r0
   01B8 86 07               998 	mov	ar7,@r0
   01BA A8*00               999 	mov	r0,_bp
   01BC 08                 1000 	inc	r0
   01BD 74 9C              1001 	mov	a,#0x9C
   01BF 26                 1002 	add	a,@r0
   01C0 FA                 1003 	mov	r2,a
   01C1 E4                 1004 	clr	a
   01C2 08                 1005 	inc	r0
   01C3 36                 1006 	addc	a,@r0
   01C4 FB                 1007 	mov	r3,a
   01C5 08                 1008 	inc	r0
   01C6 86 04              1009 	mov	ar4,@r0
   01C8 C0 05              1010 	push	ar5
   01CA C0 06              1011 	push	ar6
   01CC C0 07              1012 	push	ar7
   01CE 8A 82              1013 	mov	dpl,r2
   01D0 8B 83              1014 	mov	dph,r3
   01D2 8C F0              1015 	mov	b,r4
   01D4 12s00r00           1016 	lcall	_rimeaddr_copy
   01D7 15 81              1017 	dec	sp
   01D9 15 81              1018 	dec	sp
   01DB 15 81              1019 	dec	sp
                           1020 ;	../../core/net/rime/collect.c:326: stats.newparent++;
   01DD 90s01r31           1021 	mov	dptr,#(_stats + 0x0004)
   01E0 E0                 1022 	movx	a,@dptr
   01E1 FC                 1023 	mov	r4,a
   01E2 A3                 1024 	inc	dptr
   01E3 E0                 1025 	movx	a,@dptr
   01E4 FD                 1026 	mov	r5,a
   01E5 A3                 1027 	inc	dptr
   01E6 E0                 1028 	movx	a,@dptr
   01E7 FE                 1029 	mov	r6,a
   01E8 A3                 1030 	inc	dptr
   01E9 E0                 1031 	movx	a,@dptr
   01EA FF                 1032 	mov	r7,a
   01EB 0C                 1033 	inc	r4
   01EC BC 00 09           1034 	cjne	r4,#0x00,00142$
   01EF 0D                 1035 	inc	r5
   01F0 BD 00 05           1036 	cjne	r5,#0x00,00142$
   01F3 0E                 1037 	inc	r6
   01F4 BE 00 01           1038 	cjne	r6,#0x00,00142$
   01F7 0F                 1039 	inc	r7
   01F8                    1040 00142$:
   01F8 90s01r31           1041 	mov	dptr,#(_stats + 0x0004)
   01FB EC                 1042 	mov	a,r4
   01FC F0                 1043 	movx	@dptr,a
   01FD A3                 1044 	inc	dptr
   01FE ED                 1045 	mov	a,r5
   01FF F0                 1046 	movx	@dptr,a
   0200 A3                 1047 	inc	dptr
   0201 EE                 1048 	mov	a,r6
   0202 F0                 1049 	movx	@dptr,a
   0203 A3                 1050 	inc	dptr
   0204 EF                 1051 	mov	a,r7
   0205 F0                 1052 	movx	@dptr,a
                           1053 ;	../../core/net/rime/collect.c:329: bump_advertisement(tc);
   0206 A8*00              1054 	mov	r0,_bp
   0208 08                 1055 	inc	r0
   0209 86 82              1056 	mov	dpl,@r0
   020B 08                 1057 	inc	r0
   020C 86 83              1058 	mov	dph,@r0
   020E 08                 1059 	inc	r0
   020F 86 F0              1060 	mov	b,@r0
   0211 12s00r51           1061 	lcall	_bump_advertisement
                           1062 ;	../../core/net/rime/collect.c:331: if(DRAW_TREE) {
   0214 02s02r9A           1063 	ljmp	00128$
                           1064 ;	../../core/net/rime/collect.c:365: printf("#L %d 1\n", tc->parent.u8[0]);
   0217                    1065 00126$:
                           1066 ;	../../core/net/rime/collect.c:370: if(!rimeaddr_cmp(&tc->parent, &rimeaddr_null)) {
   0217 A8*00              1067 	mov	r0,_bp
   0219 08                 1068 	inc	r0
   021A 74 9C              1069 	mov	a,#0x9C
   021C 26                 1070 	add	a,@r0
   021D FD                 1071 	mov	r5,a
   021E E4                 1072 	clr	a
   021F 08                 1073 	inc	r0
   0220 36                 1074 	addc	a,@r0
   0221 FE                 1075 	mov	r6,a
   0222 08                 1076 	inc	r0
   0223 86 07              1077 	mov	ar7,@r0
   0225 74r00              1078 	mov	a,#_rimeaddr_null
   0227 C0 E0              1079 	push	acc
   0229 74s00              1080 	mov	a,#(_rimeaddr_null >> 8)
   022B C0 E0              1081 	push	acc
   022D 74 80              1082 	mov	a,#0x80
   022F C0 E0              1083 	push	acc
   0231 8D 82              1084 	mov	dpl,r5
   0233 8E 83              1085 	mov	dph,r6
   0235 8F F0              1086 	mov	b,r7
   0237 12s00r00           1087 	lcall	_rimeaddr_cmp
   023A AE 82              1088 	mov	r6,dpl
   023C AF 83              1089 	mov	r7,dph
   023E 15 81              1090 	dec	sp
   0240 15 81              1091 	dec	sp
   0242 15 81              1092 	dec	sp
   0244 EE                 1093 	mov	a,r6
   0245 4F                 1094 	orl	a,r7
   0246 70 29              1095 	jnz	00124$
                           1096 ;	../../core/net/rime/collect.c:374: stats.routelost++;
   0248 90s01r35           1097 	mov	dptr,#(_stats + 0x0008)
   024B E0                 1098 	movx	a,@dptr
   024C FC                 1099 	mov	r4,a
   024D A3                 1100 	inc	dptr
   024E E0                 1101 	movx	a,@dptr
   024F FD                 1102 	mov	r5,a
   0250 A3                 1103 	inc	dptr
   0251 E0                 1104 	movx	a,@dptr
   0252 FE                 1105 	mov	r6,a
   0253 A3                 1106 	inc	dptr
   0254 E0                 1107 	movx	a,@dptr
   0255 FF                 1108 	mov	r7,a
   0256 0C                 1109 	inc	r4
   0257 BC 00 09           1110 	cjne	r4,#0x00,00144$
   025A 0D                 1111 	inc	r5
   025B BD 00 05           1112 	cjne	r5,#0x00,00144$
   025E 0E                 1113 	inc	r6
   025F BE 00 01           1114 	cjne	r6,#0x00,00144$
   0262 0F                 1115 	inc	r7
   0263                    1116 00144$:
   0263 90s01r35           1117 	mov	dptr,#(_stats + 0x0008)
   0266 EC                 1118 	mov	a,r4
   0267 F0                 1119 	movx	@dptr,a
   0268 A3                 1120 	inc	dptr
   0269 ED                 1121 	mov	a,r5
   026A F0                 1122 	movx	@dptr,a
   026B A3                 1123 	inc	dptr
   026C EE                 1124 	mov	a,r6
   026D F0                 1125 	movx	@dptr,a
   026E A3                 1126 	inc	dptr
   026F EF                 1127 	mov	a,r7
   0270 F0                 1128 	movx	@dptr,a
   0271                    1129 00124$:
                           1130 ;	../../core/net/rime/collect.c:376: rimeaddr_copy(&tc->parent, &rimeaddr_null);
   0271 A8*00              1131 	mov	r0,_bp
   0273 08                 1132 	inc	r0
   0274 74 9C              1133 	mov	a,#0x9C
   0276 26                 1134 	add	a,@r0
   0277 FD                 1135 	mov	r5,a
   0278 E4                 1136 	clr	a
   0279 08                 1137 	inc	r0
   027A 36                 1138 	addc	a,@r0
   027B FE                 1139 	mov	r6,a
   027C 08                 1140 	inc	r0
   027D 86 07              1141 	mov	ar7,@r0
   027F 74r00              1142 	mov	a,#_rimeaddr_null
   0281 C0 E0              1143 	push	acc
   0283 74s00              1144 	mov	a,#(_rimeaddr_null >> 8)
   0285 C0 E0              1145 	push	acc
   0287 74 80              1146 	mov	a,#0x80
   0289 C0 E0              1147 	push	acc
   028B 8D 82              1148 	mov	dpl,r5
   028D 8E 83              1149 	mov	dph,r6
   028F 8F F0              1150 	mov	b,r7
   0291 12s00r00           1151 	lcall	_rimeaddr_copy
   0294 15 81              1152 	dec	sp
   0296 15 81              1153 	dec	sp
   0298 15 81              1154 	dec	sp
   029A                    1155 00128$:
   029A 85*00 81           1156 	mov	sp,_bp
   029D D0*00              1157 	pop	_bp
   029F 22                 1158 	ret
                           1159 ;------------------------------------------------------------
                           1160 ;Allocation info for local variables in function 'update_rtmetric'
                           1161 ;------------------------------------------------------------
                           1162 ;tc                        Allocated to stack - _bp +1
                           1163 ;old_rtmetric              Allocated to stack - _bp +4
                           1164 ;new_rtmetric              Allocated to registers r6 r7 
                           1165 ;sloc0                     Allocated to stack - _bp +8
                           1166 ;------------------------------------------------------------
                           1167 ;	../../core/net/rime/collect.c:389: update_rtmetric(struct collect_conn *tc)
                           1168 ;	-----------------------------------------
                           1169 ;	 function update_rtmetric
                           1170 ;	-----------------------------------------
   02A0                    1171 _update_rtmetric:
   02A0 C0*00              1172 	push	_bp
   02A2 85 81*00           1173 	mov	_bp,sp
   02A5 C0 82              1174 	push	dpl
   02A7 C0 83              1175 	push	dph
   02A9 C0 F0              1176 	push	b
   02AB 05 81              1177 	inc	sp
   02AD 05 81              1178 	inc	sp
                           1179 ;	../../core/net/rime/collect.c:394: if(tc->rtmetric != RTMETRIC_SINK) {
   02AF A8*00              1180 	mov	r0,_bp
   02B1 08                 1181 	inc	r0
   02B2 74 A0              1182 	mov	a,#0xA0
   02B4 26                 1183 	add	a,@r0
   02B5 FA                 1184 	mov	r2,a
   02B6 E4                 1185 	clr	a
   02B7 08                 1186 	inc	r0
   02B8 36                 1187 	addc	a,@r0
   02B9 FB                 1188 	mov	r3,a
   02BA 08                 1189 	inc	r0
   02BB 86 04              1190 	mov	ar4,@r0
   02BD 8A 82              1191 	mov	dpl,r2
   02BF 8B 83              1192 	mov	dph,r3
   02C1 8C F0              1193 	mov	b,r4
   02C3 12s00r00           1194 	lcall	__gptrget
   02C6 FF                 1195 	mov	r7,a
   02C7 A3                 1196 	inc	dptr
   02C8 12s00r00           1197 	lcall	__gptrget
   02CB FE                 1198 	mov	r6,a
   02CC 4F                 1199 	orl	a,r7
   02CD 70 03              1200 	jnz	00126$
   02CF 02s03rA0           1201 	ljmp	00114$
   02D2                    1202 00126$:
                           1203 ;	../../core/net/rime/collect.c:398: old_rtmetric = tc->rtmetric;
   02D2 E5*00              1204 	mov	a,_bp
   02D4 24 04              1205 	add	a,#0x04
   02D6 F8                 1206 	mov	r0,a
   02D7 A6 07              1207 	mov	@r0,ar7
   02D9 08                 1208 	inc	r0
   02DA A6 06              1209 	mov	@r0,ar6
                           1210 ;	../../core/net/rime/collect.c:401: update_parent(tc);
   02DC A8*00              1211 	mov	r0,_bp
   02DE 08                 1212 	inc	r0
   02DF 86 82              1213 	mov	dpl,@r0
   02E1 08                 1214 	inc	r0
   02E2 86 83              1215 	mov	dph,@r0
   02E4 08                 1216 	inc	r0
   02E5 86 F0              1217 	mov	b,@r0
   02E7 C0 04              1218 	push	ar4
   02E9 C0 03              1219 	push	ar3
   02EB C0 02              1220 	push	ar2
   02ED 12s00r67           1221 	lcall	_update_parent
                           1222 ;	../../core/net/rime/collect.c:404: new_rtmetric = rtmetric_compute(tc);
   02F0 A8*00              1223 	mov	r0,_bp
   02F2 08                 1224 	inc	r0
   02F3 86 82              1225 	mov	dpl,@r0
   02F5 08                 1226 	inc	r0
   02F6 86 83              1227 	mov	dph,@r0
   02F8 08                 1228 	inc	r0
   02F9 86 F0              1229 	mov	b,@r0
   02FB 12s00r00           1230 	lcall	_rtmetric_compute
   02FE AE 82              1231 	mov	r6,dpl
   0300 AF 83              1232 	mov	r7,dph
   0302 D0 02              1233 	pop	ar2
   0304 D0 03              1234 	pop	ar3
   0306 D0 04              1235 	pop	ar4
                           1236 ;	../../core/net/rime/collect.c:407: if(new_rtmetric == RTMETRIC_SINK) {
   0308 EE                 1237 	mov	a,r6
   0309 4F                 1238 	orl	a,r7
   030A 70 04              1239 	jnz	00102$
                           1240 ;	../../core/net/rime/collect.c:413: new_rtmetric = RTMETRIC_MAX;
   030C 7E FF              1241 	mov	r6,#0xFF
   030E 7F 01              1242 	mov	r7,#0x01
   0310                    1243 00102$:
                           1244 ;	../../core/net/rime/collect.c:418: tc->rtmetric = new_rtmetric;
   0310 8A 82              1245 	mov	dpl,r2
   0312 8B 83              1246 	mov	dph,r3
   0314 8C F0              1247 	mov	b,r4
   0316 EE                 1248 	mov	a,r6
   0317 12s00r00           1249 	lcall	__gptrput
   031A A3                 1250 	inc	dptr
   031B EF                 1251 	mov	a,r7
   031C 12s00r00           1252 	lcall	__gptrput
                           1253 ;	../../core/net/rime/collect.c:420: if(tc->is_router) {
   031F C0 06              1254 	push	ar6
   0321 C0 07              1255 	push	ar7
   0323 A8*00              1256 	mov	r0,_bp
   0325 08                 1257 	inc	r0
   0326 74 A7              1258 	mov	a,#0xA7
   0328 26                 1259 	add	a,@r0
   0329 FD                 1260 	mov	r5,a
   032A E4                 1261 	clr	a
   032B 08                 1262 	inc	r0
   032C 36                 1263 	addc	a,@r0
   032D FE                 1264 	mov	r6,a
   032E 08                 1265 	inc	r0
   032F 86 07              1266 	mov	ar7,@r0
   0331 8D 82              1267 	mov	dpl,r5
   0333 8E 83              1268 	mov	dph,r6
   0335 8F F0              1269 	mov	b,r7
   0337 12s00r00           1270 	lcall	__gptrget
   033A D0 07              1271 	pop	ar7
   033C D0 06              1272 	pop	ar6
   033E 60 3E              1273 	jz	00104$
                           1274 ;	../../core/net/rime/collect.c:423: announcement_set_value(&tc->announcement, tc->rtmetric);
   0340 C0 06              1275 	push	ar6
   0342 C0 07              1276 	push	ar7
   0344 8A 82              1277 	mov	dpl,r2
   0346 8B 83              1278 	mov	dph,r3
   0348 8C F0              1279 	mov	b,r4
   034A 12s00r00           1280 	lcall	__gptrget
   034D FA                 1281 	mov	r2,a
   034E A3                 1282 	inc	dptr
   034F 12s00r00           1283 	lcall	__gptrget
   0352 FB                 1284 	mov	r3,a
   0353 A8*00              1285 	mov	r0,_bp
   0355 08                 1286 	inc	r0
   0356 74 12              1287 	mov	a,#0x12
   0358 26                 1288 	add	a,@r0
   0359 FC                 1289 	mov	r4,a
   035A E4                 1290 	clr	a
   035B 08                 1291 	inc	r0
   035C 36                 1292 	addc	a,@r0
   035D FD                 1293 	mov	r5,a
   035E 08                 1294 	inc	r0
   035F 86 07              1295 	mov	ar7,@r0
   0361 C0 07              1296 	push	ar7
   0363 C0 06              1297 	push	ar6
   0365 C0 02              1298 	push	ar2
   0367 C0 03              1299 	push	ar3
   0369 8C 82              1300 	mov	dpl,r4
   036B 8D 83              1301 	mov	dph,r5
   036D 8F F0              1302 	mov	b,r7
   036F 12s00r00           1303 	lcall	_announcement_set_value
   0372 15 81              1304 	dec	sp
   0374 15 81              1305 	dec	sp
   0376 D0 06              1306 	pop	ar6
   0378 D0 07              1307 	pop	ar7
                           1308 ;	../../core/net/rime/collect.c:440: printf("#A rt=%d,p=%d\n", tc->rtmetric, tc->parent.u8[0]);
   037A D0 07              1309 	pop	ar7
   037C D0 06              1310 	pop	ar6
                           1311 ;	../../core/net/rime/collect.c:423: announcement_set_value(&tc->announcement, tc->rtmetric);
   037E                    1312 00104$:
                           1313 ;	../../core/net/rime/collect.c:434: if(old_rtmetric == RTMETRIC_MAX && new_rtmetric != RTMETRIC_MAX) {
   037E E5*00              1314 	mov	a,_bp
   0380 24 04              1315 	add	a,#0x04
   0382 F8                 1316 	mov	r0,a
   0383 B6 FF 1A           1317 	cjne	@r0,#0xFF,00114$
   0386 08                 1318 	inc	r0
   0387 B6 01 16           1319 	cjne	@r0,#0x01,00114$
   038A BE FF 05           1320 	cjne	r6,#0xFF,00131$
   038D BF 01 02           1321 	cjne	r7,#0x01,00131$
   0390 80 0E              1322 	sjmp	00114$
   0392                    1323 00131$:
                           1324 ;	../../core/net/rime/collect.c:436: send_queued_packet(tc);
   0392 A8*00              1325 	mov	r0,_bp
   0394 08                 1326 	inc	r0
   0395 86 82              1327 	mov	dpl,@r0
   0397 08                 1328 	inc	r0
   0398 86 83              1329 	mov	dph,@r0
   039A 08                 1330 	inc	r0
   039B 86 F0              1331 	mov	b,@r0
   039D 12s08r41           1332 	lcall	_send_queued_packet
                           1333 ;	../../core/net/rime/collect.c:440: printf("#A rt=%d,p=%d\n", tc->rtmetric, tc->parent.u8[0]);
   03A0                    1334 00114$:
   03A0 85*00 81           1335 	mov	sp,_bp
   03A3 D0*00              1336 	pop	_bp
   03A5 22                 1337 	ret
                           1338 ;------------------------------------------------------------
                           1339 ;Allocation info for local variables in function 'enqueue_dummy_packet'
                           1340 ;------------------------------------------------------------
                           1341 ;rexmits                   Allocated to stack - _bp -4
                           1342 ;c                         Allocated to stack - _bp +1
                           1343 ;n                         Allocated to registers r5 r6 r7 
                           1344 ;sloc0                     Allocated to stack - _bp +4
                           1345 ;------------------------------------------------------------
                           1346 ;	../../core/net/rime/collect.c:447: enqueue_dummy_packet(struct collect_conn *c, int rexmits)
                           1347 ;	-----------------------------------------
                           1348 ;	 function enqueue_dummy_packet
                           1349 ;	-----------------------------------------
   03A6                    1350 _enqueue_dummy_packet:
   03A6 C0*00              1351 	push	_bp
   03A8 85 81*00           1352 	mov	_bp,sp
   03AB C0 82              1353 	push	dpl
   03AD C0 83              1354 	push	dph
   03AF C0 F0              1355 	push	b
   03B1 05 81              1356 	inc	sp
   03B3 05 81              1357 	inc	sp
                           1358 ;	../../core/net/rime/collect.c:451: packetbuf_clear();
   03B5 12s00r00           1359 	lcall	_packetbuf_clear
                           1360 ;	../../core/net/rime/collect.c:452: packetbuf_set_attr(PACKETBUF_ATTR_EPACKET_ID, c->eseqno - 1);
   03B8 A8*00              1361 	mov	r0,_bp
   03BA 08                 1362 	inc	r0
   03BB 74 A6              1363 	mov	a,#0xA6
   03BD 26                 1364 	add	a,@r0
   03BE FA                 1365 	mov	r2,a
   03BF E4                 1366 	clr	a
   03C0 08                 1367 	inc	r0
   03C1 36                 1368 	addc	a,@r0
   03C2 FB                 1369 	mov	r3,a
   03C3 08                 1370 	inc	r0
   03C4 86 04              1371 	mov	ar4,@r0
   03C6 8A 82              1372 	mov	dpl,r2
   03C8 8B 83              1373 	mov	dph,r3
   03CA 8C F0              1374 	mov	b,r4
   03CC 12s00r00           1375 	lcall	__gptrget
   03CF FA                 1376 	mov	r2,a
   03D0 7C 00              1377 	mov	r4,#0x00
   03D2 1A                 1378 	dec	r2
   03D3 BA FF 01           1379 	cjne	r2,#0xFF,00107$
   03D6 1C                 1380 	dec	r4
   03D7                    1381 00107$:
   03D7 C0 02              1382 	push	ar2
   03D9 C0 04              1383 	push	ar4
   03DB 75 82 15           1384 	mov	dpl,#0x15
   03DE 12s00r00           1385 	lcall	_packetbuf_set_attr
   03E1 15 81              1386 	dec	sp
   03E3 15 81              1387 	dec	sp
                           1388 ;	../../core/net/rime/collect.c:453: packetbuf_set_addr(PACKETBUF_ADDR_ESENDER, &rimeaddr_node_addr);
   03E5 74r00              1389 	mov	a,#_rimeaddr_node_addr
   03E7 C0 E0              1390 	push	acc
   03E9 74s00              1391 	mov	a,#(_rimeaddr_node_addr >> 8)
   03EB C0 E0              1392 	push	acc
   03ED E4                 1393 	clr	a
   03EE C0 E0              1394 	push	acc
   03F0 75 82 1A           1395 	mov	dpl,#0x1A
   03F3 12s00r00           1396 	lcall	_packetbuf_set_addr
   03F6 15 81              1397 	dec	sp
   03F8 15 81              1398 	dec	sp
   03FA 15 81              1399 	dec	sp
                           1400 ;	../../core/net/rime/collect.c:454: packetbuf_set_attr(PACKETBUF_ATTR_HOPS, 1);
   03FC 74 01              1401 	mov	a,#0x01
   03FE C0 E0              1402 	push	acc
   0400 E4                 1403 	clr	a
   0401 C0 E0              1404 	push	acc
   0403 75 82 13           1405 	mov	dpl,#0x13
   0406 12s00r00           1406 	lcall	_packetbuf_set_attr
   0409 15 81              1407 	dec	sp
   040B 15 81              1408 	dec	sp
                           1409 ;	../../core/net/rime/collect.c:455: packetbuf_set_attr(PACKETBUF_ATTR_TTL, 1);
   040D 74 01              1410 	mov	a,#0x01
   040F C0 E0              1411 	push	acc
   0411 E4                 1412 	clr	a
   0412 C0 E0              1413 	push	acc
   0414 75 82 14           1414 	mov	dpl,#0x14
   0417 12s00r00           1415 	lcall	_packetbuf_set_attr
   041A 15 81              1416 	dec	sp
   041C 15 81              1417 	dec	sp
                           1418 ;	../../core/net/rime/collect.c:456: packetbuf_set_attr(PACKETBUF_ATTR_MAX_REXMIT, rexmits);
   041E E5*00              1419 	mov	a,_bp
   0420 24 FC              1420 	add	a,#0xfc
   0422 F8                 1421 	mov	r0,a
   0423 86 03              1422 	mov	ar3,@r0
   0425 08                 1423 	inc	r0
   0426 86 04              1424 	mov	ar4,@r0
   0428 C0 03              1425 	push	ar3
   042A C0 04              1426 	push	ar4
   042C 75 82 10           1427 	mov	dpl,#0x10
   042F 12s00r00           1428 	lcall	_packetbuf_set_attr
   0432 15 81              1429 	dec	sp
   0434 15 81              1430 	dec	sp
                           1431 ;	../../core/net/rime/collect.c:464: packetbuf_hdralloc(sizeof(struct data_msg_hdr));
   0436 90 00 04           1432 	mov	dptr,#0x0004
   0439 12s00r00           1433 	lcall	_packetbuf_hdralloc
                           1434 ;	../../core/net/rime/collect.c:466: n = collect_neighbor_list_find(&c->neighbor_list, &c->parent);
   043C A8*00              1435 	mov	r0,_bp
   043E 08                 1436 	inc	r0
   043F 74 9C              1437 	mov	a,#0x9C
   0441 26                 1438 	add	a,@r0
   0442 FA                 1439 	mov	r2,a
   0443 E4                 1440 	clr	a
   0444 08                 1441 	inc	r0
   0445 36                 1442 	addc	a,@r0
   0446 FB                 1443 	mov	r3,a
   0447 08                 1444 	inc	r0
   0448 86 04              1445 	mov	ar4,@r0
   044A A8*00              1446 	mov	r0,_bp
   044C 08                 1447 	inc	r0
   044D 74 55              1448 	mov	a,#0x55
   044F 26                 1449 	add	a,@r0
   0450 FD                 1450 	mov	r5,a
   0451 E4                 1451 	clr	a
   0452 08                 1452 	inc	r0
   0453 36                 1453 	addc	a,@r0
   0454 FE                 1454 	mov	r6,a
   0455 08                 1455 	inc	r0
   0456 86 07              1456 	mov	ar7,@r0
   0458 C0 02              1457 	push	ar2
   045A C0 03              1458 	push	ar3
   045C C0 04              1459 	push	ar4
   045E 8D 82              1460 	mov	dpl,r5
   0460 8E 83              1461 	mov	dph,r6
   0462 8F F0              1462 	mov	b,r7
   0464 12s00r00           1463 	lcall	_collect_neighbor_list_find
   0467 AD 82              1464 	mov	r5,dpl
   0469 AE 83              1465 	mov	r6,dph
   046B AF F0              1466 	mov	r7,b
   046D 15 81              1467 	dec	sp
   046F 15 81              1468 	dec	sp
   0471 15 81              1469 	dec	sp
                           1470 ;	../../core/net/rime/collect.c:467: if(n != NULL) {
   0473 ED                 1471 	mov	a,r5
   0474 4E                 1472 	orl	a,r6
   0475 60 5B              1473 	jz	00102$
                           1474 ;	../../core/net/rime/collect.c:470: c);
   0477 A8*00              1475 	mov	r0,_bp
   0479 08                 1476 	inc	r0
   047A 86 05              1477 	mov	ar5,@r0
   047C 08                 1478 	inc	r0
   047D 86 06              1479 	mov	ar6,@r0
   047F 08                 1480 	inc	r0
   0480 86 07              1481 	mov	ar7,@r0
                           1482 ;	../../core/net/rime/collect.c:469: FORWARD_PACKET_LIFETIME_BASE * rexmits,
   0482 E5*00              1483 	mov	a,_bp
   0484 24 FC              1484 	add	a,#0xfc
   0486 F8                 1485 	mov	r0,a
   0487 E6                 1486 	mov	a,@r0
   0488 25 E0              1487 	add	a,acc
   048A 25 E0              1488 	add	a,acc
   048C FC                 1489 	mov	r4,a
   048D 7B 00              1490 	mov	r3,#0x00
   048F E5*00              1491 	mov	a,_bp
   0491 24 04              1492 	add	a,#0x04
   0493 F8                 1493 	mov	r0,a
   0494 A6 03              1494 	mov	@r0,ar3
   0496 08                 1495 	inc	r0
   0497 A6 04              1496 	mov	@r0,ar4
                           1497 ;	../../core/net/rime/collect.c:468: return packetqueue_enqueue_packetbuf(&c->send_queue,
   0499 A8*00              1498 	mov	r0,_bp
   049B 08                 1499 	inc	r0
   049C 74 4F              1500 	mov	a,#0x4F
   049E 26                 1501 	add	a,@r0
   049F FA                 1502 	mov	r2,a
   04A0 E4                 1503 	clr	a
   04A1 08                 1504 	inc	r0
   04A2 36                 1505 	addc	a,@r0
   04A3 FB                 1506 	mov	r3,a
   04A4 08                 1507 	inc	r0
   04A5 86 04              1508 	mov	ar4,@r0
   04A7 C0 05              1509 	push	ar5
   04A9 C0 06              1510 	push	ar6
   04AB C0 07              1511 	push	ar7
   04AD E5*00              1512 	mov	a,_bp
   04AF 24 04              1513 	add	a,#0x04
   04B1 F8                 1514 	mov	r0,a
   04B2 E6                 1515 	mov	a,@r0
   04B3 C0 E0              1516 	push	acc
   04B5 08                 1517 	inc	r0
   04B6 E6                 1518 	mov	a,@r0
   04B7 C0 E0              1519 	push	acc
   04B9 8A 82              1520 	mov	dpl,r2
   04BB 8B 83              1521 	mov	dph,r3
   04BD 8C F0              1522 	mov	b,r4
   04BF 12s00r00           1523 	lcall	_packetqueue_enqueue_packetbuf
   04C2 AE 82              1524 	mov	r6,dpl
   04C4 AF 83              1525 	mov	r7,dph
   04C6 E5 81              1526 	mov	a,sp
   04C8 24 FB              1527 	add	a,#0xfb
   04CA F5 81              1528 	mov	sp,a
   04CC 8E 82              1529 	mov	dpl,r6
   04CE 8F 83              1530 	mov	dph,r7
   04D0 80 03              1531 	sjmp	00103$
   04D2                    1532 00102$:
                           1533 ;	../../core/net/rime/collect.c:472: return 0;
   04D2 90 00 00           1534 	mov	dptr,#0x0000
   04D5                    1535 00103$:
   04D5 85*00 81           1536 	mov	sp,_bp
   04D8 D0*00              1537 	pop	_bp
   04DA 22                 1538 	ret
                           1539 ;------------------------------------------------------------
                           1540 ;Allocation info for local variables in function 'send_packet'
                           1541 ;------------------------------------------------------------
                           1542 ;n                         Allocated to stack - _bp -5
                           1543 ;c                         Allocated to stack - _bp +1
                           1544 ;time                      Allocated to registers 
                           1545 ;------------------------------------------------------------
                           1546 ;	../../core/net/rime/collect.c:476: send_packet(struct collect_conn *c, struct collect_neighbor *n)
                           1547 ;	-----------------------------------------
                           1548 ;	 function send_packet
                           1549 ;	-----------------------------------------
   04DB                    1550 _send_packet:
   04DB C0*00              1551 	push	_bp
   04DD 85 81*00           1552 	mov	_bp,sp
   04E0 C0 82              1553 	push	dpl
   04E2 C0 83              1554 	push	dph
   04E4 C0 F0              1555 	push	b
                           1556 ;	../../core/net/rime/collect.c:489: retransmit_not_sent_callback, c);
   04E6 A8*00              1557 	mov	r0,_bp
   04E8 08                 1558 	inc	r0
   04E9 86 02              1559 	mov	ar2,@r0
   04EB 08                 1560 	inc	r0
   04EC 86 03              1561 	mov	ar3,@r0
   04EE 08                 1562 	inc	r0
   04EF 86 04              1563 	mov	ar4,@r0
                           1564 ;	../../core/net/rime/collect.c:488: ctimer_set(&c->retransmission_timer, time,
   04F1 A8*00              1565 	mov	r0,_bp
   04F3 08                 1566 	inc	r0
   04F4 74 34              1567 	mov	a,#0x34
   04F6 26                 1568 	add	a,@r0
   04F7 FD                 1569 	mov	r5,a
   04F8 E4                 1570 	clr	a
   04F9 08                 1571 	inc	r0
   04FA 36                 1572 	addc	a,@r0
   04FB FE                 1573 	mov	r6,a
   04FC 08                 1574 	inc	r0
   04FD 86 07              1575 	mov	ar7,@r0
   04FF C0 02              1576 	push	ar2
   0501 C0 03              1577 	push	ar3
   0503 C0 04              1578 	push	ar4
   0505 74rEA              1579 	mov	a,#_retransmit_not_sent_callback
   0507 C0 E0              1580 	push	acc
   0509 74s1D              1581 	mov	a,#(_retransmit_not_sent_callback >> 8)
   050B C0 E0              1582 	push	acc
   050D E4                 1583 	clr	a
   050E C0 E0              1584 	push	acc
   0510 74 20              1585 	mov	a,#0x20
   0512 C0 E0              1586 	push	acc
   0514 8D 82              1587 	mov	dpl,r5
   0516 8E 83              1588 	mov	dph,r6
   0518 8F F0              1589 	mov	b,r7
   051A 12s00r00           1590 	lcall	_ctimer_set
   051D E5 81              1591 	mov	a,sp
   051F 24 F9              1592 	add	a,#0xf9
   0521 F5 81              1593 	mov	sp,a
                           1594 ;	../../core/net/rime/collect.c:490: c->send_time = clock_time();
   0523 A8*00              1595 	mov	r0,_bp
   0525 08                 1596 	inc	r0
   0526 74 A8              1597 	mov	a,#0xA8
   0528 26                 1598 	add	a,@r0
   0529 FD                 1599 	mov	r5,a
   052A E4                 1600 	clr	a
   052B 08                 1601 	inc	r0
   052C 36                 1602 	addc	a,@r0
   052D FE                 1603 	mov	r6,a
   052E 08                 1604 	inc	r0
   052F 86 07              1605 	mov	ar7,@r0
   0531 C0 07              1606 	push	ar7
   0533 C0 06              1607 	push	ar6
   0535 C0 05              1608 	push	ar5
   0537 12s00r00           1609 	lcall	_clock_time
   053A AB 82              1610 	mov	r3,dpl
   053C AC 83              1611 	mov	r4,dph
   053E D0 05              1612 	pop	ar5
   0540 D0 06              1613 	pop	ar6
   0542 D0 07              1614 	pop	ar7
   0544 8D 82              1615 	mov	dpl,r5
   0546 8E 83              1616 	mov	dph,r6
   0548 8F F0              1617 	mov	b,r7
   054A EB                 1618 	mov	a,r3
   054B 12s00r00           1619 	lcall	__gptrput
   054E A3                 1620 	inc	dptr
   054F EC                 1621 	mov	a,r4
   0550 12s00r00           1622 	lcall	__gptrput
                           1623 ;	../../core/net/rime/collect.c:492: unicast_send(&c->unicast_conn, &n->addr);
   0553 E5*00              1624 	mov	a,_bp
   0555 24 FB              1625 	add	a,#0xfb
   0557 F8                 1626 	mov	r0,a
   0558 86 05              1627 	mov	ar5,@r0
   055A 08                 1628 	inc	r0
   055B 86 06              1629 	mov	ar6,@r0
   055D 08                 1630 	inc	r0
   055E 86 07              1631 	mov	ar7,@r0
   0560 74 03              1632 	mov	a,#0x03
   0562 2D                 1633 	add	a,r5
   0563 FD                 1634 	mov	r5,a
   0564 E4                 1635 	clr	a
   0565 3E                 1636 	addc	a,r6
   0566 FE                 1637 	mov	r6,a
   0567 C0 05              1638 	push	ar5
   0569 C0 06              1639 	push	ar6
   056B C0 07              1640 	push	ar7
   056D A8*00              1641 	mov	r0,_bp
   056F 08                 1642 	inc	r0
   0570 86 82              1643 	mov	dpl,@r0
   0572 08                 1644 	inc	r0
   0573 86 83              1645 	mov	dph,@r0
   0575 08                 1646 	inc	r0
   0576 86 F0              1647 	mov	b,@r0
   0578 12s00r00           1648 	lcall	_unicast_send
   057B 15 81              1649 	dec	sp
   057D 15 81              1650 	dec	sp
   057F 15 81              1651 	dec	sp
   0581 85*00 81           1652 	mov	sp,_bp
   0584 D0*00              1653 	pop	_bp
   0586 22                 1654 	ret
                           1655 ;------------------------------------------------------------
                           1656 ;Allocation info for local variables in function 'proactive_probing_callback'
                           1657 ;------------------------------------------------------------
                           1658 ;ptr                       Allocated to stack - _bp +1
                           1659 ;c                         Allocated to stack - _bp +4
                           1660 ;i                         Allocated to registers r2 r3 r4 
                           1661 ;n                         Allocated to stack - _bp +7
                           1662 ;current_parent            Allocated to stack - _bp +10
                           1663 ;sloc0                     Allocated to stack - _bp +12
                           1664 ;sloc1                     Allocated to stack - _bp +17
                           1665 ;------------------------------------------------------------
                           1666 ;	../../core/net/rime/collect.c:496: proactive_probing_callback(void *ptr)
                           1667 ;	-----------------------------------------
                           1668 ;	 function proactive_probing_callback
                           1669 ;	-----------------------------------------
   0587                    1670 _proactive_probing_callback:
   0587 C0*00              1671 	push	_bp
   0589 85 81*00           1672 	mov	_bp,sp
   058C C0 82              1673 	push	dpl
   058E C0 83              1674 	push	dph
   0590 C0 F0              1675 	push	b
   0592 E5 81              1676 	mov	a,sp
   0594 24 0A              1677 	add	a,#0x0A
   0596 F5 81              1678 	mov	sp,a
                           1679 ;	../../core/net/rime/collect.c:498: struct collect_conn *c = ptr;
   0598 A8*00              1680 	mov	r0,_bp
   059A 08                 1681 	inc	r0
   059B E5*00              1682 	mov	a,_bp
   059D 24 04              1683 	add	a,#0x04
   059F F9                 1684 	mov	r1,a
   05A0 E6                 1685 	mov	a,@r0
   05A1 F7                 1686 	mov	@r1,a
   05A2 08                 1687 	inc	r0
   05A3 09                 1688 	inc	r1
   05A4 E6                 1689 	mov	a,@r0
   05A5 F7                 1690 	mov	@r1,a
   05A6 08                 1691 	inc	r0
   05A7 09                 1692 	inc	r1
   05A8 E6                 1693 	mov	a,@r0
   05A9 F7                 1694 	mov	@r1,a
                           1695 ;	../../core/net/rime/collect.c:501: ctimer_set(&c->proactive_probing_timer, PROACTIVE_PROBING_INTERVAL,
   05AA 12s00r00           1696 	lcall	_random_rand
   05AD E5 82              1697 	mov	a,dpl
   05AF 85 83 F0           1698 	mov	b,dph
   05B2 54 7F              1699 	anl	a,#0x7F
   05B4 FE                 1700 	mov	r6,a
   05B5 7F 00              1701 	mov	r7,#0x00
   05B7 C0 06              1702 	push	ar6
   05B9 C0 07              1703 	push	ar7
   05BB 90 00 3C           1704 	mov	dptr,#0x003C
   05BE 12s00r00           1705 	lcall	__mulint
   05C1 AE 82              1706 	mov	r6,dpl
   05C3 AF 83              1707 	mov	r7,dph
   05C5 15 81              1708 	dec	sp
   05C7 15 81              1709 	dec	sp
   05C9 E5*00              1710 	mov	a,_bp
   05CB 24 04              1711 	add	a,#0x04
   05CD F8                 1712 	mov	r0,a
   05CE 74 87              1713 	mov	a,#0x87
   05D0 26                 1714 	add	a,@r0
   05D1 FB                 1715 	mov	r3,a
   05D2 E4                 1716 	clr	a
   05D3 08                 1717 	inc	r0
   05D4 36                 1718 	addc	a,@r0
   05D5 FC                 1719 	mov	r4,a
   05D6 08                 1720 	inc	r0
   05D7 86 05              1721 	mov	ar5,@r0
   05D9 A8*00              1722 	mov	r0,_bp
   05DB 08                 1723 	inc	r0
   05DC E6                 1724 	mov	a,@r0
   05DD C0 E0              1725 	push	acc
   05DF 08                 1726 	inc	r0
   05E0 E6                 1727 	mov	a,@r0
   05E1 C0 E0              1728 	push	acc
   05E3 08                 1729 	inc	r0
   05E4 E6                 1730 	mov	a,@r0
   05E5 C0 E0              1731 	push	acc
   05E7 74r87              1732 	mov	a,#_proactive_probing_callback
   05E9 C0 E0              1733 	push	acc
   05EB 74s05              1734 	mov	a,#(_proactive_probing_callback >> 8)
   05ED C0 E0              1735 	push	acc
   05EF C0 06              1736 	push	ar6
   05F1 C0 07              1737 	push	ar7
   05F3 8B 82              1738 	mov	dpl,r3
   05F5 8C 83              1739 	mov	dph,r4
   05F7 8D F0              1740 	mov	b,r5
   05F9 12s00r00           1741 	lcall	_ctimer_set
   05FC E5 81              1742 	mov	a,sp
   05FE 24 F9              1743 	add	a,#0xf9
   0600 F5 81              1744 	mov	sp,a
                           1745 ;	../../core/net/rime/collect.c:506: if(c->rtmetric != RTMETRIC_SINK && c->rtmetric != RTMETRIC_MAX) {
   0602 E5*00              1746 	mov	a,_bp
   0604 24 04              1747 	add	a,#0x04
   0606 F8                 1748 	mov	r0,a
   0607 74 A0              1749 	mov	a,#0xA0
   0609 26                 1750 	add	a,@r0
   060A FD                 1751 	mov	r5,a
   060B E4                 1752 	clr	a
   060C 08                 1753 	inc	r0
   060D 36                 1754 	addc	a,@r0
   060E FE                 1755 	mov	r6,a
   060F 08                 1756 	inc	r0
   0610 86 07              1757 	mov	ar7,@r0
   0612 8D 82              1758 	mov	dpl,r5
   0614 8E 83              1759 	mov	dph,r6
   0616 8F F0              1760 	mov	b,r7
   0618 12s00r00           1761 	lcall	__gptrget
   061B FB                 1762 	mov	r3,a
   061C A3                 1763 	inc	dptr
   061D 12s00r00           1764 	lcall	__gptrget
   0620 FC                 1765 	mov	r4,a
   0621 4B                 1766 	orl	a,r3
   0622 70 03              1767 	jnz	00133$
   0624 02s08r3B           1768 	ljmp	00115$
   0627                    1769 00133$:
   0627 BB FF 06           1770 	cjne	r3,#0xFF,00134$
   062A BC 01 03           1771 	cjne	r4,#0x01,00134$
   062D 02s08r3B           1772 	ljmp	00115$
   0630                    1773 00134$:
                           1774 ;	../../core/net/rime/collect.c:509: i = packetqueue_first(&c->send_queue);
   0630 E5*00              1775 	mov	a,_bp
   0632 24 04              1776 	add	a,#0x04
   0634 F8                 1777 	mov	r0,a
   0635 74 4F              1778 	mov	a,#0x4F
   0637 26                 1779 	add	a,@r0
   0638 FA                 1780 	mov	r2,a
   0639 E4                 1781 	clr	a
   063A 08                 1782 	inc	r0
   063B 36                 1783 	addc	a,@r0
   063C FB                 1784 	mov	r3,a
   063D 08                 1785 	inc	r0
   063E 86 04              1786 	mov	ar4,@r0
   0640 8A 82              1787 	mov	dpl,r2
   0642 8B 83              1788 	mov	dph,r3
   0644 8C F0              1789 	mov	b,r4
   0646 C0 07              1790 	push	ar7
   0648 C0 06              1791 	push	ar6
   064A C0 05              1792 	push	ar5
   064C 12s00r00           1793 	lcall	_packetqueue_first
   064F AA 82              1794 	mov	r2,dpl
   0651 AB 83              1795 	mov	r3,dph
   0653 AC F0              1796 	mov	r4,b
   0655 D0 05              1797 	pop	ar5
   0657 D0 06              1798 	pop	ar6
   0659 D0 07              1799 	pop	ar7
                           1800 ;	../../core/net/rime/collect.c:510: if(i == NULL) {
   065B EA                 1801 	mov	a,r2
   065C 4B                 1802 	orl	a,r3
   065D 60 03              1803 	jz	00135$
   065F 02s08r3B           1804 	ljmp	00107$
   0662                    1805 00135$:
                           1806 ;	../../core/net/rime/collect.c:519: for(n = list_head(collect_neighbor_list(&c->neighbor_list));
   0662 E5*00              1807 	mov	a,_bp
   0664 24 04              1808 	add	a,#0x04
   0666 F8                 1809 	mov	r0,a
   0667 74 55              1810 	mov	a,#0x55
   0669 26                 1811 	add	a,@r0
   066A FA                 1812 	mov	r2,a
   066B E4                 1813 	clr	a
   066C 08                 1814 	inc	r0
   066D 36                 1815 	addc	a,@r0
   066E FB                 1816 	mov	r3,a
   066F 08                 1817 	inc	r0
   0670 86 04              1818 	mov	ar4,@r0
   0672 8A 82              1819 	mov	dpl,r2
   0674 8B 83              1820 	mov	dph,r3
   0676 8C F0              1821 	mov	b,r4
   0678 C0 07              1822 	push	ar7
   067A C0 06              1823 	push	ar6
   067C C0 05              1824 	push	ar5
   067E 12s00r00           1825 	lcall	_collect_neighbor_list
   0681 12s00r00           1826 	lcall	_list_head
   0684 AA 82              1827 	mov	r2,dpl
   0686 AB 83              1828 	mov	r3,dph
   0688 AC F0              1829 	mov	r4,b
   068A D0 05              1830 	pop	ar5
   068C D0 06              1831 	pop	ar6
   068E D0 07              1832 	pop	ar7
   0690 E5*00              1833 	mov	a,_bp
   0692 24 07              1834 	add	a,#0x07
   0694 F8                 1835 	mov	r0,a
   0695 A6 02              1836 	mov	@r0,ar2
   0697 08                 1837 	inc	r0
   0698 A6 03              1838 	mov	@r0,ar3
   069A 08                 1839 	inc	r0
   069B A6 04              1840 	mov	@r0,ar4
   069D                    1841 00111$:
                           1842 ;	../../core/net/rime/collect.c:520: n != NULL; n = list_item_next(n)) {
   069D E5*00              1843 	mov	a,_bp
   069F 24 07              1844 	add	a,#0x07
   06A1 F8                 1845 	mov	r0,a
   06A2 E4                 1846 	clr	a
   06A3 C0 E0              1847 	push	acc
   06A5 E4                 1848 	clr	a
   06A6 C0 E0              1849 	push	acc
   06A8 E4                 1850 	clr	a
   06A9 C0 E0              1851 	push	acc
   06AB 86 82              1852 	mov	dpl,@r0
   06AD 08                 1853 	inc	r0
   06AE 86 83              1854 	mov	dph,@r0
   06B0 08                 1855 	inc	r0
   06B1 86 F0              1856 	mov	b,@r0
   06B3 12s00r00           1857 	lcall	___gptr_cmp
   06B6 15 81              1858 	dec	sp
   06B8 15 81              1859 	dec	sp
   06BA 15 81              1860 	dec	sp
   06BC 70 03              1861 	jnz	00136$
   06BE 02s08r3B           1862 	ljmp	00107$
   06C1                    1863 00136$:
                           1864 ;	../../core/net/rime/collect.c:521: if(n->rtmetric + COLLECT_LINK_ESTIMATE_UNIT < c->rtmetric &&
   06C1 E5*00              1865 	mov	a,_bp
   06C3 24 07              1866 	add	a,#0x07
   06C5 F8                 1867 	mov	r0,a
   06C6 74 05              1868 	mov	a,#0x05
   06C8 26                 1869 	add	a,@r0
   06C9 FA                 1870 	mov	r2,a
   06CA E4                 1871 	clr	a
   06CB 08                 1872 	inc	r0
   06CC 36                 1873 	addc	a,@r0
   06CD FB                 1874 	mov	r3,a
   06CE 08                 1875 	inc	r0
   06CF 86 04              1876 	mov	ar4,@r0
   06D1 8A 82              1877 	mov	dpl,r2
   06D3 8B 83              1878 	mov	dph,r3
   06D5 8C F0              1879 	mov	b,r4
   06D7 12s00r00           1880 	lcall	__gptrget
   06DA FA                 1881 	mov	r2,a
   06DB A3                 1882 	inc	dptr
   06DC 12s00r00           1883 	lcall	__gptrget
   06DF FB                 1884 	mov	r3,a
   06E0 E5*00              1885 	mov	a,_bp
   06E2 24 0C              1886 	add	a,#0x0c
   06E4 F8                 1887 	mov	r0,a
   06E5 74 08              1888 	mov	a,#0x08
   06E7 2A                 1889 	add	a,r2
   06E8 F6                 1890 	mov	@r0,a
   06E9 E4                 1891 	clr	a
   06EA 3B                 1892 	addc	a,r3
   06EB 08                 1893 	inc	r0
   06EC F6                 1894 	mov	@r0,a
   06ED 8D 82              1895 	mov	dpl,r5
   06EF 8E 83              1896 	mov	dph,r6
   06F1 8F F0              1897 	mov	b,r7
   06F3 12s00r00           1898 	lcall	__gptrget
   06F6 FB                 1899 	mov	r3,a
   06F7 A3                 1900 	inc	dptr
   06F8 12s00r00           1901 	lcall	__gptrget
   06FB FC                 1902 	mov	r4,a
   06FC E5*00              1903 	mov	a,_bp
   06FE 24 0C              1904 	add	a,#0x0c
   0700 F8                 1905 	mov	r0,a
   0701 C3                 1906 	clr	c
   0702 E6                 1907 	mov	a,@r0
   0703 9B                 1908 	subb	a,r3
   0704 08                 1909 	inc	r0
   0705 E6                 1910 	mov	a,@r0
   0706 9C                 1911 	subb	a,r4
   0707 40 03              1912 	jc	00137$
   0709 02s08r03           1913 	ljmp	00113$
   070C                    1914 00137$:
                           1915 ;	../../core/net/rime/collect.c:522: collect_link_estimate_num_estimates(&n->le) == 0) {
   070C E5*00              1916 	mov	a,_bp
   070E 24 07              1917 	add	a,#0x07
   0710 F8                 1918 	mov	r0,a
   0711 74 0B              1919 	mov	a,#0x0B
   0713 26                 1920 	add	a,@r0
   0714 FA                 1921 	mov	r2,a
   0715 E4                 1922 	clr	a
   0716 08                 1923 	inc	r0
   0717 36                 1924 	addc	a,@r0
   0718 FB                 1925 	mov	r3,a
   0719 08                 1926 	inc	r0
   071A 86 04              1927 	mov	ar4,@r0
   071C 8A 82              1928 	mov	dpl,r2
   071E 8B 83              1929 	mov	dph,r3
   0720 8C F0              1930 	mov	b,r4
   0722 C0 07              1931 	push	ar7
   0724 C0 06              1932 	push	ar6
   0726 C0 05              1933 	push	ar5
   0728 12s00r00           1934 	lcall	_collect_link_estimate_num_estimates
   072B E5 82              1935 	mov	a,dpl
   072D 85 83 F0           1936 	mov	b,dph
   0730 D0 05              1937 	pop	ar5
   0732 D0 06              1938 	pop	ar6
   0734 D0 07              1939 	pop	ar7
   0736 45 F0              1940 	orl	a,b
   0738 60 03              1941 	jz	00138$
   073A 02s08r03           1942 	ljmp	00113$
   073D                    1943 00138$:
                           1944 ;	../../core/net/rime/collect.c:528: rimeaddr_copy(&current_parent, &c->parent);
   073D E5*00              1945 	mov	a,_bp
   073F 24 04              1946 	add	a,#0x04
   0741 F8                 1947 	mov	r0,a
   0742 74 9C              1948 	mov	a,#0x9C
   0744 26                 1949 	add	a,@r0
   0745 FF                 1950 	mov	r7,a
   0746 E4                 1951 	clr	a
   0747 08                 1952 	inc	r0
   0748 36                 1953 	addc	a,@r0
   0749 FE                 1954 	mov	r6,a
   074A 08                 1955 	inc	r0
   074B 86 05              1956 	mov	ar5,@r0
   074D E5*00              1957 	mov	a,_bp
   074F 24 0A              1958 	add	a,#0x0A
   0751 FC                 1959 	mov	r4,a
   0752 7B 00              1960 	mov	r3,#0x00
   0754 7A 40              1961 	mov	r2,#0x40
   0756 C0 07              1962 	push	ar7
   0758 C0 06              1963 	push	ar6
   075A C0 05              1964 	push	ar5
   075C 8C 82              1965 	mov	dpl,r4
   075E 8B 83              1966 	mov	dph,r3
   0760 8A F0              1967 	mov	b,r2
   0762 12s00r00           1968 	lcall	_rimeaddr_copy
   0765 15 81              1969 	dec	sp
   0767 15 81              1970 	dec	sp
   0769 15 81              1971 	dec	sp
                           1972 ;	../../core/net/rime/collect.c:529: rimeaddr_copy(&c->parent, &n->addr);
   076B E5*00              1973 	mov	a,_bp
   076D 24 07              1974 	add	a,#0x07
   076F F8                 1975 	mov	r0,a
   0770 74 03              1976 	mov	a,#0x03
   0772 26                 1977 	add	a,@r0
   0773 FF                 1978 	mov	r7,a
   0774 E4                 1979 	clr	a
   0775 08                 1980 	inc	r0
   0776 36                 1981 	addc	a,@r0
   0777 FE                 1982 	mov	r6,a
   0778 08                 1983 	inc	r0
   0779 86 05              1984 	mov	ar5,@r0
   077B E5*00              1985 	mov	a,_bp
   077D 24 04              1986 	add	a,#0x04
   077F F8                 1987 	mov	r0,a
   0780 74 9C              1988 	mov	a,#0x9C
   0782 26                 1989 	add	a,@r0
   0783 FA                 1990 	mov	r2,a
   0784 E4                 1991 	clr	a
   0785 08                 1992 	inc	r0
   0786 36                 1993 	addc	a,@r0
   0787 FB                 1994 	mov	r3,a
   0788 08                 1995 	inc	r0
   0789 86 04              1996 	mov	ar4,@r0
   078B C0 07              1997 	push	ar7
   078D C0 06              1998 	push	ar6
   078F C0 05              1999 	push	ar5
   0791 8A 82              2000 	mov	dpl,r2
   0793 8B 83              2001 	mov	dph,r3
   0795 8C F0              2002 	mov	b,r4
   0797 12s00r00           2003 	lcall	_rimeaddr_copy
   079A 15 81              2004 	dec	sp
   079C 15 81              2005 	dec	sp
   079E 15 81              2006 	dec	sp
                           2007 ;	../../core/net/rime/collect.c:530: if(enqueue_dummy_packet(c, PROACTIVE_PROBING_REXMITS)) {
   07A0 74 0F              2008 	mov	a,#0x0F
   07A2 C0 E0              2009 	push	acc
   07A4 E4                 2010 	clr	a
   07A5 C0 E0              2011 	push	acc
   07A7 E5*00              2012 	mov	a,_bp
   07A9 24 04              2013 	add	a,#0x04
   07AB F8                 2014 	mov	r0,a
   07AC 86 82              2015 	mov	dpl,@r0
   07AE 08                 2016 	inc	r0
   07AF 86 83              2017 	mov	dph,@r0
   07B1 08                 2018 	inc	r0
   07B2 86 F0              2019 	mov	b,@r0
   07B4 12s03rA6           2020 	lcall	_enqueue_dummy_packet
   07B7 AB 82              2021 	mov	r3,dpl
   07B9 AC 83              2022 	mov	r4,dph
   07BB 15 81              2023 	dec	sp
   07BD 15 81              2024 	dec	sp
   07BF EB                 2025 	mov	a,r3
   07C0 4C                 2026 	orl	a,r4
   07C1 60 10              2027 	jz	00102$
                           2028 ;	../../core/net/rime/collect.c:531: send_queued_packet(c);
   07C3 E5*00              2029 	mov	a,_bp
   07C5 24 04              2030 	add	a,#0x04
   07C7 F8                 2031 	mov	r0,a
   07C8 86 82              2032 	mov	dpl,@r0
   07CA 08                 2033 	inc	r0
   07CB 86 83              2034 	mov	dph,@r0
   07CD 08                 2035 	inc	r0
   07CE 86 F0              2036 	mov	b,@r0
   07D0 12s08r41           2037 	lcall	_send_queued_packet
   07D3                    2038 00102$:
                           2039 ;	../../core/net/rime/collect.c:533: rimeaddr_copy(&c->parent, &current_parent);
   07D3 E5*00              2040 	mov	a,_bp
   07D5 24 0A              2041 	add	a,#0x0A
   07D7 FF                 2042 	mov	r7,a
   07D8 7E 00              2043 	mov	r6,#0x00
   07DA 7D 40              2044 	mov	r5,#0x40
   07DC E5*00              2045 	mov	a,_bp
   07DE 24 04              2046 	add	a,#0x04
   07E0 F8                 2047 	mov	r0,a
   07E1 74 9C              2048 	mov	a,#0x9C
   07E3 26                 2049 	add	a,@r0
   07E4 FA                 2050 	mov	r2,a
   07E5 E4                 2051 	clr	a
   07E6 08                 2052 	inc	r0
   07E7 36                 2053 	addc	a,@r0
   07E8 FB                 2054 	mov	r3,a
   07E9 08                 2055 	inc	r0
   07EA 86 04              2056 	mov	ar4,@r0
   07EC C0 07              2057 	push	ar7
   07EE C0 06              2058 	push	ar6
   07F0 C0 05              2059 	push	ar5
   07F2 8A 82              2060 	mov	dpl,r2
   07F4 8B 83              2061 	mov	dph,r3
   07F6 8C F0              2062 	mov	b,r4
   07F8 12s00r00           2063 	lcall	_rimeaddr_copy
   07FB 15 81              2064 	dec	sp
   07FD 15 81              2065 	dec	sp
   07FF 15 81              2066 	dec	sp
                           2067 ;	../../core/net/rime/collect.c:534: return;
   0801 80 38              2068 	sjmp	00115$
   0803                    2069 00113$:
                           2070 ;	../../core/net/rime/collect.c:520: n != NULL; n = list_item_next(n)) {
   0803 E5*00              2071 	mov	a,_bp
   0805 24 07              2072 	add	a,#0x07
   0807 F8                 2073 	mov	r0,a
   0808 86 02              2074 	mov	ar2,@r0
   080A 08                 2075 	inc	r0
   080B 86 03              2076 	mov	ar3,@r0
   080D 08                 2077 	inc	r0
   080E 86 04              2078 	mov	ar4,@r0
   0810 8A 82              2079 	mov	dpl,r2
   0812 8B 83              2080 	mov	dph,r3
   0814 8C F0              2081 	mov	b,r4
   0816 C0 07              2082 	push	ar7
   0818 C0 06              2083 	push	ar6
   081A C0 05              2084 	push	ar5
   081C 12s00r00           2085 	lcall	_list_item_next
   081F AA 82              2086 	mov	r2,dpl
   0821 AB 83              2087 	mov	r3,dph
   0823 AC F0              2088 	mov	r4,b
   0825 D0 05              2089 	pop	ar5
   0827 D0 06              2090 	pop	ar6
   0829 D0 07              2091 	pop	ar7
   082B E5*00              2092 	mov	a,_bp
   082D 24 07              2093 	add	a,#0x07
   082F F8                 2094 	mov	r0,a
   0830 A6 02              2095 	mov	@r0,ar2
   0832 08                 2096 	inc	r0
   0833 A6 03              2097 	mov	@r0,ar3
   0835 08                 2098 	inc	r0
   0836 A6 04              2099 	mov	@r0,ar4
   0838 02s06r9D           2100 	ljmp	00111$
   083B                    2101 00107$:
                           2102 ;	../../core/net/rime/collect.c:540: return;
   083B                    2103 00115$:
   083B 85*00 81           2104 	mov	sp,_bp
   083E D0*00              2105 	pop	_bp
   0840 22                 2106 	ret
                           2107 ;------------------------------------------------------------
                           2108 ;Allocation info for local variables in function 'send_queued_packet'
                           2109 ;------------------------------------------------------------
                           2110 ;c                         Allocated to stack - _bp +1
                           2111 ;q                         Allocated to registers r5 r6 r7 
                           2112 ;n                         Allocated to stack - _bp +4
                           2113 ;i                         Allocated to registers r7 r6 r5 
                           2114 ;hdr                       Allocated to stack - _bp +7
                           2115 ;max_mac_rexmits           Allocated to registers r6 r7 
                           2116 ;------------------------------------------------------------
                           2117 ;	../../core/net/rime/collect.c:552: send_queued_packet(struct collect_conn *c)
                           2118 ;	-----------------------------------------
                           2119 ;	 function send_queued_packet
                           2120 ;	-----------------------------------------
   0841                    2121 _send_queued_packet:
   0841 C0*00              2122 	push	_bp
   0843 85 81*00           2123 	mov	_bp,sp
   0846 C0 82              2124 	push	dpl
   0848 C0 83              2125 	push	dph
   084A C0 F0              2126 	push	b
   084C E5 81              2127 	mov	a,sp
   084E 24 07              2128 	add	a,#0x07
   0850 F5 81              2129 	mov	sp,a
                           2130 ;	../../core/net/rime/collect.c:562: if(c->sending) {
   0852 A8*00              2131 	mov	r0,_bp
   0854 08                 2132 	inc	r0
   0855 74 A3              2133 	mov	a,#0xA3
   0857 26                 2134 	add	a,@r0
   0858 FA                 2135 	mov	r2,a
   0859 E4                 2136 	clr	a
   085A 08                 2137 	inc	r0
   085B 36                 2138 	addc	a,@r0
   085C FB                 2139 	mov	r3,a
   085D 08                 2140 	inc	r0
   085E 86 04              2141 	mov	ar4,@r0
   0860 8A 82              2142 	mov	dpl,r2
   0862 8B 83              2143 	mov	dph,r3
   0864 8C F0              2144 	mov	b,r4
   0866 12s00r00           2145 	lcall	__gptrget
   0869 60 03              2146 	jz	00102$
                           2147 ;	../../core/net/rime/collect.c:565: return;
   086B 02s0Br37           2148 	ljmp	00110$
   086E                    2149 00102$:
                           2150 ;	../../core/net/rime/collect.c:570: i = packetqueue_first(&c->send_queue);
   086E C0 02              2151 	push	ar2
   0870 C0 03              2152 	push	ar3
   0872 C0 04              2153 	push	ar4
   0874 A8*00              2154 	mov	r0,_bp
   0876 08                 2155 	inc	r0
   0877 74 4F              2156 	mov	a,#0x4F
   0879 26                 2157 	add	a,@r0
   087A FA                 2158 	mov	r2,a
   087B E4                 2159 	clr	a
   087C 08                 2160 	inc	r0
   087D 36                 2161 	addc	a,@r0
   087E FB                 2162 	mov	r3,a
   087F 08                 2163 	inc	r0
   0880 86 04              2164 	mov	ar4,@r0
   0882 8A 82              2165 	mov	dpl,r2
   0884 8B 83              2166 	mov	dph,r3
   0886 8C F0              2167 	mov	b,r4
   0888 12s00r00           2168 	lcall	_packetqueue_first
   088B AA 82              2169 	mov	r2,dpl
   088D AB 83              2170 	mov	r3,dph
   088F AC F0              2171 	mov	r4,b
   0891 8A 07              2172 	mov	ar7,r2
   0893 8B 06              2173 	mov	ar6,r3
   0895 8C 05              2174 	mov	ar5,r4
                           2175 ;	../../core/net/rime/collect.c:571: if(i == NULL) {
   0897 D0 04              2176 	pop	ar4
   0899 D0 03              2177 	pop	ar3
   089B D0 02              2178 	pop	ar2
   089D EF                 2179 	mov	a,r7
   089E 4E                 2180 	orl	a,r6
   089F 70 03              2181 	jnz	00104$
                           2182 ;	../../core/net/rime/collect.c:575: return;
   08A1 02s0Br37           2183 	ljmp	00110$
   08A4                    2184 00104$:
                           2185 ;	../../core/net/rime/collect.c:579: q = packetqueue_queuebuf(i);
   08A4 8F 82              2186 	mov	dpl,r7
   08A6 8E 83              2187 	mov	dph,r6
   08A8 8D F0              2188 	mov	b,r5
   08AA C0 04              2189 	push	ar4
   08AC C0 03              2190 	push	ar3
   08AE C0 02              2191 	push	ar2
   08B0 12s00r00           2192 	lcall	_packetqueue_queuebuf
   08B3 AD 82              2193 	mov	r5,dpl
   08B5 AE 83              2194 	mov	r6,dph
   08B7 AF F0              2195 	mov	r7,b
   08B9 D0 02              2196 	pop	ar2
   08BB D0 03              2197 	pop	ar3
   08BD D0 04              2198 	pop	ar4
                           2199 ;	../../core/net/rime/collect.c:580: if(q != NULL) {
   08BF ED                 2200 	mov	a,r5
   08C0 4E                 2201 	orl	a,r6
   08C1 70 03              2202 	jnz	00126$
   08C3 02s0Br37           2203 	ljmp	00110$
   08C6                    2204 00126$:
                           2205 ;	../../core/net/rime/collect.c:582: queuebuf_to_packetbuf(q);
   08C6 C0 02              2206 	push	ar2
   08C8 C0 03              2207 	push	ar3
   08CA C0 04              2208 	push	ar4
   08CC 8D 82              2209 	mov	dpl,r5
   08CE 8E 83              2210 	mov	dph,r6
   08D0 8F F0              2211 	mov	b,r7
   08D2 C0 04              2212 	push	ar4
   08D4 C0 03              2213 	push	ar3
   08D6 C0 02              2214 	push	ar2
   08D8 12s00r00           2215 	lcall	_queuebuf_to_packetbuf
   08DB D0 02              2216 	pop	ar2
   08DD D0 03              2217 	pop	ar3
   08DF D0 04              2218 	pop	ar4
                           2219 ;	../../core/net/rime/collect.c:586: n = collect_neighbor_list_find(&c->neighbor_list, &c->parent);
   08E1 A8*00              2220 	mov	r0,_bp
   08E3 08                 2221 	inc	r0
   08E4 74 9C              2222 	mov	a,#0x9C
   08E6 26                 2223 	add	a,@r0
   08E7 FD                 2224 	mov	r5,a
   08E8 E4                 2225 	clr	a
   08E9 08                 2226 	inc	r0
   08EA 36                 2227 	addc	a,@r0
   08EB FE                 2228 	mov	r6,a
   08EC 08                 2229 	inc	r0
   08ED 86 07              2230 	mov	ar7,@r0
   08EF A8*00              2231 	mov	r0,_bp
   08F1 08                 2232 	inc	r0
   08F2 74 55              2233 	mov	a,#0x55
   08F4 26                 2234 	add	a,@r0
   08F5 FA                 2235 	mov	r2,a
   08F6 E4                 2236 	clr	a
   08F7 08                 2237 	inc	r0
   08F8 36                 2238 	addc	a,@r0
   08F9 FB                 2239 	mov	r3,a
   08FA 08                 2240 	inc	r0
   08FB 86 04              2241 	mov	ar4,@r0
   08FD C0 04              2242 	push	ar4
   08FF C0 03              2243 	push	ar3
   0901 C0 02              2244 	push	ar2
   0903 C0 05              2245 	push	ar5
   0905 C0 06              2246 	push	ar6
   0907 C0 07              2247 	push	ar7
   0909 8A 82              2248 	mov	dpl,r2
   090B 8B 83              2249 	mov	dph,r3
   090D 8C F0              2250 	mov	b,r4
   090F 12s00r00           2251 	lcall	_collect_neighbor_list_find
   0912 AD 82              2252 	mov	r5,dpl
   0914 AE 83              2253 	mov	r6,dph
   0916 AF F0              2254 	mov	r7,b
   0918 15 81              2255 	dec	sp
   091A 15 81              2256 	dec	sp
   091C 15 81              2257 	dec	sp
   091E D0 02              2258 	pop	ar2
   0920 D0 03              2259 	pop	ar3
   0922 D0 04              2260 	pop	ar4
   0924 E5*00              2261 	mov	a,_bp
   0926 24 04              2262 	add	a,#0x04
   0928 F8                 2263 	mov	r0,a
   0929 A6 05              2264 	mov	@r0,ar5
   092B 08                 2265 	inc	r0
   092C A6 06              2266 	mov	@r0,ar6
   092E 08                 2267 	inc	r0
   092F A6 07              2268 	mov	@r0,ar7
                           2269 ;	../../core/net/rime/collect.c:588: if(n != NULL) {
   0931 D0 04              2270 	pop	ar4
   0933 D0 03              2271 	pop	ar3
   0935 D0 02              2272 	pop	ar2
   0937 E5*00              2273 	mov	a,_bp
   0939 24 04              2274 	add	a,#0x04
   093B F8                 2275 	mov	r0,a
   093C E6                 2276 	mov	a,@r0
   093D 08                 2277 	inc	r0
   093E 46                 2278 	orl	a,@r0
   093F 70 03              2279 	jnz	00127$
   0941 02s0ArFD           2280 	ljmp	00106$
   0944                    2281 00127$:
                           2282 ;	../../core/net/rime/collect.c:600: c->sending = 1;
   0944 8A 82              2283 	mov	dpl,r2
   0946 8B 83              2284 	mov	dph,r3
   0948 8C F0              2285 	mov	b,r4
   094A 74 01              2286 	mov	a,#0x01
   094C 12s00r00           2287 	lcall	__gptrput
                           2288 ;	../../core/net/rime/collect.c:603: rimeaddr_copy(&c->current_parent, &c->parent);
   094F A8*00              2289 	mov	r0,_bp
   0951 08                 2290 	inc	r0
   0952 74 9C              2291 	mov	a,#0x9C
   0954 26                 2292 	add	a,@r0
   0955 FD                 2293 	mov	r5,a
   0956 E4                 2294 	clr	a
   0957 08                 2295 	inc	r0
   0958 36                 2296 	addc	a,@r0
   0959 FE                 2297 	mov	r6,a
   095A 08                 2298 	inc	r0
   095B 86 07              2299 	mov	ar7,@r0
   095D A8*00              2300 	mov	r0,_bp
   095F 08                 2301 	inc	r0
   0960 74 9E              2302 	mov	a,#0x9E
   0962 26                 2303 	add	a,@r0
   0963 FA                 2304 	mov	r2,a
   0964 E4                 2305 	clr	a
   0965 08                 2306 	inc	r0
   0966 36                 2307 	addc	a,@r0
   0967 FB                 2308 	mov	r3,a
   0968 08                 2309 	inc	r0
   0969 86 04              2310 	mov	ar4,@r0
   096B C0 05              2311 	push	ar5
   096D C0 06              2312 	push	ar6
   096F C0 07              2313 	push	ar7
   0971 8A 82              2314 	mov	dpl,r2
   0973 8B 83              2315 	mov	dph,r3
   0975 8C F0              2316 	mov	b,r4
   0977 12s00r00           2317 	lcall	_rimeaddr_copy
   097A 15 81              2318 	dec	sp
   097C 15 81              2319 	dec	sp
   097E 15 81              2320 	dec	sp
                           2321 ;	../../core/net/rime/collect.c:607: c->transmissions = 0;
   0980 A8*00              2322 	mov	r0,_bp
   0982 08                 2323 	inc	r0
   0983 74 A4              2324 	mov	a,#0xA4
   0985 26                 2325 	add	a,@r0
   0986 FD                 2326 	mov	r5,a
   0987 E4                 2327 	clr	a
   0988 08                 2328 	inc	r0
   0989 36                 2329 	addc	a,@r0
   098A FE                 2330 	mov	r6,a
   098B 08                 2331 	inc	r0
   098C 86 07              2332 	mov	ar7,@r0
   098E 8D 82              2333 	mov	dpl,r5
   0990 8E 83              2334 	mov	dph,r6
   0992 8F F0              2335 	mov	b,r7
   0994 E4                 2336 	clr	a
   0995 12s00r00           2337 	lcall	__gptrput
                           2338 ;	../../core/net/rime/collect.c:612: c->max_rexmits = packetbuf_attr(PACKETBUF_ATTR_MAX_REXMIT);
   0998 A8*00              2339 	mov	r0,_bp
   099A 08                 2340 	inc	r0
   099B 74 A5              2341 	mov	a,#0xA5
   099D 26                 2342 	add	a,@r0
   099E FD                 2343 	mov	r5,a
   099F E4                 2344 	clr	a
   09A0 08                 2345 	inc	r0
   09A1 36                 2346 	addc	a,@r0
   09A2 FE                 2347 	mov	r6,a
   09A3 08                 2348 	inc	r0
   09A4 86 07              2349 	mov	ar7,@r0
   09A6 75 82 10           2350 	mov	dpl,#0x10
   09A9 C0 07              2351 	push	ar7
   09AB C0 06              2352 	push	ar6
   09AD C0 05              2353 	push	ar5
   09AF 12s00r00           2354 	lcall	_packetbuf_attr
   09B2 AB 82              2355 	mov	r3,dpl
   09B4 D0 05              2356 	pop	ar5
   09B6 D0 06              2357 	pop	ar6
   09B8 D0 07              2358 	pop	ar7
   09BA 8D 82              2359 	mov	dpl,r5
   09BC 8E 83              2360 	mov	dph,r6
   09BE 8F F0              2361 	mov	b,r7
   09C0 EB                 2362 	mov	a,r3
   09C1 12s00r00           2363 	lcall	__gptrput
                           2364 ;	../../core/net/rime/collect.c:618: packetbuf_set_attr(PACKETBUF_ATTR_RELIABLE, 1);
   09C4 C0 07              2365 	push	ar7
   09C6 C0 06              2366 	push	ar6
   09C8 C0 05              2367 	push	ar5
   09CA 74 01              2368 	mov	a,#0x01
   09CC C0 E0              2369 	push	acc
   09CE E4                 2370 	clr	a
   09CF C0 E0              2371 	push	acc
   09D1 75 82 0C           2372 	mov	dpl,#0x0C
   09D4 12s00r00           2373 	lcall	_packetbuf_set_attr
   09D7 15 81              2374 	dec	sp
   09D9 15 81              2375 	dec	sp
   09DB D0 05              2376 	pop	ar5
   09DD D0 06              2377 	pop	ar6
   09DF D0 07              2378 	pop	ar7
                           2379 ;	../../core/net/rime/collect.c:620: max_mac_rexmits = c->max_rexmits > MAX_MAC_REXMITS?
   09E1 8D 82              2380 	mov	dpl,r5
   09E3 8E 83              2381 	mov	dph,r6
   09E5 8F F0              2382 	mov	b,r7
   09E7 12s00r00           2383 	lcall	__gptrget
   09EA FF                 2384 	mov  r7,a
   09EB 24 FD              2385 	add	a,#0xff - 0x02
   09ED 50 04              2386 	jnc	00112$
                           2387 ;	../../core/net/rime/collect.c:621: MAX_MAC_REXMITS : c->max_rexmits;
   09EF 7E 02              2388 	mov	r6,#0x02
   09F1 80 02              2389 	sjmp	00113$
   09F3                    2390 00112$:
   09F3 8F 06              2391 	mov	ar6,r7
   09F5                    2392 00113$:
   09F5 7F 00              2393 	mov	r7,#0x00
                           2394 ;	../../core/net/rime/collect.c:622: packetbuf_set_attr(PACKETBUF_ATTR_MAX_MAC_TRANSMISSIONS, max_mac_rexmits);
   09F7 C0 06              2395 	push	ar6
   09F9 C0 07              2396 	push	ar7
   09FB 75 82 09           2397 	mov	dpl,#0x09
   09FE 12s00r00           2398 	lcall	_packetbuf_set_attr
   0A01 15 81              2399 	dec	sp
   0A03 15 81              2400 	dec	sp
                           2401 ;	../../core/net/rime/collect.c:623: packetbuf_set_attr(PACKETBUF_ATTR_PACKET_ID, c->seqno);
   0A05 A8*00              2402 	mov	r0,_bp
   0A07 08                 2403 	inc	r0
   0A08 74 A2              2404 	mov	a,#0xA2
   0A0A 26                 2405 	add	a,@r0
   0A0B FD                 2406 	mov	r5,a
   0A0C E4                 2407 	clr	a
   0A0D 08                 2408 	inc	r0
   0A0E 36                 2409 	addc	a,@r0
   0A0F FE                 2410 	mov	r6,a
   0A10 08                 2411 	inc	r0
   0A11 86 07              2412 	mov	ar7,@r0
   0A13 8D 82              2413 	mov	dpl,r5
   0A15 8E 83              2414 	mov	dph,r6
   0A17 8F F0              2415 	mov	b,r7
   0A19 12s00r00           2416 	lcall	__gptrget
   0A1C FD                 2417 	mov	r5,a
   0A1D 7F 00              2418 	mov	r7,#0x00
   0A1F C0 05              2419 	push	ar5
   0A21 C0 07              2420 	push	ar7
   0A23 75 82 0D           2421 	mov	dpl,#0x0D
   0A26 12s00r00           2422 	lcall	_packetbuf_set_attr
   0A29 15 81              2423 	dec	sp
   0A2B 15 81              2424 	dec	sp
                           2425 ;	../../core/net/rime/collect.c:625: stats.datasent++;
   0A2D 90s01r3D           2426 	mov	dptr,#(_stats + 0x0010)
   0A30 E0                 2427 	movx	a,@dptr
   0A31 FC                 2428 	mov	r4,a
   0A32 A3                 2429 	inc	dptr
   0A33 E0                 2430 	movx	a,@dptr
   0A34 FD                 2431 	mov	r5,a
   0A35 A3                 2432 	inc	dptr
   0A36 E0                 2433 	movx	a,@dptr
   0A37 FE                 2434 	mov	r6,a
   0A38 A3                 2435 	inc	dptr
   0A39 E0                 2436 	movx	a,@dptr
   0A3A FF                 2437 	mov	r7,a
   0A3B 0C                 2438 	inc	r4
   0A3C BC 00 09           2439 	cjne	r4,#0x00,00129$
   0A3F 0D                 2440 	inc	r5
   0A40 BD 00 05           2441 	cjne	r5,#0x00,00129$
   0A43 0E                 2442 	inc	r6
   0A44 BE 00 01           2443 	cjne	r6,#0x00,00129$
   0A47 0F                 2444 	inc	r7
   0A48                    2445 00129$:
   0A48 90s01r3D           2446 	mov	dptr,#(_stats + 0x0010)
   0A4B EC                 2447 	mov	a,r4
   0A4C F0                 2448 	movx	@dptr,a
   0A4D A3                 2449 	inc	dptr
   0A4E ED                 2450 	mov	a,r5
   0A4F F0                 2451 	movx	@dptr,a
   0A50 A3                 2452 	inc	dptr
   0A51 EE                 2453 	mov	a,r6
   0A52 F0                 2454 	movx	@dptr,a
   0A53 A3                 2455 	inc	dptr
   0A54 EF                 2456 	mov	a,r7
   0A55 F0                 2457 	movx	@dptr,a
                           2458 ;	../../core/net/rime/collect.c:629: memset(&hdr, 0, sizeof(hdr));
   0A56 E5*00              2459 	mov	a,_bp
   0A58 24 07              2460 	add	a,#0x07
   0A5A FF                 2461 	mov	r7,a
   0A5B 7E 00              2462 	mov	r6,#0x00
   0A5D 7D 40              2463 	mov	r5,#0x40
   0A5F 74 04              2464 	mov	a,#0x04
   0A61 C0 E0              2465 	push	acc
   0A63 E4                 2466 	clr	a
   0A64 C0 E0              2467 	push	acc
   0A66 E4                 2468 	clr	a
   0A67 C0 E0              2469 	push	acc
   0A69 8F 82              2470 	mov	dpl,r7
   0A6B 8E 83              2471 	mov	dph,r6
   0A6D 8D F0              2472 	mov	b,r5
   0A6F 12s00r00           2473 	lcall	_memset
   0A72 15 81              2474 	dec	sp
   0A74 15 81              2475 	dec	sp
   0A76 15 81              2476 	dec	sp
                           2477 ;	../../core/net/rime/collect.c:630: hdr.rtmetric = c->rtmetric;
   0A78 E5*00              2478 	mov	a,_bp
   0A7A 24 07              2479 	add	a,#0x07
   0A7C FF                 2480 	mov	r7,a
   0A7D 24 02              2481 	add	a,#0x02
   0A7F F9                 2482 	mov	r1,a
   0A80 A8*00              2483 	mov	r0,_bp
   0A82 08                 2484 	inc	r0
   0A83 74 A0              2485 	mov	a,#0xA0
   0A85 26                 2486 	add	a,@r0
   0A86 FC                 2487 	mov	r4,a
   0A87 E4                 2488 	clr	a
   0A88 08                 2489 	inc	r0
   0A89 36                 2490 	addc	a,@r0
   0A8A FD                 2491 	mov	r5,a
   0A8B 08                 2492 	inc	r0
   0A8C 86 06              2493 	mov	ar6,@r0
   0A8E 8C 82              2494 	mov	dpl,r4
   0A90 8D 83              2495 	mov	dph,r5
   0A92 8E F0              2496 	mov	b,r6
   0A94 12s00r00           2497 	lcall	__gptrget
   0A97 FC                 2498 	mov	r4,a
   0A98 A3                 2499 	inc	dptr
   0A99 12s00r00           2500 	lcall	__gptrget
   0A9C FD                 2501 	mov	r5,a
   0A9D A7 04              2502 	mov	@r1,ar4
   0A9F 09                 2503 	inc	r1
   0AA0 A7 05              2504 	mov	@r1,ar5
                           2505 ;	../../core/net/rime/collect.c:631: memcpy(packetbuf_dataptr(), &hdr, sizeof(struct data_msg_hdr));
   0AA2 7E 00              2506 	mov	r6,#0x00
   0AA4 7D 40              2507 	mov	r5,#0x40
   0AA6 C0 07              2508 	push	ar7
   0AA8 C0 06              2509 	push	ar6
   0AAA C0 05              2510 	push	ar5
   0AAC 12s00r00           2511 	lcall	_packetbuf_dataptr
   0AAF AA 82              2512 	mov	r2,dpl
   0AB1 AB 83              2513 	mov	r3,dph
   0AB3 AC F0              2514 	mov	r4,b
   0AB5 D0 05              2515 	pop	ar5
   0AB7 D0 06              2516 	pop	ar6
   0AB9 D0 07              2517 	pop	ar7
   0ABB 74 04              2518 	mov	a,#0x04
   0ABD C0 E0              2519 	push	acc
   0ABF E4                 2520 	clr	a
   0AC0 C0 E0              2521 	push	acc
   0AC2 C0 07              2522 	push	ar7
   0AC4 C0 06              2523 	push	ar6
   0AC6 C0 05              2524 	push	ar5
   0AC8 8A 82              2525 	mov	dpl,r2
   0ACA 8B 83              2526 	mov	dph,r3
   0ACC 8C F0              2527 	mov	b,r4
   0ACE 12s00r00           2528 	lcall	_memcpy
   0AD1 E5 81              2529 	mov	a,sp
   0AD3 24 FB              2530 	add	a,#0xfb
   0AD5 F5 81              2531 	mov	sp,a
                           2532 ;	../../core/net/rime/collect.c:634: send_packet(c, n);
   0AD7 E5*00              2533 	mov	a,_bp
   0AD9 24 04              2534 	add	a,#0x04
   0ADB F8                 2535 	mov	r0,a
   0ADC E6                 2536 	mov	a,@r0
   0ADD C0 E0              2537 	push	acc
   0ADF 08                 2538 	inc	r0
   0AE0 E6                 2539 	mov	a,@r0
   0AE1 C0 E0              2540 	push	acc
   0AE3 08                 2541 	inc	r0
   0AE4 E6                 2542 	mov	a,@r0
   0AE5 C0 E0              2543 	push	acc
   0AE7 A8*00              2544 	mov	r0,_bp
   0AE9 08                 2545 	inc	r0
   0AEA 86 82              2546 	mov	dpl,@r0
   0AEC 08                 2547 	inc	r0
   0AED 86 83              2548 	mov	dph,@r0
   0AEF 08                 2549 	inc	r0
   0AF0 86 F0              2550 	mov	b,@r0
   0AF2 12s04rDB           2551 	lcall	_send_packet
   0AF5 15 81              2552 	dec	sp
   0AF7 15 81              2553 	dec	sp
   0AF9 15 81              2554 	dec	sp
   0AFB 80 3A              2555 	sjmp	00110$
   0AFD                    2556 00106$:
                           2557 ;	../../core/net/rime/collect.c:644: announcement_set_value(&c->announcement, RTMETRIC_MAX);
   0AFD A8*00              2558 	mov	r0,_bp
   0AFF 08                 2559 	inc	r0
   0B00 74 12              2560 	mov	a,#0x12
   0B02 26                 2561 	add	a,@r0
   0B03 FD                 2562 	mov	r5,a
   0B04 E4                 2563 	clr	a
   0B05 08                 2564 	inc	r0
   0B06 36                 2565 	addc	a,@r0
   0B07 FE                 2566 	mov	r6,a
   0B08 08                 2567 	inc	r0
   0B09 86 07              2568 	mov	ar7,@r0
   0B0B 74 FF              2569 	mov	a,#0xFF
   0B0D C0 E0              2570 	push	acc
   0B0F 74 01              2571 	mov	a,#0x01
   0B11 C0 E0              2572 	push	acc
   0B13 8D 82              2573 	mov	dpl,r5
   0B15 8E 83              2574 	mov	dph,r6
   0B17 8F F0              2575 	mov	b,r7
   0B19 12s00r00           2576 	lcall	_announcement_set_value
   0B1C 15 81              2577 	dec	sp
   0B1E 15 81              2578 	dec	sp
                           2579 ;	../../core/net/rime/collect.c:645: announcement_bump(&c->announcement);
   0B20 A8*00              2580 	mov	r0,_bp
   0B22 08                 2581 	inc	r0
   0B23 74 12              2582 	mov	a,#0x12
   0B25 26                 2583 	add	a,@r0
   0B26 FD                 2584 	mov	r5,a
   0B27 E4                 2585 	clr	a
   0B28 08                 2586 	inc	r0
   0B29 36                 2587 	addc	a,@r0
   0B2A FE                 2588 	mov	r6,a
   0B2B 08                 2589 	inc	r0
   0B2C 86 07              2590 	mov	ar7,@r0
   0B2E 8D 82              2591 	mov	dpl,r5
   0B30 8E 83              2592 	mov	dph,r6
   0B32 8F F0              2593 	mov	b,r7
   0B34 12s00r00           2594 	lcall	_announcement_bump
   0B37                    2595 00110$:
   0B37 85*00 81           2596 	mov	sp,_bp
   0B3A D0*00              2597 	pop	_bp
   0B3C 22                 2598 	ret
                           2599 ;------------------------------------------------------------
                           2600 ;Allocation info for local variables in function 'retransmit_current_packet'
                           2601 ;------------------------------------------------------------
                           2602 ;c                         Allocated to stack - _bp +1
                           2603 ;q                         Allocated to registers r2 r3 r4 
                           2604 ;n                         Allocated to stack - _bp +4
                           2605 ;i                         Allocated to registers r2 r3 r4 
                           2606 ;hdr                       Allocated to stack - _bp +7
                           2607 ;max_mac_rexmits           Allocated to registers r3 r4 
                           2608 ;sloc0                     Allocated to stack - _bp +19
                           2609 ;------------------------------------------------------------
                           2610 ;	../../core/net/rime/collect.c:658: retransmit_current_packet(struct collect_conn *c)
                           2611 ;	-----------------------------------------
                           2612 ;	 function retransmit_current_packet
                           2613 ;	-----------------------------------------
   0B3D                    2614 _retransmit_current_packet:
   0B3D C0*00              2615 	push	_bp
   0B3F 85 81*00           2616 	mov	_bp,sp
   0B42 C0 82              2617 	push	dpl
   0B44 C0 83              2618 	push	dph
   0B46 C0 F0              2619 	push	b
   0B48 E5 81              2620 	mov	a,sp
   0B4A 24 07              2621 	add	a,#0x07
   0B4C F5 81              2622 	mov	sp,a
                           2623 ;	../../core/net/rime/collect.c:668: i = packetqueue_first(&c->send_queue);
   0B4E A8*00              2624 	mov	r0,_bp
   0B50 08                 2625 	inc	r0
   0B51 74 4F              2626 	mov	a,#0x4F
   0B53 26                 2627 	add	a,@r0
   0B54 FA                 2628 	mov	r2,a
   0B55 E4                 2629 	clr	a
   0B56 08                 2630 	inc	r0
   0B57 36                 2631 	addc	a,@r0
   0B58 FB                 2632 	mov	r3,a
   0B59 08                 2633 	inc	r0
   0B5A 86 04              2634 	mov	ar4,@r0
   0B5C 8A 82              2635 	mov	dpl,r2
   0B5E 8B 83              2636 	mov	dph,r3
   0B60 8C F0              2637 	mov	b,r4
   0B62 12s00r00           2638 	lcall	_packetqueue_first
   0B65 AA 82              2639 	mov	r2,dpl
   0B67 AB 83              2640 	mov	r3,dph
   0B69 AC F0              2641 	mov	r4,b
                           2642 ;	../../core/net/rime/collect.c:669: if(i == NULL) {
   0B6B EA                 2643 	mov	a,r2
   0B6C 4B                 2644 	orl	a,r3
   0B6D 70 03              2645 	jnz	00102$
                           2646 ;	../../core/net/rime/collect.c:673: return;
   0B6F 02s0DrDD           2647 	ljmp	00109$
   0B72                    2648 00102$:
                           2649 ;	../../core/net/rime/collect.c:677: q = packetqueue_queuebuf(i);
   0B72 8A 82              2650 	mov	dpl,r2
   0B74 8B 83              2651 	mov	dph,r3
   0B76 8C F0              2652 	mov	b,r4
   0B78 12s00r00           2653 	lcall	_packetqueue_queuebuf
   0B7B AA 82              2654 	mov	r2,dpl
   0B7D AB 83              2655 	mov	r3,dph
   0B7F AC F0              2656 	mov	r4,b
                           2657 ;	../../core/net/rime/collect.c:678: if(q != NULL) {
   0B81 EA                 2658 	mov	a,r2
   0B82 4B                 2659 	orl	a,r3
   0B83 70 03              2660 	jnz	00124$
   0B85 02s0DrDD           2661 	ljmp	00109$
   0B88                    2662 00124$:
                           2663 ;	../../core/net/rime/collect.c:680: update_rtmetric(c);
   0B88 A8*00              2664 	mov	r0,_bp
   0B8A 08                 2665 	inc	r0
   0B8B 86 82              2666 	mov	dpl,@r0
   0B8D 08                 2667 	inc	r0
   0B8E 86 83              2668 	mov	dph,@r0
   0B90 08                 2669 	inc	r0
   0B91 86 F0              2670 	mov	b,@r0
   0B93 C0 04              2671 	push	ar4
   0B95 C0 03              2672 	push	ar3
   0B97 C0 02              2673 	push	ar2
   0B99 12s02rA0           2674 	lcall	_update_rtmetric
   0B9C D0 02              2675 	pop	ar2
   0B9E D0 03              2676 	pop	ar3
   0BA0 D0 04              2677 	pop	ar4
                           2678 ;	../../core/net/rime/collect.c:683: queuebuf_to_packetbuf(q);
   0BA2 8A 82              2679 	mov	dpl,r2
   0BA4 8B 83              2680 	mov	dph,r3
   0BA6 8C F0              2681 	mov	b,r4
   0BA8 12s00r00           2682 	lcall	_queuebuf_to_packetbuf
                           2683 ;	../../core/net/rime/collect.c:689: if(!rimeaddr_cmp(&c->current_parent, &c->parent)) {
   0BAB A8*00              2684 	mov	r0,_bp
   0BAD 08                 2685 	inc	r0
   0BAE 74 9C              2686 	mov	a,#0x9C
   0BB0 26                 2687 	add	a,@r0
   0BB1 FA                 2688 	mov	r2,a
   0BB2 E4                 2689 	clr	a
   0BB3 08                 2690 	inc	r0
   0BB4 36                 2691 	addc	a,@r0
   0BB5 FB                 2692 	mov	r3,a
   0BB6 08                 2693 	inc	r0
   0BB7 86 04              2694 	mov	ar4,@r0
   0BB9 A8*00              2695 	mov	r0,_bp
   0BBB 08                 2696 	inc	r0
   0BBC 74 9E              2697 	mov	a,#0x9E
   0BBE 26                 2698 	add	a,@r0
   0BBF FD                 2699 	mov	r5,a
   0BC0 E4                 2700 	clr	a
   0BC1 08                 2701 	inc	r0
   0BC2 36                 2702 	addc	a,@r0
   0BC3 FE                 2703 	mov	r6,a
   0BC4 08                 2704 	inc	r0
   0BC5 86 07              2705 	mov	ar7,@r0
   0BC7 C0 02              2706 	push	ar2
   0BC9 C0 03              2707 	push	ar3
   0BCB C0 04              2708 	push	ar4
   0BCD 8D 82              2709 	mov	dpl,r5
   0BCF 8E 83              2710 	mov	dph,r6
   0BD1 8F F0              2711 	mov	b,r7
   0BD3 12s00r00           2712 	lcall	_rimeaddr_cmp
   0BD6 AE 82              2713 	mov	r6,dpl
   0BD8 AF 83              2714 	mov	r7,dph
   0BDA 15 81              2715 	dec	sp
   0BDC 15 81              2716 	dec	sp
   0BDE 15 81              2717 	dec	sp
   0BE0 EE                 2718 	mov	a,r6
   0BE1 4F                 2719 	orl	a,r7
   0BE2 70 49              2720 	jnz	00104$
                           2721 ;	../../core/net/rime/collect.c:702: rimeaddr_copy(&c->current_parent, &c->parent);
   0BE4 A8*00              2722 	mov	r0,_bp
   0BE6 08                 2723 	inc	r0
   0BE7 74 9C              2724 	mov	a,#0x9C
   0BE9 26                 2725 	add	a,@r0
   0BEA FD                 2726 	mov	r5,a
   0BEB E4                 2727 	clr	a
   0BEC 08                 2728 	inc	r0
   0BED 36                 2729 	addc	a,@r0
   0BEE FE                 2730 	mov	r6,a
   0BEF 08                 2731 	inc	r0
   0BF0 86 07              2732 	mov	ar7,@r0
   0BF2 A8*00              2733 	mov	r0,_bp
   0BF4 08                 2734 	inc	r0
   0BF5 74 9E              2735 	mov	a,#0x9E
   0BF7 26                 2736 	add	a,@r0
   0BF8 FA                 2737 	mov	r2,a
   0BF9 E4                 2738 	clr	a
   0BFA 08                 2739 	inc	r0
   0BFB 36                 2740 	addc	a,@r0
   0BFC FB                 2741 	mov	r3,a
   0BFD 08                 2742 	inc	r0
   0BFE 86 04              2743 	mov	ar4,@r0
   0C00 C0 05              2744 	push	ar5
   0C02 C0 06              2745 	push	ar6
   0C04 C0 07              2746 	push	ar7
   0C06 8A 82              2747 	mov	dpl,r2
   0C08 8B 83              2748 	mov	dph,r3
   0C0A 8C F0              2749 	mov	b,r4
   0C0C 12s00r00           2750 	lcall	_rimeaddr_copy
   0C0F 15 81              2751 	dec	sp
   0C11 15 81              2752 	dec	sp
   0C13 15 81              2753 	dec	sp
                           2754 ;	../../core/net/rime/collect.c:703: c->transmissions = 0;
   0C15 A8*00              2755 	mov	r0,_bp
   0C17 08                 2756 	inc	r0
   0C18 74 A4              2757 	mov	a,#0xA4
   0C1A 26                 2758 	add	a,@r0
   0C1B FD                 2759 	mov	r5,a
   0C1C E4                 2760 	clr	a
   0C1D 08                 2761 	inc	r0
   0C1E 36                 2762 	addc	a,@r0
   0C1F FE                 2763 	mov	r6,a
   0C20 08                 2764 	inc	r0
   0C21 86 07              2765 	mov	ar7,@r0
   0C23 8D 82              2766 	mov	dpl,r5
   0C25 8E 83              2767 	mov	dph,r6
   0C27 8F F0              2768 	mov	b,r7
   0C29 E4                 2769 	clr	a
   0C2A 12s00r00           2770 	lcall	__gptrput
   0C2D                    2771 00104$:
                           2772 ;	../../core/net/rime/collect.c:705: n = collect_neighbor_list_find(&c->neighbor_list, &c->current_parent);
   0C2D A8*00              2773 	mov	r0,_bp
   0C2F 08                 2774 	inc	r0
   0C30 74 9E              2775 	mov	a,#0x9E
   0C32 26                 2776 	add	a,@r0
   0C33 FD                 2777 	mov	r5,a
   0C34 E4                 2778 	clr	a
   0C35 08                 2779 	inc	r0
   0C36 36                 2780 	addc	a,@r0
   0C37 FE                 2781 	mov	r6,a
   0C38 08                 2782 	inc	r0
   0C39 86 07              2783 	mov	ar7,@r0
   0C3B A8*00              2784 	mov	r0,_bp
   0C3D 08                 2785 	inc	r0
   0C3E 74 55              2786 	mov	a,#0x55
   0C40 26                 2787 	add	a,@r0
   0C41 FA                 2788 	mov	r2,a
   0C42 E4                 2789 	clr	a
   0C43 08                 2790 	inc	r0
   0C44 36                 2791 	addc	a,@r0
   0C45 FB                 2792 	mov	r3,a
   0C46 08                 2793 	inc	r0
   0C47 86 04              2794 	mov	ar4,@r0
   0C49 C0 05              2795 	push	ar5
   0C4B C0 06              2796 	push	ar6
   0C4D C0 07              2797 	push	ar7
   0C4F 8A 82              2798 	mov	dpl,r2
   0C51 8B 83              2799 	mov	dph,r3
   0C53 8C F0              2800 	mov	b,r4
   0C55 12s00r00           2801 	lcall	_collect_neighbor_list_find
   0C58 AD 82              2802 	mov	r5,dpl
   0C5A AE 83              2803 	mov	r6,dph
   0C5C AF F0              2804 	mov	r7,b
   0C5E 15 81              2805 	dec	sp
   0C60 15 81              2806 	dec	sp
   0C62 15 81              2807 	dec	sp
   0C64 E5*00              2808 	mov	a,_bp
   0C66 24 04              2809 	add	a,#0x04
   0C68 F8                 2810 	mov	r0,a
   0C69 A6 05              2811 	mov	@r0,ar5
   0C6B 08                 2812 	inc	r0
   0C6C A6 06              2813 	mov	@r0,ar6
   0C6E 08                 2814 	inc	r0
   0C6F A6 07              2815 	mov	@r0,ar7
                           2816 ;	../../core/net/rime/collect.c:707: if(n != NULL) {
   0C71 E5*00              2817 	mov	a,_bp
   0C73 24 04              2818 	add	a,#0x04
   0C75 F8                 2819 	mov	r0,a
   0C76 E6                 2820 	mov	a,@r0
   0C77 08                 2821 	inc	r0
   0C78 46                 2822 	orl	a,@r0
   0C79 70 03              2823 	jnz	00126$
   0C7B 02s0DrDD           2824 	ljmp	00109$
   0C7E                    2825 00126$:
                           2826 ;	../../core/net/rime/collect.c:719: c->sending = 1;
   0C7E A8*00              2827 	mov	r0,_bp
   0C80 08                 2828 	inc	r0
   0C81 74 A3              2829 	mov	a,#0xA3
   0C83 26                 2830 	add	a,@r0
   0C84 FA                 2831 	mov	r2,a
   0C85 E4                 2832 	clr	a
   0C86 08                 2833 	inc	r0
   0C87 36                 2834 	addc	a,@r0
   0C88 FB                 2835 	mov	r3,a
   0C89 08                 2836 	inc	r0
   0C8A 86 04              2837 	mov	ar4,@r0
   0C8C 8A 82              2838 	mov	dpl,r2
   0C8E 8B 83              2839 	mov	dph,r3
   0C90 8C F0              2840 	mov	b,r4
                           2841 ;	../../core/net/rime/collect.c:720: packetbuf_set_attr(PACKETBUF_ATTR_RELIABLE, 1);
   0C92 74 01              2842 	mov	a,#0x01
   0C94 12s00r00           2843 	lcall	__gptrput
   0C97 C0 E0              2844 	push	acc
   0C99 E4                 2845 	clr	a
   0C9A C0 E0              2846 	push	acc
   0C9C 75 82 0C           2847 	mov	dpl,#0x0C
   0C9F 12s00r00           2848 	lcall	_packetbuf_set_attr
   0CA2 15 81              2849 	dec	sp
   0CA4 15 81              2850 	dec	sp
                           2851 ;	../../core/net/rime/collect.c:721: max_mac_rexmits = c->max_rexmits - c->transmissions > MAX_MAC_REXMITS?
   0CA6 A8*00              2852 	mov	r0,_bp
   0CA8 08                 2853 	inc	r0
   0CA9 74 A5              2854 	mov	a,#0xA5
   0CAB 26                 2855 	add	a,@r0
   0CAC FA                 2856 	mov	r2,a
   0CAD E4                 2857 	clr	a
   0CAE 08                 2858 	inc	r0
   0CAF 36                 2859 	addc	a,@r0
   0CB0 FB                 2860 	mov	r3,a
   0CB1 08                 2861 	inc	r0
   0CB2 86 04              2862 	mov	ar4,@r0
   0CB4 8A 82              2863 	mov	dpl,r2
   0CB6 8B 83              2864 	mov	dph,r3
   0CB8 8C F0              2865 	mov	b,r4
   0CBA 12s00r00           2866 	lcall	__gptrget
   0CBD FA                 2867 	mov	r2,a
   0CBE 7C 00              2868 	mov	r4,#0x00
   0CC0 A8*00              2869 	mov	r0,_bp
   0CC2 08                 2870 	inc	r0
   0CC3 74 A4              2871 	mov	a,#0xA4
   0CC5 26                 2872 	add	a,@r0
   0CC6 FB                 2873 	mov	r3,a
   0CC7 E4                 2874 	clr	a
   0CC8 08                 2875 	inc	r0
   0CC9 36                 2876 	addc	a,@r0
   0CCA FE                 2877 	mov	r6,a
   0CCB 08                 2878 	inc	r0
   0CCC 86 07              2879 	mov	ar7,@r0
   0CCE 8B 82              2880 	mov	dpl,r3
   0CD0 8E 83              2881 	mov	dph,r6
   0CD2 8F F0              2882 	mov	b,r7
   0CD4 12s00r00           2883 	lcall	__gptrget
   0CD7 FB                 2884 	mov	r3,a
   0CD8 7D 00              2885 	mov	r5,#0x00
   0CDA EA                 2886 	mov	a,r2
   0CDB C3                 2887 	clr	c
   0CDC 9B                 2888 	subb	a,r3
   0CDD FE                 2889 	mov	r6,a
   0CDE EC                 2890 	mov	a,r4
   0CDF 9D                 2891 	subb	a,r5
   0CE0 FF                 2892 	mov	r7,a
   0CE1 C3                 2893 	clr	c
   0CE2 74 02              2894 	mov	a,#0x02
   0CE4 9E                 2895 	subb	a,r6
   0CE5 E4                 2896 	clr	a
   0CE6 64 80              2897 	xrl	a,#0x80
   0CE8 8F F0              2898 	mov	b,r7
   0CEA 63 F0 80           2899 	xrl	b,#0x80
   0CED 95 F0              2900 	subb	a,b
   0CEF 50 06              2901 	jnc	00111$
                           2902 ;	../../core/net/rime/collect.c:722: MAX_MAC_REXMITS : c->max_rexmits - c->transmissions;
   0CF1 7F 02              2903 	mov	r7,#0x02
   0CF3 7E 00              2904 	mov	r6,#0x00
   0CF5 80 07              2905 	sjmp	00112$
   0CF7                    2906 00111$:
   0CF7 EA                 2907 	mov	a,r2
   0CF8 C3                 2908 	clr	c
   0CF9 9B                 2909 	subb	a,r3
   0CFA FF                 2910 	mov	r7,a
   0CFB EC                 2911 	mov	a,r4
   0CFC 9D                 2912 	subb	a,r5
   0CFD FE                 2913 	mov	r6,a
   0CFE                    2914 00112$:
   0CFE 8F 03              2915 	mov	ar3,r7
   0D00 8E 04              2916 	mov	ar4,r6
                           2917 ;	../../core/net/rime/collect.c:723: packetbuf_set_attr(PACKETBUF_ATTR_MAX_MAC_TRANSMISSIONS, max_mac_rexmits);
   0D02 C0 03              2918 	push	ar3
   0D04 C0 04              2919 	push	ar4
   0D06 75 82 09           2920 	mov	dpl,#0x09
   0D09 12s00r00           2921 	lcall	_packetbuf_set_attr
   0D0C 15 81              2922 	dec	sp
   0D0E 15 81              2923 	dec	sp
                           2924 ;	../../core/net/rime/collect.c:724: packetbuf_set_attr(PACKETBUF_ATTR_PACKET_ID, c->seqno);
   0D10 A8*00              2925 	mov	r0,_bp
   0D12 08                 2926 	inc	r0
   0D13 74 A2              2927 	mov	a,#0xA2
   0D15 26                 2928 	add	a,@r0
   0D16 FA                 2929 	mov	r2,a
   0D17 E4                 2930 	clr	a
   0D18 08                 2931 	inc	r0
   0D19 36                 2932 	addc	a,@r0
   0D1A FB                 2933 	mov	r3,a
   0D1B 08                 2934 	inc	r0
   0D1C 86 04              2935 	mov	ar4,@r0
   0D1E 8A 82              2936 	mov	dpl,r2
   0D20 8B 83              2937 	mov	dph,r3
   0D22 8C F0              2938 	mov	b,r4
   0D24 12s00r00           2939 	lcall	__gptrget
   0D27 FA                 2940 	mov	r2,a
   0D28 7C 00              2941 	mov	r4,#0x00
   0D2A C0 02              2942 	push	ar2
   0D2C C0 04              2943 	push	ar4
   0D2E 75 82 0D           2944 	mov	dpl,#0x0D
   0D31 12s00r00           2945 	lcall	_packetbuf_set_attr
   0D34 15 81              2946 	dec	sp
   0D36 15 81              2947 	dec	sp
                           2948 ;	../../core/net/rime/collect.c:728: memset(&hdr, 0, sizeof(hdr));
   0D38 E5*00              2949 	mov	a,_bp
   0D3A 24 07              2950 	add	a,#0x07
   0D3C FC                 2951 	mov	r4,a
   0D3D 7B 00              2952 	mov	r3,#0x00
   0D3F 7A 40              2953 	mov	r2,#0x40
   0D41 74 04              2954 	mov	a,#0x04
   0D43 C0 E0              2955 	push	acc
   0D45 E4                 2956 	clr	a
   0D46 C0 E0              2957 	push	acc
   0D48 E4                 2958 	clr	a
   0D49 C0 E0              2959 	push	acc
   0D4B 8C 82              2960 	mov	dpl,r4
   0D4D 8B 83              2961 	mov	dph,r3
   0D4F 8A F0              2962 	mov	b,r2
   0D51 12s00r00           2963 	lcall	_memset
   0D54 15 81              2964 	dec	sp
   0D56 15 81              2965 	dec	sp
   0D58 15 81              2966 	dec	sp
                           2967 ;	../../core/net/rime/collect.c:729: hdr.rtmetric = c->rtmetric;
   0D5A E5*00              2968 	mov	a,_bp
   0D5C 24 07              2969 	add	a,#0x07
   0D5E FC                 2970 	mov	r4,a
   0D5F 24 02              2971 	add	a,#0x02
   0D61 F9                 2972 	mov	r1,a
   0D62 A8*00              2973 	mov	r0,_bp
   0D64 08                 2974 	inc	r0
   0D65 74 A0              2975 	mov	a,#0xA0
   0D67 26                 2976 	add	a,@r0
   0D68 FA                 2977 	mov	r2,a
   0D69 E4                 2978 	clr	a
   0D6A 08                 2979 	inc	r0
   0D6B 36                 2980 	addc	a,@r0
   0D6C FB                 2981 	mov	r3,a
   0D6D 08                 2982 	inc	r0
   0D6E 86 07              2983 	mov	ar7,@r0
   0D70 8A 82              2984 	mov	dpl,r2
   0D72 8B 83              2985 	mov	dph,r3
   0D74 8F F0              2986 	mov	b,r7
   0D76 12s00r00           2987 	lcall	__gptrget
   0D79 FA                 2988 	mov	r2,a
   0D7A A3                 2989 	inc	dptr
   0D7B 12s00r00           2990 	lcall	__gptrget
   0D7E FB                 2991 	mov	r3,a
   0D7F A7 02              2992 	mov	@r1,ar2
   0D81 09                 2993 	inc	r1
   0D82 A7 03              2994 	mov	@r1,ar3
                           2995 ;	../../core/net/rime/collect.c:730: memcpy(packetbuf_dataptr(), &hdr, sizeof(struct data_msg_hdr));
   0D84 7F 00              2996 	mov	r7,#0x00
   0D86 7E 40              2997 	mov	r6,#0x40
   0D88 C0 07              2998 	push	ar7
   0D8A C0 06              2999 	push	ar6
   0D8C C0 04              3000 	push	ar4
   0D8E 12s00r00           3001 	lcall	_packetbuf_dataptr
   0D91 AA 82              3002 	mov	r2,dpl
   0D93 AB 83              3003 	mov	r3,dph
   0D95 AD F0              3004 	mov	r5,b
   0D97 D0 04              3005 	pop	ar4
   0D99 D0 06              3006 	pop	ar6
   0D9B D0 07              3007 	pop	ar7
   0D9D 74 04              3008 	mov	a,#0x04
   0D9F C0 E0              3009 	push	acc
   0DA1 E4                 3010 	clr	a
   0DA2 C0 E0              3011 	push	acc
   0DA4 C0 04              3012 	push	ar4
   0DA6 C0 07              3013 	push	ar7
   0DA8 C0 06              3014 	push	ar6
   0DAA 8A 82              3015 	mov	dpl,r2
   0DAC 8B 83              3016 	mov	dph,r3
   0DAE 8D F0              3017 	mov	b,r5
   0DB0 12s00r00           3018 	lcall	_memcpy
   0DB3 E5 81              3019 	mov	a,sp
   0DB5 24 FB              3020 	add	a,#0xfb
   0DB7 F5 81              3021 	mov	sp,a
                           3022 ;	../../core/net/rime/collect.c:733: send_packet(c, n);
   0DB9 E5*00              3023 	mov	a,_bp
   0DBB 24 04              3024 	add	a,#0x04
   0DBD F8                 3025 	mov	r0,a
   0DBE E6                 3026 	mov	a,@r0
   0DBF C0 E0              3027 	push	acc
   0DC1 08                 3028 	inc	r0
   0DC2 E6                 3029 	mov	a,@r0
   0DC3 C0 E0              3030 	push	acc
   0DC5 08                 3031 	inc	r0
   0DC6 E6                 3032 	mov	a,@r0
   0DC7 C0 E0              3033 	push	acc
   0DC9 A8*00              3034 	mov	r0,_bp
   0DCB 08                 3035 	inc	r0
   0DCC 86 82              3036 	mov	dpl,@r0
   0DCE 08                 3037 	inc	r0
   0DCF 86 83              3038 	mov	dph,@r0
   0DD1 08                 3039 	inc	r0
   0DD2 86 F0              3040 	mov	b,@r0
   0DD4 12s04rDB           3041 	lcall	_send_packet
   0DD7 15 81              3042 	dec	sp
   0DD9 15 81              3043 	dec	sp
   0DDB 15 81              3044 	dec	sp
   0DDD                    3045 00109$:
   0DDD 85*00 81           3046 	mov	sp,_bp
   0DE0 D0*00              3047 	pop	_bp
   0DE2 22                 3048 	ret
                           3049 ;------------------------------------------------------------
                           3050 ;Allocation info for local variables in function 'send_next_packet'
                           3051 ;------------------------------------------------------------
                           3052 ;tc                        Allocated to registers r5 r6 r7 
                           3053 ;------------------------------------------------------------
                           3054 ;	../../core/net/rime/collect.c:740: send_next_packet(struct collect_conn *tc)
                           3055 ;	-----------------------------------------
                           3056 ;	 function send_next_packet
                           3057 ;	-----------------------------------------
   0DE3                    3058 _send_next_packet:
   0DE3 AD 82              3059 	mov	r5,dpl
   0DE5 AE 83              3060 	mov	r6,dph
   0DE7 AF F0              3061 	mov	r7,b
                           3062 ;	../../core/net/rime/collect.c:743: packetqueue_dequeue(&tc->send_queue);
   0DE9 74 4F              3063 	mov	a,#0x4F
   0DEB 2D                 3064 	add	a,r5
   0DEC FA                 3065 	mov	r2,a
   0DED E4                 3066 	clr	a
   0DEE 3E                 3067 	addc	a,r6
   0DEF FB                 3068 	mov	r3,a
   0DF0 8F 04              3069 	mov	ar4,r7
   0DF2 8A 82              3070 	mov	dpl,r2
   0DF4 8B 83              3071 	mov	dph,r3
   0DF6 8C F0              3072 	mov	b,r4
   0DF8 C0 07              3073 	push	ar7
   0DFA C0 06              3074 	push	ar6
   0DFC C0 05              3075 	push	ar5
   0DFE 12s00r00           3076 	lcall	_packetqueue_dequeue
   0E01 D0 05              3077 	pop	ar5
   0E03 D0 06              3078 	pop	ar6
   0E05 D0 07              3079 	pop	ar7
                           3080 ;	../../core/net/rime/collect.c:744: tc->seqno = (tc->seqno + 1) % (1 << COLLECT_PACKET_ID_BITS);
   0E07 74 A2              3081 	mov	a,#0xA2
   0E09 2D                 3082 	add	a,r5
   0E0A FA                 3083 	mov	r2,a
   0E0B E4                 3084 	clr	a
   0E0C 3E                 3085 	addc	a,r6
   0E0D FB                 3086 	mov	r3,a
   0E0E 8F 04              3087 	mov	ar4,r7
   0E10 8A 82              3088 	mov	dpl,r2
   0E12 8B 83              3089 	mov	dph,r3
   0E14 8C F0              3090 	mov	b,r4
   0E16 12s00r00           3091 	lcall	__gptrget
   0E19 F8                 3092 	mov	r0,a
   0E1A 79 00              3093 	mov	r1,#0x00
   0E1C 08                 3094 	inc	r0
   0E1D B8 00 01           3095 	cjne	r0,#0x00,00103$
   0E20 09                 3096 	inc	r1
   0E21                    3097 00103$:
   0E21 C0 07              3098 	push	ar7
   0E23 C0 06              3099 	push	ar6
   0E25 C0 05              3100 	push	ar5
   0E27 C0 04              3101 	push	ar4
   0E29 C0 03              3102 	push	ar3
   0E2B C0 02              3103 	push	ar2
   0E2D E4                 3104 	clr	a
   0E2E C0 E0              3105 	push	acc
   0E30 74 01              3106 	mov	a,#0x01
   0E32 C0 E0              3107 	push	acc
   0E34 88 82              3108 	mov	dpl,r0
   0E36 89 83              3109 	mov	dph,r1
   0E38 12s00r00           3110 	lcall	__modsint
   0E3B A8 82              3111 	mov	r0,dpl
   0E3D 15 81              3112 	dec	sp
   0E3F 15 81              3113 	dec	sp
   0E41 D0 02              3114 	pop	ar2
   0E43 D0 03              3115 	pop	ar3
   0E45 D0 04              3116 	pop	ar4
   0E47 D0 05              3117 	pop	ar5
   0E49 D0 06              3118 	pop	ar6
   0E4B D0 07              3119 	pop	ar7
   0E4D 8A 82              3120 	mov	dpl,r2
   0E4F 8B 83              3121 	mov	dph,r3
   0E51 8C F0              3122 	mov	b,r4
   0E53 E8                 3123 	mov	a,r0
   0E54 12s00r00           3124 	lcall	__gptrput
                           3125 ;	../../core/net/rime/collect.c:747: ctimer_stop(&tc->retransmission_timer);
   0E57 74 34              3126 	mov	a,#0x34
   0E59 2D                 3127 	add	a,r5
   0E5A FA                 3128 	mov	r2,a
   0E5B E4                 3129 	clr	a
   0E5C 3E                 3130 	addc	a,r6
   0E5D FB                 3131 	mov	r3,a
   0E5E 8F 04              3132 	mov	ar4,r7
   0E60 8A 82              3133 	mov	dpl,r2
   0E62 8B 83              3134 	mov	dph,r3
   0E64 8C F0              3135 	mov	b,r4
   0E66 C0 07              3136 	push	ar7
   0E68 C0 06              3137 	push	ar6
   0E6A C0 05              3138 	push	ar5
   0E6C 12s00r00           3139 	lcall	_ctimer_stop
   0E6F D0 05              3140 	pop	ar5
   0E71 D0 06              3141 	pop	ar6
   0E73 D0 07              3142 	pop	ar7
                           3143 ;	../../core/net/rime/collect.c:748: tc->sending = 0;
   0E75 74 A3              3144 	mov	a,#0xA3
   0E77 2D                 3145 	add	a,r5
   0E78 FA                 3146 	mov	r2,a
   0E79 E4                 3147 	clr	a
   0E7A 3E                 3148 	addc	a,r6
   0E7B FB                 3149 	mov	r3,a
   0E7C 8F 04              3150 	mov	ar4,r7
   0E7E 8A 82              3151 	mov	dpl,r2
   0E80 8B 83              3152 	mov	dph,r3
   0E82 8C F0              3153 	mov	b,r4
   0E84 E4                 3154 	clr	a
   0E85 12s00r00           3155 	lcall	__gptrput
                           3156 ;	../../core/net/rime/collect.c:749: tc->transmissions = 0;
   0E88 74 A4              3157 	mov	a,#0xA4
   0E8A 2D                 3158 	add	a,r5
   0E8B FA                 3159 	mov	r2,a
   0E8C E4                 3160 	clr	a
   0E8D 3E                 3161 	addc	a,r6
   0E8E FB                 3162 	mov	r3,a
   0E8F 8F 04              3163 	mov	ar4,r7
   0E91 8A 82              3164 	mov	dpl,r2
   0E93 8B 83              3165 	mov	dph,r3
   0E95 8C F0              3166 	mov	b,r4
   0E97 E4                 3167 	clr	a
   0E98 12s00r00           3168 	lcall	__gptrput
                           3169 ;	../../core/net/rime/collect.c:755: send_queued_packet(tc);
   0E9B 8D 82              3170 	mov	dpl,r5
   0E9D 8E 83              3171 	mov	dph,r6
   0E9F 8F F0              3172 	mov	b,r7
   0EA1 02s08r41           3173 	ljmp	_send_queued_packet
                           3174 ;------------------------------------------------------------
                           3175 ;Allocation info for local variables in function 'handle_ack'
                           3176 ;------------------------------------------------------------
                           3177 ;tc                        Allocated to stack - _bp +1
                           3178 ;msg                       Allocated to stack - _bp +4
                           3179 ;n                         Allocated to registers r4 r3 r2 
                           3180 ;sloc0                     Allocated to stack - _bp +8
                           3181 ;------------------------------------------------------------
                           3182 ;	../../core/net/rime/collect.c:759: handle_ack(struct collect_conn *tc)
                           3183 ;	-----------------------------------------
                           3184 ;	 function handle_ack
                           3185 ;	-----------------------------------------
   0EA4                    3186 _handle_ack:
   0EA4 C0*00              3187 	push	_bp
   0EA6 85 81*00           3188 	mov	_bp,sp
   0EA9 C0 82              3189 	push	dpl
   0EAB C0 83              3190 	push	dph
   0EAD C0 F0              3191 	push	b
   0EAF E5 81              3192 	mov	a,sp
   0EB1 24 06              3193 	add	a,#0x06
   0EB3 F5 81              3194 	mov	sp,a
                           3195 ;	../../core/net/rime/collect.c:770: &tc->current_parent) &&
   0EB5 A8*00              3196 	mov	r0,_bp
   0EB7 08                 3197 	inc	r0
   0EB8 74 9E              3198 	mov	a,#0x9E
   0EBA 26                 3199 	add	a,@r0
   0EBB FA                 3200 	mov	r2,a
   0EBC E4                 3201 	clr	a
   0EBD 08                 3202 	inc	r0
   0EBE 36                 3203 	addc	a,@r0
   0EBF FB                 3204 	mov	r3,a
   0EC0 08                 3205 	inc	r0
   0EC1 86 04              3206 	mov	ar4,@r0
                           3207 ;	../../core/net/rime/collect.c:769: if(rimeaddr_cmp(packetbuf_addr(PACKETBUF_ADDR_SENDER),
   0EC3 75 82 18           3208 	mov	dpl,#0x18
   0EC6 C0 04              3209 	push	ar4
   0EC8 C0 03              3210 	push	ar3
   0ECA C0 02              3211 	push	ar2
   0ECC 12s00r00           3212 	lcall	_packetbuf_addr
   0ECF AD 82              3213 	mov	r5,dpl
   0ED1 AE 83              3214 	mov	r6,dph
   0ED3 AF F0              3215 	mov	r7,b
   0ED5 D0 02              3216 	pop	ar2
   0ED7 D0 03              3217 	pop	ar3
   0ED9 D0 04              3218 	pop	ar4
   0EDB C0 02              3219 	push	ar2
   0EDD C0 03              3220 	push	ar3
   0EDF C0 04              3221 	push	ar4
   0EE1 8D 82              3222 	mov	dpl,r5
   0EE3 8E 83              3223 	mov	dph,r6
   0EE5 8F F0              3224 	mov	b,r7
   0EE7 12s00r00           3225 	lcall	_rimeaddr_cmp
   0EEA AE 82              3226 	mov	r6,dpl
   0EEC AF 83              3227 	mov	r7,dph
   0EEE 15 81              3228 	dec	sp
   0EF0 15 81              3229 	dec	sp
   0EF2 15 81              3230 	dec	sp
   0EF4 EE                 3231 	mov	a,r6
   0EF5 4F                 3232 	orl	a,r7
   0EF6 70 03              3233 	jnz	00137$
   0EF8 02s11rBF           3234 	ljmp	00116$
   0EFB                    3235 00137$:
                           3236 ;	../../core/net/rime/collect.c:771: packetbuf_attr(PACKETBUF_ATTR_PACKET_ID) == tc->seqno) {
   0EFB 75 82 0D           3237 	mov	dpl,#0x0D
   0EFE 12s00r00           3238 	lcall	_packetbuf_attr
   0F01 AE 82              3239 	mov	r6,dpl
   0F03 AF 83              3240 	mov	r7,dph
   0F05 A8*00              3241 	mov	r0,_bp
   0F07 08                 3242 	inc	r0
   0F08 74 A2              3243 	mov	a,#0xA2
   0F0A 26                 3244 	add	a,@r0
   0F0B FB                 3245 	mov	r3,a
   0F0C E4                 3246 	clr	a
   0F0D 08                 3247 	inc	r0
   0F0E 36                 3248 	addc	a,@r0
   0F0F FC                 3249 	mov	r4,a
   0F10 08                 3250 	inc	r0
   0F11 86 05              3251 	mov	ar5,@r0
   0F13 8B 82              3252 	mov	dpl,r3
   0F15 8C 83              3253 	mov	dph,r4
   0F17 8D F0              3254 	mov	b,r5
   0F19 12s00r00           3255 	lcall	__gptrget
   0F1C FB                 3256 	mov	r3,a
   0F1D 7D 00              3257 	mov	r5,#0x00
   0F1F EE                 3258 	mov	a,r6
   0F20 B5 03 06           3259 	cjne	a,ar3,00138$
   0F23 EF                 3260 	mov	a,r7
   0F24 B5 05 02           3261 	cjne	a,ar5,00138$
   0F27 80 03              3262 	sjmp	00139$
   0F29                    3263 00138$:
   0F29 02s11rBF           3264 	ljmp	00116$
   0F2C                    3265 00139$:
                           3266 ;	../../core/net/rime/collect.c:779: stats.ackrecv++;
   0F2C 90s01r45           3267 	mov	dptr,#(_stats + 0x0018)
   0F2F E0                 3268 	movx	a,@dptr
   0F30 FC                 3269 	mov	r4,a
   0F31 A3                 3270 	inc	dptr
   0F32 E0                 3271 	movx	a,@dptr
   0F33 FD                 3272 	mov	r5,a
   0F34 A3                 3273 	inc	dptr
   0F35 E0                 3274 	movx	a,@dptr
   0F36 FE                 3275 	mov	r6,a
   0F37 A3                 3276 	inc	dptr
   0F38 E0                 3277 	movx	a,@dptr
   0F39 FF                 3278 	mov	r7,a
   0F3A 0C                 3279 	inc	r4
   0F3B BC 00 09           3280 	cjne	r4,#0x00,00140$
   0F3E 0D                 3281 	inc	r5
   0F3F BD 00 05           3282 	cjne	r5,#0x00,00140$
   0F42 0E                 3283 	inc	r6
   0F43 BE 00 01           3284 	cjne	r6,#0x00,00140$
   0F46 0F                 3285 	inc	r7
   0F47                    3286 00140$:
   0F47 90s01r45           3287 	mov	dptr,#(_stats + 0x0018)
   0F4A EC                 3288 	mov	a,r4
   0F4B F0                 3289 	movx	@dptr,a
   0F4C A3                 3290 	inc	dptr
   0F4D ED                 3291 	mov	a,r5
   0F4E F0                 3292 	movx	@dptr,a
   0F4F A3                 3293 	inc	dptr
   0F50 EE                 3294 	mov	a,r6
   0F51 F0                 3295 	movx	@dptr,a
   0F52 A3                 3296 	inc	dptr
   0F53 EF                 3297 	mov	a,r7
   0F54 F0                 3298 	movx	@dptr,a
                           3299 ;	../../core/net/rime/collect.c:780: memcpy(&msg, packetbuf_dataptr(), sizeof(struct ack_msg));
   0F55 12s00r00           3300 	lcall	_packetbuf_dataptr
   0F58 AD 82              3301 	mov	r5,dpl
   0F5A AE 83              3302 	mov	r6,dph
   0F5C AF F0              3303 	mov	r7,b
   0F5E E5*00              3304 	mov	a,_bp
   0F60 24 04              3305 	add	a,#0x04
   0F62 FC                 3306 	mov	r4,a
   0F63 7B 00              3307 	mov	r3,#0x00
   0F65 7A 40              3308 	mov	r2,#0x40
   0F67 74 04              3309 	mov	a,#0x04
   0F69 C0 E0              3310 	push	acc
   0F6B E4                 3311 	clr	a
   0F6C C0 E0              3312 	push	acc
   0F6E C0 05              3313 	push	ar5
   0F70 C0 06              3314 	push	ar6
   0F72 C0 07              3315 	push	ar7
   0F74 8C 82              3316 	mov	dpl,r4
   0F76 8B 83              3317 	mov	dph,r3
   0F78 8A F0              3318 	mov	b,r2
   0F7A 12s00r00           3319 	lcall	_memcpy
   0F7D E5 81              3320 	mov	a,sp
   0F7F 24 FB              3321 	add	a,#0xfb
   0F81 F5 81              3322 	mov	sp,a
                           3323 ;	../../core/net/rime/collect.c:788: if(tc->transmissions == 0) {
   0F83 A8*00              3324 	mov	r0,_bp
   0F85 08                 3325 	inc	r0
   0F86 74 A4              3326 	mov	a,#0xA4
   0F88 26                 3327 	add	a,@r0
   0F89 FD                 3328 	mov	r5,a
   0F8A E4                 3329 	clr	a
   0F8B 08                 3330 	inc	r0
   0F8C 36                 3331 	addc	a,@r0
   0F8D FE                 3332 	mov	r6,a
   0F8E 08                 3333 	inc	r0
   0F8F 86 07              3334 	mov	ar7,@r0
   0F91 8D 82              3335 	mov	dpl,r5
   0F93 8E 83              3336 	mov	dph,r6
   0F95 8F F0              3337 	mov	b,r7
   0F97 12s00r00           3338 	lcall	__gptrget
   0F9A 70 0B              3339 	jnz	00102$
                           3340 ;	../../core/net/rime/collect.c:789: tc->transmissions = MAX_MAC_REXMITS;
   0F9C 8D 82              3341 	mov	dpl,r5
   0F9E 8E 83              3342 	mov	dph,r6
   0FA0 8F F0              3343 	mov	b,r7
   0FA2 74 02              3344 	mov	a,#0x02
   0FA4 12s00r00           3345 	lcall	__gptrput
   0FA7                    3346 00102$:
                           3347 ;	../../core/net/rime/collect.c:794: packetbuf_addr(PACKETBUF_ADDR_SENDER));
   0FA7 C0 05              3348 	push	ar5
   0FA9 C0 06              3349 	push	ar6
   0FAB C0 07              3350 	push	ar7
   0FAD 75 82 18           3351 	mov	dpl,#0x18
   0FB0 C0 07              3352 	push	ar7
   0FB2 C0 06              3353 	push	ar6
   0FB4 C0 05              3354 	push	ar5
   0FB6 12s00r00           3355 	lcall	_packetbuf_addr
   0FB9 AA 82              3356 	mov	r2,dpl
   0FBB AB 83              3357 	mov	r3,dph
   0FBD AC F0              3358 	mov	r4,b
   0FBF D0 05              3359 	pop	ar5
   0FC1 D0 06              3360 	pop	ar6
   0FC3 D0 07              3361 	pop	ar7
                           3362 ;	../../core/net/rime/collect.c:793: n = collect_neighbor_list_find(&tc->neighbor_list,
   0FC5 A8*00              3363 	mov	r0,_bp
   0FC7 08                 3364 	inc	r0
   0FC8 74 55              3365 	mov	a,#0x55
   0FCA 26                 3366 	add	a,@r0
   0FCB FD                 3367 	mov	r5,a
   0FCC E4                 3368 	clr	a
   0FCD 08                 3369 	inc	r0
   0FCE 36                 3370 	addc	a,@r0
   0FCF FE                 3371 	mov	r6,a
   0FD0 08                 3372 	inc	r0
   0FD1 86 07              3373 	mov	ar7,@r0
   0FD3 C0 02              3374 	push	ar2
   0FD5 C0 03              3375 	push	ar3
   0FD7 C0 04              3376 	push	ar4
   0FD9 8D 82              3377 	mov	dpl,r5
   0FDB 8E 83              3378 	mov	dph,r6
   0FDD 8F F0              3379 	mov	b,r7
   0FDF 12s00r00           3380 	lcall	_collect_neighbor_list_find
   0FE2 AD 82              3381 	mov	r5,dpl
   0FE4 AE 83              3382 	mov	r6,dph
   0FE6 AF F0              3383 	mov	r7,b
   0FE8 15 81              3384 	dec	sp
   0FEA 15 81              3385 	dec	sp
   0FEC 15 81              3386 	dec	sp
   0FEE 8D 04              3387 	mov	ar4,r5
   0FF0 8E 03              3388 	mov	ar3,r6
   0FF2 8F 02              3389 	mov	ar2,r7
                           3390 ;	../../core/net/rime/collect.c:796: if(n != NULL) {
   0FF4 D0 07              3391 	pop	ar7
   0FF6 D0 06              3392 	pop	ar6
   0FF8 D0 05              3393 	pop	ar5
   0FFA EC                 3394 	mov	a,r4
   0FFB 4B                 3395 	orl	a,r3
   0FFC 60 60              3396 	jz	00104$
                           3397 ;	../../core/net/rime/collect.c:797: collect_neighbor_tx(n, tc->transmissions);
   0FFE 8D 82              3398 	mov	dpl,r5
   1000 8E 83              3399 	mov	dph,r6
   1002 8F F0              3400 	mov	b,r7
   1004 12s00r00           3401 	lcall	__gptrget
   1007 FD                 3402 	mov	r5,a
   1008 7F 00              3403 	mov	r7,#0x00
   100A C0 04              3404 	push	ar4
   100C C0 03              3405 	push	ar3
   100E C0 02              3406 	push	ar2
   1010 C0 05              3407 	push	ar5
   1012 C0 07              3408 	push	ar7
   1014 8C 82              3409 	mov	dpl,r4
   1016 8B 83              3410 	mov	dph,r3
   1018 8A F0              3411 	mov	b,r2
   101A 12s00r00           3412 	lcall	_collect_neighbor_tx
   101D 15 81              3413 	dec	sp
   101F 15 81              3414 	dec	sp
   1021 D0 02              3415 	pop	ar2
   1023 D0 03              3416 	pop	ar3
   1025 D0 04              3417 	pop	ar4
                           3418 ;	../../core/net/rime/collect.c:798: collect_neighbor_update_rtmetric(n, msg.rtmetric);
   1027 E5*00              3419 	mov	a,_bp
   1029 24 04              3420 	add	a,#0x04
   102B 24 02              3421 	add	a,#0x02
   102D F9                 3422 	mov	r1,a
   102E 87 06              3423 	mov	ar6,@r1
   1030 09                 3424 	inc	r1
   1031 87 07              3425 	mov	ar7,@r1
   1033 C0 04              3426 	push	ar4
   1035 C0 03              3427 	push	ar3
   1037 C0 02              3428 	push	ar2
   1039 C0 06              3429 	push	ar6
   103B C0 07              3430 	push	ar7
   103D 8C 82              3431 	mov	dpl,r4
   103F 8B 83              3432 	mov	dph,r3
   1041 8A F0              3433 	mov	b,r2
   1043 12s00r00           3434 	lcall	_collect_neighbor_update_rtmetric
   1046 15 81              3435 	dec	sp
   1048 15 81              3436 	dec	sp
                           3437 ;	../../core/net/rime/collect.c:799: update_rtmetric(tc);
   104A A8*00              3438 	mov	r0,_bp
   104C 08                 3439 	inc	r0
   104D 86 82              3440 	mov	dpl,@r0
   104F 08                 3441 	inc	r0
   1050 86 83              3442 	mov	dph,@r0
   1052 08                 3443 	inc	r0
   1053 86 F0              3444 	mov	b,@r0
   1055 12s02rA0           3445 	lcall	_update_rtmetric
   1058 D0 02              3446 	pop	ar2
   105A D0 03              3447 	pop	ar3
   105C D0 04              3448 	pop	ar4
   105E                    3449 00104$:
                           3450 ;	../../core/net/rime/collect.c:815: if(msg.flags & ACK_FLAGS_CONGESTED) {
   105E E5*00              3451 	mov	a,_bp
   1060 24 04              3452 	add	a,#0x04
   1062 F9                 3453 	mov	r1,a
   1063 E7                 3454 	mov	a,@r1
   1064 FF                 3455 	mov	r7,a
   1065 30 E7 5E           3456 	jnb	acc.7,00106$
                           3457 ;	../../core/net/rime/collect.c:817: collect_neighbor_set_congested(n);
   1068 8C 82              3458 	mov	dpl,r4
   106A 8B 83              3459 	mov	dph,r3
   106C 8A F0              3460 	mov	b,r2
   106E C0 04              3461 	push	ar4
   1070 C0 03              3462 	push	ar3
   1072 C0 02              3463 	push	ar2
   1074 12s00r00           3464 	lcall	_collect_neighbor_set_congested
   1077 D0 02              3465 	pop	ar2
   1079 D0 03              3466 	pop	ar3
   107B D0 04              3467 	pop	ar4
                           3468 ;	../../core/net/rime/collect.c:818: collect_neighbor_tx(n, tc->max_rexmits * 2);
   107D A8*00              3469 	mov	r0,_bp
   107F 08                 3470 	inc	r0
   1080 74 A5              3471 	mov	a,#0xA5
   1082 26                 3472 	add	a,@r0
   1083 FD                 3473 	mov	r5,a
   1084 E4                 3474 	clr	a
   1085 08                 3475 	inc	r0
   1086 36                 3476 	addc	a,@r0
   1087 FE                 3477 	mov	r6,a
   1088 08                 3478 	inc	r0
   1089 86 07              3479 	mov	ar7,@r0
   108B 8D 82              3480 	mov	dpl,r5
   108D 8E 83              3481 	mov	dph,r6
   108F 8F F0              3482 	mov	b,r7
   1091 12s00r00           3483 	lcall	__gptrget
   1094 75 F0 02           3484 	mov	b,#0x02
   1097 A4                 3485 	mul	ab
   1098 FD                 3486 	mov	r5,a
   1099 AF F0              3487 	mov	r7,b
   109B C0 04              3488 	push	ar4
   109D C0 03              3489 	push	ar3
   109F C0 02              3490 	push	ar2
   10A1 C0 05              3491 	push	ar5
   10A3 C0 07              3492 	push	ar7
   10A5 8C 82              3493 	mov	dpl,r4
   10A7 8B 83              3494 	mov	dph,r3
   10A9 8A F0              3495 	mov	b,r2
   10AB 12s00r00           3496 	lcall	_collect_neighbor_tx
   10AE 15 81              3497 	dec	sp
   10B0 15 81              3498 	dec	sp
                           3499 ;	../../core/net/rime/collect.c:819: update_rtmetric(tc);
   10B2 A8*00              3500 	mov	r0,_bp
   10B4 08                 3501 	inc	r0
   10B5 86 82              3502 	mov	dpl,@r0
   10B7 08                 3503 	inc	r0
   10B8 86 83              3504 	mov	dph,@r0
   10BA 08                 3505 	inc	r0
   10BB 86 F0              3506 	mov	b,@r0
   10BD 12s02rA0           3507 	lcall	_update_rtmetric
   10C0 D0 02              3508 	pop	ar2
   10C2 D0 03              3509 	pop	ar3
   10C4 D0 04              3510 	pop	ar4
   10C6                    3511 00106$:
                           3512 ;	../../core/net/rime/collect.c:821: if((msg.flags & ACK_FLAGS_DROPPED) == 0) {
   10C6 E5*00              3513 	mov	a,_bp
   10C8 24 04              3514 	add	a,#0x04
   10CA F9                 3515 	mov	r1,a
   10CB E7                 3516 	mov	a,@r1
   10CC FF                 3517 	mov	r7,a
   10CD 20 E6 11           3518 	jb	acc.6,00111$
                           3519 ;	../../core/net/rime/collect.c:823: send_next_packet(tc);
   10D0 A8*00              3520 	mov	r0,_bp
   10D2 08                 3521 	inc	r0
   10D3 86 82              3522 	mov	dpl,@r0
   10D5 08                 3523 	inc	r0
   10D6 86 83              3524 	mov	dph,@r0
   10D8 08                 3525 	inc	r0
   10D9 86 F0              3526 	mov	b,@r0
   10DB 12s0DrE3           3527 	lcall	_send_next_packet
   10DE 02s11r97           3528 	ljmp	00112$
   10E1                    3529 00111$:
                           3530 ;	../../core/net/rime/collect.c:828: if((msg.flags & ACK_FLAGS_LIFETIME_EXCEEDED)) {
   10E1 EF                 3531 	mov	a,r7
   10E2 30 E5 11           3532 	jnb	acc.5,00108$
                           3533 ;	../../core/net/rime/collect.c:829: send_next_packet(tc);
   10E5 A8*00              3534 	mov	r0,_bp
   10E7 08                 3535 	inc	r0
   10E8 86 82              3536 	mov	dpl,@r0
   10EA 08                 3537 	inc	r0
   10EB 86 83              3538 	mov	dph,@r0
   10ED 08                 3539 	inc	r0
   10EE 86 F0              3540 	mov	b,@r0
   10F0 12s0DrE3           3541 	lcall	_send_next_packet
   10F3 02s11r97           3542 	ljmp	00112$
   10F6                    3543 00108$:
                           3544 ;	../../core/net/rime/collect.c:835: collect_neighbor_tx(n, tc->max_rexmits);
   10F6 A8*00              3545 	mov	r0,_bp
   10F8 08                 3546 	inc	r0
   10F9 74 A5              3547 	mov	a,#0xA5
   10FB 26                 3548 	add	a,@r0
   10FC FD                 3549 	mov	r5,a
   10FD E4                 3550 	clr	a
   10FE 08                 3551 	inc	r0
   10FF 36                 3552 	addc	a,@r0
   1100 FE                 3553 	mov	r6,a
   1101 08                 3554 	inc	r0
   1102 86 07              3555 	mov	ar7,@r0
   1104 8D 82              3556 	mov	dpl,r5
   1106 8E 83              3557 	mov	dph,r6
   1108 8F F0              3558 	mov	b,r7
   110A 12s00r00           3559 	lcall	__gptrget
   110D FD                 3560 	mov	r5,a
   110E 7F 00              3561 	mov	r7,#0x00
   1110 C0 05              3562 	push	ar5
   1112 C0 07              3563 	push	ar7
   1114 8C 82              3564 	mov	dpl,r4
   1116 8B 83              3565 	mov	dph,r3
   1118 8A F0              3566 	mov	b,r2
   111A 12s00r00           3567 	lcall	_collect_neighbor_tx
   111D 15 81              3568 	dec	sp
   111F 15 81              3569 	dec	sp
                           3570 ;	../../core/net/rime/collect.c:836: update_rtmetric(tc);
   1121 A8*00              3571 	mov	r0,_bp
   1123 08                 3572 	inc	r0
   1124 86 82              3573 	mov	dpl,@r0
   1126 08                 3574 	inc	r0
   1127 86 83              3575 	mov	dph,@r0
   1129 08                 3576 	inc	r0
   112A 86 F0              3577 	mov	b,@r0
   112C 12s02rA0           3578 	lcall	_update_rtmetric
                           3579 ;	../../core/net/rime/collect.c:840: retransmit_callback, tc);
   112F A8*00              3580 	mov	r0,_bp
   1131 08                 3581 	inc	r0
   1132 86 05              3582 	mov	ar5,@r0
   1134 08                 3583 	inc	r0
   1135 86 06              3584 	mov	ar6,@r0
   1137 08                 3585 	inc	r0
   1138 86 07              3586 	mov	ar7,@r0
                           3587 ;	../../core/net/rime/collect.c:839: REXMIT_TIME + (random_rand() % (REXMIT_TIME)),
   113A C0 07              3588 	push	ar7
   113C C0 06              3589 	push	ar6
   113E C0 05              3590 	push	ar5
   1140 12s00r00           3591 	lcall	_random_rand
   1143 E5 82              3592 	mov	a,dpl
   1145 85 83 F0           3593 	mov	b,dph
   1148 D0 05              3594 	pop	ar5
   114A D0 06              3595 	pop	ar6
   114C D0 07              3596 	pop	ar7
   114E FB                 3597 	mov	r3,a
   114F 53 F0 01           3598 	anl	b,#0x01
   1152 AC F0              3599 	mov	r4,b
   1154 E5*00              3600 	mov	a,_bp
   1156 24 08              3601 	add	a,#0x08
   1158 F8                 3602 	mov	r0,a
   1159 A6 03              3603 	mov	@r0,ar3
   115B 74 02              3604 	mov	a,#0x02
   115D 2C                 3605 	add	a,r4
   115E 08                 3606 	inc	r0
   115F F6                 3607 	mov	@r0,a
                           3608 ;	../../core/net/rime/collect.c:838: ctimer_set(&tc->retransmission_timer,
   1160 A8*00              3609 	mov	r0,_bp
   1162 08                 3610 	inc	r0
   1163 74 34              3611 	mov	a,#0x34
   1165 26                 3612 	add	a,@r0
   1166 FA                 3613 	mov	r2,a
   1167 E4                 3614 	clr	a
   1168 08                 3615 	inc	r0
   1169 36                 3616 	addc	a,@r0
   116A FB                 3617 	mov	r3,a
   116B 08                 3618 	inc	r0
   116C 86 04              3619 	mov	ar4,@r0
   116E C0 05              3620 	push	ar5
   1170 C0 06              3621 	push	ar6
   1172 C0 07              3622 	push	ar7
   1174 74r45              3623 	mov	a,#_retransmit_callback
   1176 C0 E0              3624 	push	acc
   1178 74s1E              3625 	mov	a,#(_retransmit_callback >> 8)
   117A C0 E0              3626 	push	acc
   117C E5*00              3627 	mov	a,_bp
   117E 24 08              3628 	add	a,#0x08
   1180 F8                 3629 	mov	r0,a
   1181 E6                 3630 	mov	a,@r0
   1182 C0 E0              3631 	push	acc
   1184 08                 3632 	inc	r0
   1185 E6                 3633 	mov	a,@r0
   1186 C0 E0              3634 	push	acc
   1188 8A 82              3635 	mov	dpl,r2
   118A 8B 83              3636 	mov	dph,r3
   118C 8C F0              3637 	mov	b,r4
   118E 12s00r00           3638 	lcall	_ctimer_set
   1191 E5 81              3639 	mov	a,sp
   1193 24 F9              3640 	add	a,#0xf9
   1195 F5 81              3641 	mov	sp,a
   1197                    3642 00112$:
                           3643 ;	../../core/net/rime/collect.c:846: if(msg.flags & ACK_FLAGS_RTMETRIC_NEEDS_UPDATE) {
   1197 E5*00              3644 	mov	a,_bp
   1199 24 04              3645 	add	a,#0x04
   119B F9                 3646 	mov	r1,a
   119C E7                 3647 	mov	a,@r1
   119D FF                 3648 	mov	r7,a
   119E 30 E4 0E           3649 	jnb	acc.4,00114$
                           3650 ;	../../core/net/rime/collect.c:847: bump_advertisement(tc);
   11A1 A8*00              3651 	mov	r0,_bp
   11A3 08                 3652 	inc	r0
   11A4 86 82              3653 	mov	dpl,@r0
   11A6 08                 3654 	inc	r0
   11A7 86 83              3655 	mov	dph,@r0
   11A9 08                 3656 	inc	r0
   11AA 86 F0              3657 	mov	b,@r0
   11AC 12s00r51           3658 	lcall	_bump_advertisement
   11AF                    3659 00114$:
                           3660 ;	../../core/net/rime/collect.c:849: set_keepalive_timer(tc);
   11AF A8*00              3661 	mov	r0,_bp
   11B1 08                 3662 	inc	r0
   11B2 86 82              3663 	mov	dpl,@r0
   11B4 08                 3664 	inc	r0
   11B5 86 83              3665 	mov	dph,@r0
   11B7 08                 3666 	inc	r0
   11B8 86 F0              3667 	mov	b,@r0
   11BA 12s23rC1           3668 	lcall	_set_keepalive_timer
   11BD 80 29              3669 	sjmp	00119$
   11BF                    3670 00116$:
                           3671 ;	../../core/net/rime/collect.c:851: stats.badack++;
   11BF 90s01r49           3672 	mov	dptr,#(_stats + 0x001c)
   11C2 E0                 3673 	movx	a,@dptr
   11C3 FC                 3674 	mov	r4,a
   11C4 A3                 3675 	inc	dptr
   11C5 E0                 3676 	movx	a,@dptr
   11C6 FD                 3677 	mov	r5,a
   11C7 A3                 3678 	inc	dptr
   11C8 E0                 3679 	movx	a,@dptr
   11C9 FE                 3680 	mov	r6,a
   11CA A3                 3681 	inc	dptr
   11CB E0                 3682 	movx	a,@dptr
   11CC FF                 3683 	mov	r7,a
   11CD 0C                 3684 	inc	r4
   11CE BC 00 09           3685 	cjne	r4,#0x00,00147$
   11D1 0D                 3686 	inc	r5
   11D2 BD 00 05           3687 	cjne	r5,#0x00,00147$
   11D5 0E                 3688 	inc	r6
   11D6 BE 00 01           3689 	cjne	r6,#0x00,00147$
   11D9 0F                 3690 	inc	r7
   11DA                    3691 00147$:
   11DA 90s01r49           3692 	mov	dptr,#(_stats + 0x001c)
   11DD EC                 3693 	mov	a,r4
   11DE F0                 3694 	movx	@dptr,a
   11DF A3                 3695 	inc	dptr
   11E0 ED                 3696 	mov	a,r5
   11E1 F0                 3697 	movx	@dptr,a
   11E2 A3                 3698 	inc	dptr
   11E3 EE                 3699 	mov	a,r6
   11E4 F0                 3700 	movx	@dptr,a
   11E5 A3                 3701 	inc	dptr
   11E6 EF                 3702 	mov	a,r7
   11E7 F0                 3703 	movx	@dptr,a
   11E8                    3704 00119$:
   11E8 85*00 81           3705 	mov	sp,_bp
   11EB D0*00              3706 	pop	_bp
   11ED 22                 3707 	ret
                           3708 ;------------------------------------------------------------
                           3709 ;Allocation info for local variables in function 'send_ack'
                           3710 ;------------------------------------------------------------
                           3711 ;to                        Allocated to stack - _bp -5
                           3712 ;flags                     Allocated to stack - _bp -7
                           3713 ;tc                        Allocated to stack - _bp +1
                           3714 ;ack                       Allocated to stack - _bp +4
                           3715 ;packet_seqno              Allocated to stack - _bp +7
                           3716 ;------------------------------------------------------------
                           3717 ;	../../core/net/rime/collect.c:856: send_ack(struct collect_conn *tc, const rimeaddr_t *to, int flags)
                           3718 ;	-----------------------------------------
                           3719 ;	 function send_ack
                           3720 ;	-----------------------------------------
   11EE                    3721 _send_ack:
   11EE C0*00              3722 	push	_bp
   11F0 85 81*00           3723 	mov	_bp,sp
   11F3 C0 82              3724 	push	dpl
   11F5 C0 83              3725 	push	dph
   11F7 C0 F0              3726 	push	b
   11F9 E5 81              3727 	mov	a,sp
   11FB 24 05              3728 	add	a,#0x05
   11FD F5 81              3729 	mov	sp,a
                           3730 ;	../../core/net/rime/collect.c:859: uint16_t packet_seqno = packetbuf_attr(PACKETBUF_ATTR_PACKET_ID);
   11FF 75 82 0D           3731 	mov	dpl,#0x0D
   1202 12s00r00           3732 	lcall	_packetbuf_attr
   1205 C8                 3733 	xch	a,r0
   1206 E5*00              3734 	mov	a,_bp
   1208 24 07              3735 	add	a,#0x07
   120A C8                 3736 	xch	a,r0
   120B A6 82              3737 	mov	@r0,dpl
   120D 08                 3738 	inc	r0
   120E A6 83              3739 	mov	@r0,dph
                           3740 ;	../../core/net/rime/collect.c:861: packetbuf_clear();
   1210 12s00r00           3741 	lcall	_packetbuf_clear
                           3742 ;	../../core/net/rime/collect.c:862: packetbuf_set_datalen(sizeof(struct ack_msg));
   1213 90 00 04           3743 	mov	dptr,#0x0004
   1216 12s00r00           3744 	lcall	_packetbuf_set_datalen
                           3745 ;	../../core/net/rime/collect.c:863: ack = packetbuf_dataptr();
   1219 12s00r00           3746 	lcall	_packetbuf_dataptr
   121C AA 82              3747 	mov	r2,dpl
   121E AB 83              3748 	mov	r3,dph
   1220 AC F0              3749 	mov	r4,b
   1222 E5*00              3750 	mov	a,_bp
   1224 24 04              3751 	add	a,#0x04
   1226 F8                 3752 	mov	r0,a
   1227 A6 02              3753 	mov	@r0,ar2
   1229 08                 3754 	inc	r0
   122A A6 03              3755 	mov	@r0,ar3
   122C 08                 3756 	inc	r0
   122D A6 04              3757 	mov	@r0,ar4
                           3758 ;	../../core/net/rime/collect.c:864: memset(ack, 0, sizeof(struct ack_msg));
   122F E5*00              3759 	mov	a,_bp
   1231 24 04              3760 	add	a,#0x04
   1233 F8                 3761 	mov	r0,a
   1234 86 05              3762 	mov	ar5,@r0
   1236 08                 3763 	inc	r0
   1237 86 06              3764 	mov	ar6,@r0
   1239 08                 3765 	inc	r0
   123A 86 07              3766 	mov	ar7,@r0
   123C 74 04              3767 	mov	a,#0x04
   123E C0 E0              3768 	push	acc
   1240 E4                 3769 	clr	a
   1241 C0 E0              3770 	push	acc
   1243 E4                 3771 	clr	a
   1244 C0 E0              3772 	push	acc
   1246 8D 82              3773 	mov	dpl,r5
   1248 8E 83              3774 	mov	dph,r6
   124A 8F F0              3775 	mov	b,r7
   124C 12s00r00           3776 	lcall	_memset
   124F 15 81              3777 	dec	sp
   1251 15 81              3778 	dec	sp
   1253 15 81              3779 	dec	sp
                           3780 ;	../../core/net/rime/collect.c:865: ack->rtmetric = tc->rtmetric;
   1255 E5*00              3781 	mov	a,_bp
   1257 24 04              3782 	add	a,#0x04
   1259 F8                 3783 	mov	r0,a
   125A 74 02              3784 	mov	a,#0x02
   125C 26                 3785 	add	a,@r0
   125D FD                 3786 	mov	r5,a
   125E E4                 3787 	clr	a
   125F 08                 3788 	inc	r0
   1260 36                 3789 	addc	a,@r0
   1261 FE                 3790 	mov	r6,a
   1262 08                 3791 	inc	r0
   1263 86 07              3792 	mov	ar7,@r0
   1265 A8*00              3793 	mov	r0,_bp
   1267 08                 3794 	inc	r0
   1268 74 A0              3795 	mov	a,#0xA0
   126A 26                 3796 	add	a,@r0
   126B FA                 3797 	mov	r2,a
   126C E4                 3798 	clr	a
   126D 08                 3799 	inc	r0
   126E 36                 3800 	addc	a,@r0
   126F FB                 3801 	mov	r3,a
   1270 08                 3802 	inc	r0
   1271 86 04              3803 	mov	ar4,@r0
   1273 8A 82              3804 	mov	dpl,r2
   1275 8B 83              3805 	mov	dph,r3
   1277 8C F0              3806 	mov	b,r4
   1279 12s00r00           3807 	lcall	__gptrget
   127C FA                 3808 	mov	r2,a
   127D A3                 3809 	inc	dptr
   127E 12s00r00           3810 	lcall	__gptrget
   1281 FB                 3811 	mov	r3,a
   1282 8D 82              3812 	mov	dpl,r5
   1284 8E 83              3813 	mov	dph,r6
   1286 8F F0              3814 	mov	b,r7
   1288 EA                 3815 	mov	a,r2
   1289 12s00r00           3816 	lcall	__gptrput
   128C A3                 3817 	inc	dptr
   128D EB                 3818 	mov	a,r3
   128E 12s00r00           3819 	lcall	__gptrput
                           3820 ;	../../core/net/rime/collect.c:866: ack->flags = flags;
   1291 E5*00              3821 	mov	a,_bp
   1293 24 F9              3822 	add	a,#0xf9
   1295 F8                 3823 	mov	r0,a
   1296 86 07              3824 	mov	ar7,@r0
   1298 E5*00              3825 	mov	a,_bp
   129A 24 04              3826 	add	a,#0x04
   129C F8                 3827 	mov	r0,a
   129D 86 82              3828 	mov	dpl,@r0
   129F 08                 3829 	inc	r0
   12A0 86 83              3830 	mov	dph,@r0
   12A2 08                 3831 	inc	r0
   12A3 86 F0              3832 	mov	b,@r0
   12A5 EF                 3833 	mov	a,r7
   12A6 12s00r00           3834 	lcall	__gptrput
                           3835 ;	../../core/net/rime/collect.c:868: packetbuf_set_addr(PACKETBUF_ADDR_RECEIVER, to);
   12A9 E5*00              3836 	mov	a,_bp
   12AB 24 FB              3837 	add	a,#0xfb
   12AD F8                 3838 	mov	r0,a
   12AE E6                 3839 	mov	a,@r0
   12AF C0 E0              3840 	push	acc
   12B1 08                 3841 	inc	r0
   12B2 E6                 3842 	mov	a,@r0
   12B3 C0 E0              3843 	push	acc
   12B5 08                 3844 	inc	r0
   12B6 E6                 3845 	mov	a,@r0
   12B7 C0 E0              3846 	push	acc
   12B9 75 82 19           3847 	mov	dpl,#0x19
   12BC 12s00r00           3848 	lcall	_packetbuf_set_addr
   12BF 15 81              3849 	dec	sp
   12C1 15 81              3850 	dec	sp
   12C3 15 81              3851 	dec	sp
                           3852 ;	../../core/net/rime/collect.c:869: packetbuf_set_attr(PACKETBUF_ATTR_PACKET_TYPE, PACKETBUF_ATTR_PACKET_TYPE_ACK);
   12C5 74 01              3853 	mov	a,#0x01
   12C7 C0 E0              3854 	push	acc
   12C9 E4                 3855 	clr	a
   12CA C0 E0              3856 	push	acc
   12CC 75 82 0E           3857 	mov	dpl,#0x0E
   12CF 12s00r00           3858 	lcall	_packetbuf_set_attr
   12D2 15 81              3859 	dec	sp
   12D4 15 81              3860 	dec	sp
                           3861 ;	../../core/net/rime/collect.c:870: packetbuf_set_attr(PACKETBUF_ATTR_RELIABLE, 0);
   12D6 E4                 3862 	clr	a
   12D7 C0 E0              3863 	push	acc
   12D9 C0 E0              3864 	push	acc
   12DB 75 82 0C           3865 	mov	dpl,#0x0C
   12DE 12s00r00           3866 	lcall	_packetbuf_set_attr
   12E1 15 81              3867 	dec	sp
   12E3 15 81              3868 	dec	sp
                           3869 ;	../../core/net/rime/collect.c:871: packetbuf_set_attr(PACKETBUF_ATTR_ERELIABLE, 0);
   12E5 E4                 3870 	clr	a
   12E6 C0 E0              3871 	push	acc
   12E8 C0 E0              3872 	push	acc
   12EA 75 82 17           3873 	mov	dpl,#0x17
   12ED 12s00r00           3874 	lcall	_packetbuf_set_attr
   12F0 15 81              3875 	dec	sp
   12F2 15 81              3876 	dec	sp
                           3877 ;	../../core/net/rime/collect.c:872: packetbuf_set_attr(PACKETBUF_ATTR_PACKET_ID, packet_seqno);
   12F4 E5*00              3878 	mov	a,_bp
   12F6 24 07              3879 	add	a,#0x07
   12F8 F8                 3880 	mov	r0,a
   12F9 E6                 3881 	mov	a,@r0
   12FA C0 E0              3882 	push	acc
   12FC 08                 3883 	inc	r0
   12FD E6                 3884 	mov	a,@r0
   12FE C0 E0              3885 	push	acc
   1300 75 82 0D           3886 	mov	dpl,#0x0D
   1303 12s00r00           3887 	lcall	_packetbuf_set_attr
   1306 15 81              3888 	dec	sp
   1308 15 81              3889 	dec	sp
                           3890 ;	../../core/net/rime/collect.c:873: packetbuf_set_attr(PACKETBUF_ATTR_MAX_MAC_TRANSMISSIONS, MAX_ACK_MAC_REXMITS);
   130A 74 05              3891 	mov	a,#0x05
   130C C0 E0              3892 	push	acc
   130E E4                 3893 	clr	a
   130F C0 E0              3894 	push	acc
   1311 75 82 09           3895 	mov	dpl,#0x09
   1314 12s00r00           3896 	lcall	_packetbuf_set_attr
   1317 15 81              3897 	dec	sp
   1319 15 81              3898 	dec	sp
                           3899 ;	../../core/net/rime/collect.c:874: unicast_send(&tc->unicast_conn, to);
   131B E5*00              3900 	mov	a,_bp
   131D 24 FB              3901 	add	a,#0xfb
   131F F8                 3902 	mov	r0,a
   1320 E6                 3903 	mov	a,@r0
   1321 C0 E0              3904 	push	acc
   1323 08                 3905 	inc	r0
   1324 E6                 3906 	mov	a,@r0
   1325 C0 E0              3907 	push	acc
   1327 08                 3908 	inc	r0
   1328 E6                 3909 	mov	a,@r0
   1329 C0 E0              3910 	push	acc
   132B A8*00              3911 	mov	r0,_bp
   132D 08                 3912 	inc	r0
   132E 86 82              3913 	mov	dpl,@r0
   1330 08                 3914 	inc	r0
   1331 86 83              3915 	mov	dph,@r0
   1333 08                 3916 	inc	r0
   1334 86 F0              3917 	mov	b,@r0
   1336 12s00r00           3918 	lcall	_unicast_send
   1339 15 81              3919 	dec	sp
   133B 15 81              3920 	dec	sp
   133D 15 81              3921 	dec	sp
                           3922 ;	../../core/net/rime/collect.c:881: RIMESTATS_ADD(acktx);
   133F 90s00r14           3923 	mov	dptr,#(_rimestats + 0x0014)
   1342 E0                 3924 	movx	a,@dptr
   1343 FC                 3925 	mov	r4,a
   1344 A3                 3926 	inc	dptr
   1345 E0                 3927 	movx	a,@dptr
   1346 FD                 3928 	mov	r5,a
   1347 A3                 3929 	inc	dptr
   1348 E0                 3930 	movx	a,@dptr
   1349 FE                 3931 	mov	r6,a
   134A A3                 3932 	inc	dptr
   134B E0                 3933 	movx	a,@dptr
   134C FF                 3934 	mov	r7,a
   134D 0C                 3935 	inc	r4
   134E BC 00 09           3936 	cjne	r4,#0x00,00103$
   1351 0D                 3937 	inc	r5
   1352 BD 00 05           3938 	cjne	r5,#0x00,00103$
   1355 0E                 3939 	inc	r6
   1356 BE 00 01           3940 	cjne	r6,#0x00,00103$
   1359 0F                 3941 	inc	r7
   135A                    3942 00103$:
   135A 90s00r14           3943 	mov	dptr,#(_rimestats + 0x0014)
   135D EC                 3944 	mov	a,r4
   135E F0                 3945 	movx	@dptr,a
   135F A3                 3946 	inc	dptr
   1360 ED                 3947 	mov	a,r5
   1361 F0                 3948 	movx	@dptr,a
   1362 A3                 3949 	inc	dptr
   1363 EE                 3950 	mov	a,r6
   1364 F0                 3951 	movx	@dptr,a
   1365 A3                 3952 	inc	dptr
   1366 EF                 3953 	mov	a,r7
   1367 F0                 3954 	movx	@dptr,a
                           3955 ;	../../core/net/rime/collect.c:882: stats.acksent++;
   1368 90s01r39           3956 	mov	dptr,#(_stats + 0x000c)
   136B E0                 3957 	movx	a,@dptr
   136C FC                 3958 	mov	r4,a
   136D A3                 3959 	inc	dptr
   136E E0                 3960 	movx	a,@dptr
   136F FD                 3961 	mov	r5,a
   1370 A3                 3962 	inc	dptr
   1371 E0                 3963 	movx	a,@dptr
   1372 FE                 3964 	mov	r6,a
   1373 A3                 3965 	inc	dptr
   1374 E0                 3966 	movx	a,@dptr
   1375 FF                 3967 	mov	r7,a
   1376 0C                 3968 	inc	r4
   1377 BC 00 09           3969 	cjne	r4,#0x00,00104$
   137A 0D                 3970 	inc	r5
   137B BD 00 05           3971 	cjne	r5,#0x00,00104$
   137E 0E                 3972 	inc	r6
   137F BE 00 01           3973 	cjne	r6,#0x00,00104$
   1382 0F                 3974 	inc	r7
   1383                    3975 00104$:
   1383 90s01r39           3976 	mov	dptr,#(_stats + 0x000c)
   1386 EC                 3977 	mov	a,r4
   1387 F0                 3978 	movx	@dptr,a
   1388 A3                 3979 	inc	dptr
   1389 ED                 3980 	mov	a,r5
   138A F0                 3981 	movx	@dptr,a
   138B A3                 3982 	inc	dptr
   138C EE                 3983 	mov	a,r6
   138D F0                 3984 	movx	@dptr,a
   138E A3                 3985 	inc	dptr
   138F EF                 3986 	mov	a,r7
   1390 F0                 3987 	movx	@dptr,a
   1391 85*00 81           3988 	mov	sp,_bp
   1394 D0*00              3989 	pop	_bp
   1396 22                 3990 	ret
                           3991 ;------------------------------------------------------------
                           3992 ;Allocation info for local variables in function 'add_packet_to_recent_packets'
                           3993 ;------------------------------------------------------------
                           3994 ;tc                        Allocated to stack - _bp +1
                           3995 ;sloc0                     Allocated to stack - _bp +4
                           3996 ;sloc1                     Allocated to stack - _bp +6
                           3997 ;sloc2                     Allocated to stack - _bp +7
                           3998 ;sloc3                     Allocated to stack - _bp +8
                           3999 ;sloc4                     Allocated to stack - _bp +10
                           4000 ;sloc5                     Allocated to stack - _bp +12
                           4001 ;------------------------------------------------------------
                           4002 ;	../../core/net/rime/collect.c:886: add_packet_to_recent_packets(struct collect_conn *tc)
                           4003 ;	-----------------------------------------
                           4004 ;	 function add_packet_to_recent_packets
                           4005 ;	-----------------------------------------
   1397                    4006 _add_packet_to_recent_packets:
   1397 C0*00              4007 	push	_bp
   1399 85 81*00           4008 	mov	_bp,sp
   139C C0 82              4009 	push	dpl
   139E C0 83              4010 	push	dph
   13A0 C0 F0              4011 	push	b
                           4012 ;	../../core/net/rime/collect.c:892: if(packetbuf_datalen() > sizeof(struct data_msg_hdr)) {
   13A2 12s00r00           4013 	lcall	_packetbuf_datalen
   13A5 AB 82              4014 	mov	r3,dpl
   13A7 AC 83              4015 	mov	r4,dph
   13A9 C3                 4016 	clr	c
   13AA 74 04              4017 	mov	a,#0x04
   13AC 9B                 4018 	subb	a,r3
   13AD E4                 4019 	clr	a
   13AE 9C                 4020 	subb	a,r4
   13AF 40 03              4021 	jc	00107$
   13B1 02s14r5A           4022 	ljmp	00103$
   13B4                    4023 00107$:
                           4024 ;	../../core/net/rime/collect.c:893: recent_packets[recent_packet_ptr].eseqno =
   13B4 90s00r60           4025 	mov	dptr,#_recent_packet_ptr
   13B7 E0                 4026 	movx	a,@dptr
   13B8 75 F0 06           4027 	mov	b,#0x06
   13BB A4                 4028 	mul	ab
   13BC 24r00              4029 	add	a,#_recent_packets
   13BE FB                 4030 	mov	r3,a
   13BF E4                 4031 	clr	a
   13C0 34s00              4032 	addc	a,#(_recent_packets >> 8)
   13C2 FC                 4033 	mov	r4,a
   13C3 74 05              4034 	mov	a,#0x05
   13C5 2B                 4035 	add	a,r3
   13C6 FB                 4036 	mov	r3,a
   13C7 E4                 4037 	clr	a
   13C8 3C                 4038 	addc	a,r4
   13C9 FC                 4039 	mov	r4,a
                           4040 ;	../../core/net/rime/collect.c:894: packetbuf_attr(PACKETBUF_ATTR_EPACKET_ID);
   13CA 75 82 15           4041 	mov	dpl,#0x15
   13CD C0 04              4042 	push	ar4
   13CF C0 03              4043 	push	ar3
   13D1 12s00r00           4044 	lcall	_packetbuf_attr
   13D4 AF 82              4045 	mov	r7,dpl
   13D6 D0 03              4046 	pop	ar3
   13D8 D0 04              4047 	pop	ar4
   13DA 8B 82              4048 	mov	dpl,r3
   13DC 8C 83              4049 	mov	dph,r4
   13DE EF                 4050 	mov	a,r7
   13DF F0                 4051 	movx	@dptr,a
                           4052 ;	../../core/net/rime/collect.c:896: packetbuf_addr(PACKETBUF_ADDR_ESENDER));
   13E0 75 82 1A           4053 	mov	dpl,#0x1A
   13E3 12s00r00           4054 	lcall	_packetbuf_addr
   13E6 AA 82              4055 	mov	r2,dpl
   13E8 AB 83              4056 	mov	r3,dph
   13EA AC F0              4057 	mov	r4,b
                           4058 ;	../../core/net/rime/collect.c:895: rimeaddr_copy(&recent_packets[recent_packet_ptr].originator,
   13EC 90s00r60           4059 	mov	dptr,#_recent_packet_ptr
   13EF E0                 4060 	movx	a,@dptr
   13F0 75 F0 06           4061 	mov	b,#0x06
   13F3 A4                 4062 	mul	ab
   13F4 24r00              4063 	add	a,#_recent_packets
   13F6 FF                 4064 	mov	r7,a
   13F7 E4                 4065 	clr	a
   13F8 34s00              4066 	addc	a,#(_recent_packets >> 8)
   13FA FE                 4067 	mov	r6,a
   13FB 74 03              4068 	mov	a,#0x03
   13FD 2F                 4069 	add	a,r7
   13FE FF                 4070 	mov	r7,a
   13FF E4                 4071 	clr	a
   1400 3E                 4072 	addc	a,r6
   1401 FE                 4073 	mov	r6,a
   1402 7D 00              4074 	mov	r5,#0x00
   1404 C0 02              4075 	push	ar2
   1406 C0 03              4076 	push	ar3
   1408 C0 04              4077 	push	ar4
   140A 8F 82              4078 	mov	dpl,r7
   140C 8E 83              4079 	mov	dph,r6
   140E 8D F0              4080 	mov	b,r5
   1410 12s00r00           4081 	lcall	_rimeaddr_copy
   1413 15 81              4082 	dec	sp
   1415 15 81              4083 	dec	sp
   1417 15 81              4084 	dec	sp
                           4085 ;	../../core/net/rime/collect.c:897: recent_packets[recent_packet_ptr].conn = tc;
   1419 90s00r60           4086 	mov	dptr,#_recent_packet_ptr
   141C E0                 4087 	movx	a,@dptr
   141D FE                 4088 	mov	r6,a
   141E 75 F0 06           4089 	mov	b,#0x06
   1421 A4                 4090 	mul	ab
   1422 24r00              4091 	add	a,#_recent_packets
   1424 F5 82              4092 	mov	dpl,a
   1426 E4                 4093 	clr	a
   1427 34s00              4094 	addc	a,#(_recent_packets >> 8)
   1429 F5 83              4095 	mov	dph,a
   142B A8*00              4096 	mov	r0,_bp
   142D 08                 4097 	inc	r0
   142E E6                 4098 	mov	a,@r0
   142F F0                 4099 	movx	@dptr,a
   1430 A3                 4100 	inc	dptr
   1431 08                 4101 	inc	r0
   1432 E6                 4102 	mov	a,@r0
   1433 F0                 4103 	movx	@dptr,a
   1434 A3                 4104 	inc	dptr
   1435 08                 4105 	inc	r0
   1436 E6                 4106 	mov	a,@r0
   1437 F0                 4107 	movx	@dptr,a
                           4108 ;	../../core/net/rime/collect.c:898: recent_packet_ptr = (recent_packet_ptr + 1) % NUM_RECENT_PACKETS;
   1438 7D 00              4109 	mov	r5,#0x00
   143A 0E                 4110 	inc	r6
   143B BE 00 01           4111 	cjne	r6,#0x00,00108$
   143E 0D                 4112 	inc	r5
   143F                    4113 00108$:
   143F 74 10              4114 	mov	a,#0x10
   1441 C0 E0              4115 	push	acc
   1443 E4                 4116 	clr	a
   1444 C0 E0              4117 	push	acc
   1446 8E 82              4118 	mov	dpl,r6
   1448 8D 83              4119 	mov	dph,r5
   144A 12s00r00           4120 	lcall	__modsint
   144D AD 82              4121 	mov	r5,dpl
   144F AE 83              4122 	mov	r6,dph
   1451 15 81              4123 	dec	sp
   1453 15 81              4124 	dec	sp
   1455 90s00r60           4125 	mov	dptr,#_recent_packet_ptr
   1458 ED                 4126 	mov	a,r5
   1459 F0                 4127 	movx	@dptr,a
   145A                    4128 00103$:
   145A 85*00 81           4129 	mov	sp,_bp
   145D D0*00              4130 	pop	_bp
   145F 22                 4131 	ret
                           4132 ;------------------------------------------------------------
                           4133 ;Allocation info for local variables in function 'node_packet_received'
                           4134 ;------------------------------------------------------------
                           4135 ;from                      Allocated to stack - _bp -5
                           4136 ;c                         Allocated to registers r5 r6 r7 
                           4137 ;tc                        Allocated to stack - _bp +1
                           4138 ;i                         Allocated to registers r6 r7 
                           4139 ;hdr                       Allocated to stack - _bp +4
                           4140 ;ackflags                  Allocated to stack - _bp +8
                           4141 ;n                         Allocated to registers r5 r6 r7 
                           4142 ;ack_to                    Allocated to stack - _bp +9
                           4143 ;packet_seqno              Allocated to registers 
                           4144 ;q                         Allocated to registers r7 r6 r5 
                           4145 ;sloc0                     Allocated to stack - _bp +11
                           4146 ;sloc1                     Allocated to stack - _bp +14
                           4147 ;sloc2                     Allocated to stack - _bp +17
                           4148 ;------------------------------------------------------------
                           4149 ;	../../core/net/rime/collect.c:903: node_packet_received(struct unicast_conn *c, const rimeaddr_t *from)
                           4150 ;	-----------------------------------------
                           4151 ;	 function node_packet_received
                           4152 ;	-----------------------------------------
   1460                    4153 _node_packet_received:
   1460 C0*00              4154 	push	_bp
   1462 E5 81              4155 	mov	a,sp
   1464 F5*00              4156 	mov	_bp,a
   1466 24 14              4157 	add	a,#0x14
   1468 F5 81              4158 	mov	sp,a
   146A AD 82              4159 	mov	r5,dpl
   146C AE 83              4160 	mov	r6,dph
   146E AF F0              4161 	mov	r7,b
                           4162 ;	../../core/net/rime/collect.c:905: struct collect_conn *tc = (struct collect_conn *)
   1470 A8*00              4163 	mov	r0,_bp
   1472 08                 4164 	inc	r0
   1473 A6 05              4165 	mov	@r0,ar5
   1475 08                 4166 	inc	r0
   1476 A6 06              4167 	mov	@r0,ar6
   1478 08                 4168 	inc	r0
   1479 A6 07              4169 	mov	@r0,ar7
                           4170 ;	../../core/net/rime/collect.c:909: uint8_t ackflags = 0;
   147B E5*00              4171 	mov	a,_bp
   147D 24 08              4172 	add	a,#0x08
   147F F8                 4173 	mov	r0,a
   1480 76 00              4174 	mov	@r0,#0x00
                           4175 ;	../../core/net/rime/collect.c:912: memcpy(&hdr, packetbuf_dataptr(), sizeof(struct data_msg_hdr));
   1482 12s00r00           4176 	lcall	_packetbuf_dataptr
   1485 AA 82              4177 	mov	r2,dpl
   1487 AB 83              4178 	mov	r3,dph
   1489 AC F0              4179 	mov	r4,b
   148B E5*00              4180 	mov	a,_bp
   148D 24 04              4181 	add	a,#0x04
   148F FF                 4182 	mov	r7,a
   1490 7E 00              4183 	mov	r6,#0x00
   1492 7D 40              4184 	mov	r5,#0x40
   1494 74 04              4185 	mov	a,#0x04
   1496 C0 E0              4186 	push	acc
   1498 E4                 4187 	clr	a
   1499 C0 E0              4188 	push	acc
   149B C0 02              4189 	push	ar2
   149D C0 03              4190 	push	ar3
   149F C0 04              4191 	push	ar4
   14A1 8F 82              4192 	mov	dpl,r7
   14A3 8E 83              4193 	mov	dph,r6
   14A5 8D F0              4194 	mov	b,r5
   14A7 12s00r00           4195 	lcall	_memcpy
   14AA E5 81              4196 	mov	a,sp
   14AC 24 FB              4197 	add	a,#0xfb
   14AE F5 81              4198 	mov	sp,a
                           4199 ;	../../core/net/rime/collect.c:919: packetbuf_addr(PACKETBUF_ADDR_SENDER));
   14B0 75 82 18           4200 	mov	dpl,#0x18
   14B3 12s00r00           4201 	lcall	_packetbuf_addr
   14B6 AD 82              4202 	mov	r5,dpl
   14B8 AE 83              4203 	mov	r6,dph
   14BA AF F0              4204 	mov	r7,b
                           4205 ;	../../core/net/rime/collect.c:918: n = collect_neighbor_list_find(&tc->neighbor_list,
   14BC A8*00              4206 	mov	r0,_bp
   14BE 08                 4207 	inc	r0
   14BF 74 55              4208 	mov	a,#0x55
   14C1 26                 4209 	add	a,@r0
   14C2 FA                 4210 	mov	r2,a
   14C3 E4                 4211 	clr	a
   14C4 08                 4212 	inc	r0
   14C5 36                 4213 	addc	a,@r0
   14C6 FB                 4214 	mov	r3,a
   14C7 08                 4215 	inc	r0
   14C8 86 04              4216 	mov	ar4,@r0
   14CA C0 05              4217 	push	ar5
   14CC C0 06              4218 	push	ar6
   14CE C0 07              4219 	push	ar7
   14D0 8A 82              4220 	mov	dpl,r2
   14D2 8B 83              4221 	mov	dph,r3
   14D4 8C F0              4222 	mov	b,r4
   14D6 12s00r00           4223 	lcall	_collect_neighbor_list_find
   14D9 AD 82              4224 	mov	r5,dpl
   14DB AE 83              4225 	mov	r6,dph
   14DD AF F0              4226 	mov	r7,b
   14DF 15 81              4227 	dec	sp
   14E1 15 81              4228 	dec	sp
   14E3 15 81              4229 	dec	sp
                           4230 ;	../../core/net/rime/collect.c:920: if(n != NULL) {
   14E5 ED                 4231 	mov	a,r5
   14E6 4E                 4232 	orl	a,r6
   14E7 60 2B              4233 	jz	00102$
                           4234 ;	../../core/net/rime/collect.c:921: collect_neighbor_update_rtmetric(n, hdr.rtmetric);
   14E9 E5*00              4235 	mov	a,_bp
   14EB 24 04              4236 	add	a,#0x04
   14ED 24 02              4237 	add	a,#0x02
   14EF F9                 4238 	mov	r1,a
   14F0 87 03              4239 	mov	ar3,@r1
   14F2 09                 4240 	inc	r1
   14F3 87 04              4241 	mov	ar4,@r1
   14F5 C0 03              4242 	push	ar3
   14F7 C0 04              4243 	push	ar4
   14F9 8D 82              4244 	mov	dpl,r5
   14FB 8E 83              4245 	mov	dph,r6
   14FD 8F F0              4246 	mov	b,r7
   14FF 12s00r00           4247 	lcall	_collect_neighbor_update_rtmetric
   1502 15 81              4248 	dec	sp
   1504 15 81              4249 	dec	sp
                           4250 ;	../../core/net/rime/collect.c:922: update_rtmetric(tc);
   1506 A8*00              4251 	mov	r0,_bp
   1508 08                 4252 	inc	r0
   1509 86 82              4253 	mov	dpl,@r0
   150B 08                 4254 	inc	r0
   150C 86 83              4255 	mov	dph,@r0
   150E 08                 4256 	inc	r0
   150F 86 F0              4257 	mov	b,@r0
   1511 12s02rA0           4258 	lcall	_update_rtmetric
   1514                    4259 00102$:
                           4260 ;	../../core/net/rime/collect.c:929: if(packetbuf_attr(PACKETBUF_ATTR_PACKET_TYPE) ==
   1514 75 82 0E           4261 	mov	dpl,#0x0E
   1517 12s00r00           4262 	lcall	_packetbuf_attr
   151A E5 82              4263 	mov	a,dpl
   151C 85 83 F0           4264 	mov	b,dph
   151F 45 F0              4265 	orl	a,b
   1521 60 03              4266 	jz	00182$
   1523 02s1ArCC           4267 	ljmp	00135$
   1526                    4268 00182$:
                           4269 ;	../../core/net/rime/collect.c:934: stats.datarecv++;
   1526 90s01r41           4270 	mov	dptr,#(_stats + 0x0014)
   1529 E0                 4271 	movx	a,@dptr
   152A FC                 4272 	mov	r4,a
   152B A3                 4273 	inc	dptr
   152C E0                 4274 	movx	a,@dptr
   152D FD                 4275 	mov	r5,a
   152E A3                 4276 	inc	dptr
   152F E0                 4277 	movx	a,@dptr
   1530 FE                 4278 	mov	r6,a
   1531 A3                 4279 	inc	dptr
   1532 E0                 4280 	movx	a,@dptr
   1533 FF                 4281 	mov	r7,a
   1534 0C                 4282 	inc	r4
   1535 BC 00 09           4283 	cjne	r4,#0x00,00183$
   1538 0D                 4284 	inc	r5
   1539 BD 00 05           4285 	cjne	r5,#0x00,00183$
   153C 0E                 4286 	inc	r6
   153D BE 00 01           4287 	cjne	r6,#0x00,00183$
   1540 0F                 4288 	inc	r7
   1541                    4289 00183$:
   1541 90s01r41           4290 	mov	dptr,#(_stats + 0x0014)
   1544 EC                 4291 	mov	a,r4
   1545 F0                 4292 	movx	@dptr,a
   1546 A3                 4293 	inc	dptr
   1547 ED                 4294 	mov	a,r5
   1548 F0                 4295 	movx	@dptr,a
   1549 A3                 4296 	inc	dptr
   154A EE                 4297 	mov	a,r6
   154B F0                 4298 	movx	@dptr,a
   154C A3                 4299 	inc	dptr
   154D EF                 4300 	mov	a,r7
   154E F0                 4301 	movx	@dptr,a
                           4302 ;	../../core/net/rime/collect.c:938: rimeaddr_copy(&ack_to, packetbuf_addr(PACKETBUF_ADDR_SENDER));
   154F 75 82 18           4303 	mov	dpl,#0x18
   1552 12s00r00           4304 	lcall	_packetbuf_addr
   1555 AD 82              4305 	mov	r5,dpl
   1557 AE 83              4306 	mov	r6,dph
   1559 AF F0              4307 	mov	r7,b
   155B E5*00              4308 	mov	a,_bp
   155D 24 09              4309 	add	a,#0x09
   155F FC                 4310 	mov	r4,a
   1560 7B 00              4311 	mov	r3,#0x00
   1562 7A 40              4312 	mov	r2,#0x40
   1564 C0 05              4313 	push	ar5
   1566 C0 06              4314 	push	ar6
   1568 C0 07              4315 	push	ar7
   156A 8C 82              4316 	mov	dpl,r4
   156C 8B 83              4317 	mov	dph,r3
   156E 8A F0              4318 	mov	b,r2
   1570 12s00r00           4319 	lcall	_rimeaddr_copy
   1573 15 81              4320 	dec	sp
   1575 15 81              4321 	dec	sp
   1577 15 81              4322 	dec	sp
                           4323 ;	../../core/net/rime/collect.c:939: packet_seqno = packetbuf_attr(PACKETBUF_ATTR_PACKET_ID);
   1579 75 82 0D           4324 	mov	dpl,#0x0D
   157C 12s00r00           4325 	lcall	_packetbuf_attr
                           4326 ;	../../core/net/rime/collect.c:946: if(packetqueue_len(&tc->send_queue) >= MAX_SENDING_QUEUE / 2) {
   157F A8*00              4327 	mov	r0,_bp
   1581 08                 4328 	inc	r0
   1582 74 4F              4329 	mov	a,#0x4F
   1584 26                 4330 	add	a,@r0
   1585 FD                 4331 	mov	r5,a
   1586 E4                 4332 	clr	a
   1587 08                 4333 	inc	r0
   1588 36                 4334 	addc	a,@r0
   1589 FE                 4335 	mov	r6,a
   158A 08                 4336 	inc	r0
   158B 86 07              4337 	mov	ar7,@r0
   158D 8D 82              4338 	mov	dpl,r5
   158F 8E 83              4339 	mov	dph,r6
   1591 8F F0              4340 	mov	b,r7
   1593 12s00r00           4341 	lcall	_packetqueue_len
   1596 AE 82              4342 	mov	r6,dpl
   1598 AF 83              4343 	mov	r7,dph
   159A C3                 4344 	clr	c
   159B EE                 4345 	mov	a,r6
   159C 94 03              4346 	subb	a,#0x03
   159E EF                 4347 	mov	a,r7
   159F 64 80              4348 	xrl	a,#0x80
   15A1 94 80              4349 	subb	a,#0x80
   15A3 40 07              4350 	jc	00150$
                           4351 ;	../../core/net/rime/collect.c:947: ackflags |= ACK_FLAGS_CONGESTED;
   15A5 E5*00              4352 	mov	a,_bp
   15A7 24 08              4353 	add	a,#0x08
   15A9 F8                 4354 	mov	r0,a
   15AA 76 80              4355 	mov	@r0,#0x80
                           4356 ;	../../core/net/rime/collect.c:950: for(i = 0; i < NUM_RECENT_PACKETS; i++) {
   15AC                    4357 00150$:
   15AC 7E 00              4358 	mov	r6,#0x00
   15AE 7F 00              4359 	mov	r7,#0x00
   15B0 7C 00              4360 	mov	r4,#0x00
   15B2 7D 00              4361 	mov	r5,#0x00
   15B4                    4362 00137$:
   15B4 C3                 4363 	clr	c
   15B5 EE                 4364 	mov	a,r6
   15B6 94 10              4365 	subb	a,#0x10
   15B8 EF                 4366 	mov	a,r7
   15B9 64 80              4367 	xrl	a,#0x80
   15BB 94 80              4368 	subb	a,#0x80
   15BD 40 03              4369 	jc	00185$
   15BF 02s17r1E           4370 	ljmp	00140$
   15C2                    4371 00185$:
                           4372 ;	../../core/net/rime/collect.c:951: if(recent_packets[i].conn == tc &&
   15C2 C0 06              4373 	push	ar6
   15C4 C0 07              4374 	push	ar7
   15C6 EC                 4375 	mov	a,r4
   15C7 24r00              4376 	add	a,#_recent_packets
   15C9 F5 82              4377 	mov	dpl,a
   15CB ED                 4378 	mov	a,r5
   15CC 34s00              4379 	addc	a,#(_recent_packets >> 8)
   15CE F5 83              4380 	mov	dph,a
   15D0 E0                 4381 	movx	a,@dptr
   15D1 FA                 4382 	mov	r2,a
   15D2 A3                 4383 	inc	dptr
   15D3 E0                 4384 	movx	a,@dptr
   15D4 FB                 4385 	mov	r3,a
   15D5 A3                 4386 	inc	dptr
   15D6 E0                 4387 	movx	a,@dptr
   15D7 FF                 4388 	mov	r7,a
   15D8 A8*00              4389 	mov	r0,_bp
   15DA 08                 4390 	inc	r0
   15DB C0 02              4391 	push	ar2
   15DD C0 03              4392 	push	ar3
   15DF C0 07              4393 	push	ar7
   15E1 86 82              4394 	mov	dpl,@r0
   15E3 08                 4395 	inc	r0
   15E4 86 83              4396 	mov	dph,@r0
   15E6 08                 4397 	inc	r0
   15E7 86 F0              4398 	mov	b,@r0
   15E9 12s00r00           4399 	lcall	___gptr_cmp
   15EC 15 81              4400 	dec	sp
   15EE 15 81              4401 	dec	sp
   15F0 15 81              4402 	dec	sp
   15F2 60 07              4403 	jz	00187$
   15F4 D0 07              4404 	pop	ar7
   15F6 D0 06              4405 	pop	ar6
   15F8 02s17r0F           4406 	ljmp	00139$
   15FB                    4407 00187$:
   15FB D0 07              4408 	pop	ar7
   15FD D0 06              4409 	pop	ar6
                           4410 ;	../../core/net/rime/collect.c:952: recent_packets[i].eseqno == packetbuf_attr(PACKETBUF_ATTR_EPACKET_ID) &&
   15FF C0 06              4411 	push	ar6
   1601 C0 07              4412 	push	ar7
   1603 EC                 4413 	mov	a,r4
   1604 24r00              4414 	add	a,#_recent_packets
   1606 FA                 4415 	mov	r2,a
   1607 ED                 4416 	mov	a,r5
   1608 34s00              4417 	addc	a,#(_recent_packets >> 8)
   160A FB                 4418 	mov	r3,a
   160B 8A 82              4419 	mov	dpl,r2
   160D 8B 83              4420 	mov	dph,r3
   160F A3                 4421 	inc	dptr
   1610 A3                 4422 	inc	dptr
   1611 A3                 4423 	inc	dptr
   1612 A3                 4424 	inc	dptr
   1613 A3                 4425 	inc	dptr
   1614 E0                 4426 	movx	a,@dptr
   1615 FB                 4427 	mov	r3,a
   1616 75 82 15           4428 	mov	dpl,#0x15
   1619 C0 06              4429 	push	ar6
   161B C0 05              4430 	push	ar5
   161D C0 04              4431 	push	ar4
   161F C0 03              4432 	push	ar3
   1621 12s00r00           4433 	lcall	_packetbuf_attr
   1624 AA 82              4434 	mov	r2,dpl
   1626 AF 83              4435 	mov	r7,dph
   1628 D0 03              4436 	pop	ar3
   162A D0 04              4437 	pop	ar4
   162C D0 05              4438 	pop	ar5
   162E D0 06              4439 	pop	ar6
   1630 7E 00              4440 	mov	r6,#0x00
   1632 EB                 4441 	mov	a,r3
   1633 B5 02 06           4442 	cjne	a,ar2,00188$
   1636 EE                 4443 	mov	a,r6
   1637 B5 07 02           4444 	cjne	a,ar7,00188$
   163A 80 07              4445 	sjmp	00189$
   163C                    4446 00188$:
   163C D0 07              4447 	pop	ar7
   163E D0 06              4448 	pop	ar6
   1640 02s17r0F           4449 	ljmp	00139$
   1643                    4450 00189$:
   1643 D0 07              4451 	pop	ar7
   1645 D0 06              4452 	pop	ar6
                           4453 ;	../../core/net/rime/collect.c:954: packetbuf_addr(PACKETBUF_ADDR_ESENDER))) {
   1647 C0 06              4454 	push	ar6
   1649 C0 07              4455 	push	ar7
   164B 75 82 1A           4456 	mov	dpl,#0x1A
   164E C0 07              4457 	push	ar7
   1650 C0 06              4458 	push	ar6
   1652 C0 05              4459 	push	ar5
   1654 C0 04              4460 	push	ar4
   1656 12s00r00           4461 	lcall	_packetbuf_addr
   1659 C8                 4462 	xch	a,r0
   165A E5*00              4463 	mov	a,_bp
   165C 24 0B              4464 	add	a,#0x0b
   165E C8                 4465 	xch	a,r0
   165F A6 82              4466 	mov	@r0,dpl
   1661 08                 4467 	inc	r0
   1662 A6 83              4468 	mov	@r0,dph
   1664 08                 4469 	inc	r0
   1665 A6 F0              4470 	mov	@r0,b
   1667 D0 04              4471 	pop	ar4
   1669 D0 05              4472 	pop	ar5
   166B D0 06              4473 	pop	ar6
   166D D0 07              4474 	pop	ar7
                           4475 ;	../../core/net/rime/collect.c:953: rimeaddr_cmp(&recent_packets[i].originator,
   166F EC                 4476 	mov	a,r4
   1670 24r00              4477 	add	a,#_recent_packets
   1672 FE                 4478 	mov	r6,a
   1673 ED                 4479 	mov	a,r5
   1674 34s00              4480 	addc	a,#(_recent_packets >> 8)
   1676 FF                 4481 	mov	r7,a
   1677 74 03              4482 	mov	a,#0x03
   1679 2E                 4483 	add	a,r6
   167A FE                 4484 	mov	r6,a
   167B E4                 4485 	clr	a
   167C 3F                 4486 	addc	a,r7
   167D FF                 4487 	mov	r7,a
   167E 7B 00              4488 	mov	r3,#0x00
   1680 C0 05              4489 	push	ar5
   1682 C0 04              4490 	push	ar4
   1684 E5*00              4491 	mov	a,_bp
   1686 24 0B              4492 	add	a,#0x0b
   1688 F8                 4493 	mov	r0,a
   1689 E6                 4494 	mov	a,@r0
   168A C0 E0              4495 	push	acc
   168C 08                 4496 	inc	r0
   168D E6                 4497 	mov	a,@r0
   168E C0 E0              4498 	push	acc
   1690 08                 4499 	inc	r0
   1691 E6                 4500 	mov	a,@r0
   1692 C0 E0              4501 	push	acc
   1694 8E 82              4502 	mov	dpl,r6
   1696 8F 83              4503 	mov	dph,r7
   1698 8B F0              4504 	mov	b,r3
   169A 12s00r00           4505 	lcall	_rimeaddr_cmp
   169D AE 82              4506 	mov	r6,dpl
   169F AF 83              4507 	mov	r7,dph
   16A1 15 81              4508 	dec	sp
   16A3 15 81              4509 	dec	sp
   16A5 15 81              4510 	dec	sp
   16A7 D0 04              4511 	pop	ar4
   16A9 D0 05              4512 	pop	ar5
   16AB EE                 4513 	mov	a,r6
   16AC 4F                 4514 	orl	a,r7
   16AD D0 07              4515 	pop	ar7
   16AF D0 06              4516 	pop	ar6
   16B1 60 5C              4517 	jz	00139$
                           4518 ;	../../core/net/rime/collect.c:963: send_ack(tc, &ack_to, ackflags);
   16B3 E5*00              4519 	mov	a,_bp
   16B5 24 08              4520 	add	a,#0x08
   16B7 F8                 4521 	mov	r0,a
   16B8 86 04              4522 	mov	ar4,@r0
   16BA 7F 00              4523 	mov	r7,#0x00
   16BC E5*00              4524 	mov	a,_bp
   16BE 24 09              4525 	add	a,#0x09
   16C0 FB                 4526 	mov	r3,a
   16C1 7E 00              4527 	mov	r6,#0x00
   16C3 7D 40              4528 	mov	r5,#0x40
   16C5 C0 04              4529 	push	ar4
   16C7 C0 07              4530 	push	ar7
   16C9 C0 03              4531 	push	ar3
   16CB C0 06              4532 	push	ar6
   16CD C0 05              4533 	push	ar5
   16CF A8*00              4534 	mov	r0,_bp
   16D1 08                 4535 	inc	r0
   16D2 86 82              4536 	mov	dpl,@r0
   16D4 08                 4537 	inc	r0
   16D5 86 83              4538 	mov	dph,@r0
   16D7 08                 4539 	inc	r0
   16D8 86 F0              4540 	mov	b,@r0
   16DA 12s11rEE           4541 	lcall	_send_ack
   16DD E5 81              4542 	mov	a,sp
   16DF 24 FB              4543 	add	a,#0xfb
   16E1 F5 81              4544 	mov	sp,a
                           4545 ;	../../core/net/rime/collect.c:964: stats.duprecv++;
   16E3 90s01r4D           4546 	mov	dptr,#(_stats + 0x0020)
   16E6 E0                 4547 	movx	a,@dptr
   16E7 FF                 4548 	mov	r7,a
   16E8 A3                 4549 	inc	dptr
   16E9 E0                 4550 	movx	a,@dptr
   16EA FE                 4551 	mov	r6,a
   16EB A3                 4552 	inc	dptr
   16EC E0                 4553 	movx	a,@dptr
   16ED FD                 4554 	mov	r5,a
   16EE A3                 4555 	inc	dptr
   16EF E0                 4556 	movx	a,@dptr
   16F0 FC                 4557 	mov	r4,a
   16F1 0F                 4558 	inc	r7
   16F2 BF 00 09           4559 	cjne	r7,#0x00,00191$
   16F5 0E                 4560 	inc	r6
   16F6 BE 00 05           4561 	cjne	r6,#0x00,00191$
   16F9 0D                 4562 	inc	r5
   16FA BD 00 01           4563 	cjne	r5,#0x00,00191$
   16FD 0C                 4564 	inc	r4
   16FE                    4565 00191$:
   16FE 90s01r4D           4566 	mov	dptr,#(_stats + 0x0020)
   1701 EF                 4567 	mov	a,r7
   1702 F0                 4568 	movx	@dptr,a
   1703 A3                 4569 	inc	dptr
   1704 EE                 4570 	mov	a,r6
   1705 F0                 4571 	movx	@dptr,a
   1706 A3                 4572 	inc	dptr
   1707 ED                 4573 	mov	a,r5
   1708 F0                 4574 	movx	@dptr,a
   1709 A3                 4575 	inc	dptr
   170A EC                 4576 	mov	a,r4
   170B F0                 4577 	movx	@dptr,a
                           4578 ;	../../core/net/rime/collect.c:965: return;
   170C 02s1Br13           4579 	ljmp	00141$
   170F                    4580 00139$:
                           4581 ;	../../core/net/rime/collect.c:950: for(i = 0; i < NUM_RECENT_PACKETS; i++) {
   170F 74 06              4582 	mov	a,#0x06
   1711 2C                 4583 	add	a,r4
   1712 FC                 4584 	mov	r4,a
   1713 E4                 4585 	clr	a
   1714 3D                 4586 	addc	a,r5
   1715 FD                 4587 	mov	r5,a
   1716 0E                 4588 	inc	r6
   1717 BE 00 01           4589 	cjne	r6,#0x00,00192$
   171A 0F                 4590 	inc	r7
   171B                    4591 00192$:
   171B 02s15rB4           4592 	ljmp	00137$
   171E                    4593 00140$:
                           4594 ;	../../core/net/rime/collect.c:971: if(tc->rtmetric == RTMETRIC_SINK) {
   171E A8*00              4595 	mov	r0,_bp
   1720 08                 4596 	inc	r0
   1721 74 A0              4597 	mov	a,#0xA0
   1723 26                 4598 	add	a,@r0
   1724 FD                 4599 	mov	r5,a
   1725 E4                 4600 	clr	a
   1726 08                 4601 	inc	r0
   1727 36                 4602 	addc	a,@r0
   1728 FE                 4603 	mov	r6,a
   1729 08                 4604 	inc	r0
   172A 86 07              4605 	mov	ar7,@r0
   172C 8D 82              4606 	mov	dpl,r5
   172E 8E 83              4607 	mov	dph,r6
   1730 8F F0              4608 	mov	b,r7
   1732 12s00r00           4609 	lcall	__gptrget
   1735 FB                 4610 	mov	r3,a
   1736 A3                 4611 	inc	dptr
   1737 12s00r00           4612 	lcall	__gptrget
   173A FC                 4613 	mov	r4,a
   173B 4B                 4614 	orl	a,r3
   173C 60 03              4615 	jz	00193$
   173E 02s18r85           4616 	ljmp	00130$
   1741                    4617 00193$:
                           4618 ;	../../core/net/rime/collect.c:974: add_packet_to_recent_packets(tc);
   1741 A8*00              4619 	mov	r0,_bp
   1743 08                 4620 	inc	r0
   1744 86 82              4621 	mov	dpl,@r0
   1746 08                 4622 	inc	r0
   1747 86 83              4623 	mov	dph,@r0
   1749 08                 4624 	inc	r0
   174A 86 F0              4625 	mov	b,@r0
   174C 12s13r97           4626 	lcall	_add_packet_to_recent_packets
                           4627 ;	../../core/net/rime/collect.c:978: q = queuebuf_new_from_packetbuf();
   174F 12s00r00           4628 	lcall	_queuebuf_new_from_packetbuf
   1752 AA 82              4629 	mov	r2,dpl
   1754 AB 83              4630 	mov	r3,dph
   1756 AC F0              4631 	mov	r4,b
   1758 8A 07              4632 	mov	ar7,r2
   175A 8B 06              4633 	mov	ar6,r3
   175C 8C 05              4634 	mov	ar5,r4
                           4635 ;	../../core/net/rime/collect.c:979: if(q != NULL) {
   175E EF                 4636 	mov	a,r7
   175F 4E                 4637 	orl	a,r6
   1760 60 54              4638 	jz	00112$
                           4639 ;	../../core/net/rime/collect.c:980: send_ack(tc, &ack_to, 0);
   1762 E5*00              4640 	mov	a,_bp
   1764 24 09              4641 	add	a,#0x09
   1766 FC                 4642 	mov	r4,a
   1767 7B 00              4643 	mov	r3,#0x00
   1769 7A 40              4644 	mov	r2,#0x40
   176B C0 07              4645 	push	ar7
   176D C0 06              4646 	push	ar6
   176F C0 05              4647 	push	ar5
   1771 E4                 4648 	clr	a
   1772 C0 E0              4649 	push	acc
   1774 C0 E0              4650 	push	acc
   1776 C0 04              4651 	push	ar4
   1778 C0 03              4652 	push	ar3
   177A C0 02              4653 	push	ar2
   177C A8*00              4654 	mov	r0,_bp
   177E 08                 4655 	inc	r0
   177F 86 82              4656 	mov	dpl,@r0
   1781 08                 4657 	inc	r0
   1782 86 83              4658 	mov	dph,@r0
   1784 08                 4659 	inc	r0
   1785 86 F0              4660 	mov	b,@r0
   1787 12s11rEE           4661 	lcall	_send_ack
   178A E5 81              4662 	mov	a,sp
   178C 24 FB              4663 	add	a,#0xfb
   178E F5 81              4664 	mov	sp,a
   1790 D0 05              4665 	pop	ar5
   1792 D0 06              4666 	pop	ar6
   1794 D0 07              4667 	pop	ar7
                           4668 ;	../../core/net/rime/collect.c:981: queuebuf_to_packetbuf(q);
   1796 8F 82              4669 	mov	dpl,r7
   1798 8E 83              4670 	mov	dph,r6
   179A 8D F0              4671 	mov	b,r5
   179C C0 07              4672 	push	ar7
   179E C0 06              4673 	push	ar6
   17A0 C0 05              4674 	push	ar5
   17A2 12s00r00           4675 	lcall	_queuebuf_to_packetbuf
   17A5 D0 05              4676 	pop	ar5
   17A7 D0 06              4677 	pop	ar6
   17A9 D0 07              4678 	pop	ar7
                           4679 ;	../../core/net/rime/collect.c:982: queuebuf_free(q);
   17AB 8F 82              4680 	mov	dpl,r7
   17AD 8E 83              4681 	mov	dph,r6
   17AF 8D F0              4682 	mov	b,r5
   17B1 12s00r00           4683 	lcall	_queuebuf_free
   17B4 80 29              4684 	sjmp	00113$
   17B6                    4685 00112$:
                           4686 ;	../../core/net/rime/collect.c:988: stats.ackdrop++;
   17B6 90s01r5D           4687 	mov	dptr,#(_stats + 0x0030)
   17B9 E0                 4688 	movx	a,@dptr
   17BA FF                 4689 	mov	r7,a
   17BB A3                 4690 	inc	dptr
   17BC E0                 4691 	movx	a,@dptr
   17BD FE                 4692 	mov	r6,a
   17BE A3                 4693 	inc	dptr
   17BF E0                 4694 	movx	a,@dptr
   17C0 FD                 4695 	mov	r5,a
   17C1 A3                 4696 	inc	dptr
   17C2 E0                 4697 	movx	a,@dptr
   17C3 FC                 4698 	mov	r4,a
   17C4 0F                 4699 	inc	r7
   17C5 BF 00 09           4700 	cjne	r7,#0x00,00195$
   17C8 0E                 4701 	inc	r6
   17C9 BE 00 05           4702 	cjne	r6,#0x00,00195$
   17CC 0D                 4703 	inc	r5
   17CD BD 00 01           4704 	cjne	r5,#0x00,00195$
   17D0 0C                 4705 	inc	r4
   17D1                    4706 00195$:
   17D1 90s01r5D           4707 	mov	dptr,#(_stats + 0x0030)
   17D4 EF                 4708 	mov	a,r7
   17D5 F0                 4709 	movx	@dptr,a
   17D6 A3                 4710 	inc	dptr
   17D7 EE                 4711 	mov	a,r6
   17D8 F0                 4712 	movx	@dptr,a
   17D9 A3                 4713 	inc	dptr
   17DA ED                 4714 	mov	a,r5
   17DB F0                 4715 	movx	@dptr,a
   17DC A3                 4716 	inc	dptr
   17DD EC                 4717 	mov	a,r4
   17DE F0                 4718 	movx	@dptr,a
   17DF                    4719 00113$:
                           4720 ;	../../core/net/rime/collect.c:999: packetbuf_hdrreduce(sizeof(struct data_msg_hdr));
   17DF 90 00 04           4721 	mov	dptr,#0x0004
   17E2 12s00r00           4722 	lcall	_packetbuf_hdrreduce
                           4723 ;	../../core/net/rime/collect.c:1001: if(packetbuf_datalen() > 0 && tc->cb->recv != NULL) {
   17E5 12s00r00           4724 	lcall	_packetbuf_datalen
   17E8 E5 82              4725 	mov	a,dpl
   17EA 85 83 F0           4726 	mov	b,dph
   17ED 45 F0              4727 	orl	a,b
   17EF 70 03              4728 	jnz	00196$
   17F1 02s18r82           4729 	ljmp	00115$
   17F4                    4730 00196$:
   17F4 A8*00              4731 	mov	r0,_bp
   17F6 08                 4732 	inc	r0
   17F7 74 31              4733 	mov	a,#0x31
   17F9 26                 4734 	add	a,@r0
   17FA FA                 4735 	mov	r2,a
   17FB E4                 4736 	clr	a
   17FC 08                 4737 	inc	r0
   17FD 36                 4738 	addc	a,@r0
   17FE FB                 4739 	mov	r3,a
   17FF 08                 4740 	inc	r0
   1800 86 04              4741 	mov	ar4,@r0
   1802 8A 82              4742 	mov	dpl,r2
   1804 8B 83              4743 	mov	dph,r3
   1806 8C F0              4744 	mov	b,r4
   1808 12s00r00           4745 	lcall	__gptrget
   180B FA                 4746 	mov	r2,a
   180C A3                 4747 	inc	dptr
   180D 12s00r00           4748 	lcall	__gptrget
   1810 FB                 4749 	mov	r3,a
   1811 A3                 4750 	inc	dptr
   1812 12s00r00           4751 	lcall	__gptrget
   1815 FC                 4752 	mov	r4,a
   1816 8A 82              4753 	mov	dpl,r2
   1818 8B 83              4754 	mov	dph,r3
   181A 8C F0              4755 	mov	b,r4
   181C 12s00r00           4756 	lcall	__gptrget
   181F FF                 4757 	mov	r7,a
   1820 A3                 4758 	inc	dptr
   1821 12s00r00           4759 	lcall	__gptrget
   1824 FE                 4760 	mov	r6,a
   1825 4F                 4761 	orl	a,r7
   1826 60 5A              4762 	jz	00115$
                           4763 ;	../../core/net/rime/collect.c:1004: packetbuf_attr(PACKETBUF_ATTR_HOPS));
   1828 75 82 13           4764 	mov	dpl,#0x13
   182B C0 07              4765 	push	ar7
   182D C0 06              4766 	push	ar6
   182F 12s00r00           4767 	lcall	_packetbuf_attr
   1832 AA 82              4768 	mov	r2,dpl
   1834 8A 05              4769 	mov	ar5,r2
                           4770 ;	../../core/net/rime/collect.c:1003: packetbuf_attr(PACKETBUF_ATTR_EPACKET_ID),
   1836 75 82 15           4771 	mov	dpl,#0x15
   1839 C0 05              4772 	push	ar5
   183B 12s00r00           4773 	lcall	_packetbuf_attr
   183E AB 82              4774 	mov	r3,dpl
   1840 E5*00              4775 	mov	a,_bp
   1842 24 0E              4776 	add	a,#0x0e
   1844 F8                 4777 	mov	r0,a
   1845 A6 03              4778 	mov	@r0,ar3
                           4779 ;	../../core/net/rime/collect.c:1002: tc->cb->recv(packetbuf_addr(PACKETBUF_ADDR_ESENDER),
   1847 75 82 1A           4780 	mov	dpl,#0x1A
   184A 12s00r00           4781 	lcall	_packetbuf_addr
   184D AA 82              4782 	mov	r2,dpl
   184F AB 83              4783 	mov	r3,dph
   1851 AC F0              4784 	mov	r4,b
   1853 D0 05              4785 	pop	ar5
   1855 D0 06              4786 	pop	ar6
   1857 D0 07              4787 	pop	ar7
   1859 C0 07              4788 	push	ar7
   185B C0 06              4789 	push	ar6
   185D C0 05              4790 	push	ar5
   185F E5*00              4791 	mov	a,_bp
   1861 24 0E              4792 	add	a,#0x0e
   1863 F8                 4793 	mov	r0,a
   1864 E6                 4794 	mov	a,@r0
   1865 C0 E0              4795 	push	acc
   1867 74r7A              4796 	mov	a,#00198$
   1869 C0 E0              4797 	push	acc
   186B 74s18              4798 	mov	a,#(00198$ >> 8)
   186D C0 E0              4799 	push	acc
   186F C0 07              4800 	push	ar7
   1871 C0 06              4801 	push	ar6
   1873 8A 82              4802 	mov	dpl,r2
   1875 8B 83              4803 	mov	dph,r3
   1877 8C F0              4804 	mov	b,r4
   1879 22                 4805 	ret
   187A                    4806 00198$:
   187A 15 81              4807 	dec	sp
   187C 15 81              4808 	dec	sp
   187E D0 06              4809 	pop	ar6
   1880 D0 07              4810 	pop	ar7
   1882                    4811 00115$:
                           4812 ;	../../core/net/rime/collect.c:1006: return;
   1882 02s1Br13           4813 	ljmp	00141$
   1885                    4814 00130$:
                           4815 ;	../../core/net/rime/collect.c:1007: } else if(packetbuf_attr(PACKETBUF_ATTR_TTL) > 1 &&
   1885 75 82 14           4816 	mov	dpl,#0x14
   1888 C0 07              4817 	push	ar7
   188A C0 06              4818 	push	ar6
   188C C0 05              4819 	push	ar5
   188E 12s00r00           4820 	lcall	_packetbuf_attr
   1891 AB 82              4821 	mov	r3,dpl
   1893 AC 83              4822 	mov	r4,dph
   1895 D0 05              4823 	pop	ar5
   1897 D0 06              4824 	pop	ar6
   1899 D0 07              4825 	pop	ar7
   189B C3                 4826 	clr	c
   189C 74 01              4827 	mov	a,#0x01
   189E 9B                 4828 	subb	a,r3
   189F E4                 4829 	clr	a
   18A0 9C                 4830 	subb	a,r4
   18A1 40 03              4831 	jc	00199$
   18A3 02s1Ar5A           4832 	ljmp	00126$
   18A6                    4833 00199$:
                           4834 ;	../../core/net/rime/collect.c:1008: tc->rtmetric != RTMETRIC_MAX) {
   18A6 8D 82              4835 	mov	dpl,r5
   18A8 8E 83              4836 	mov	dph,r6
   18AA 8F F0              4837 	mov	b,r7
   18AC 12s00r00           4838 	lcall	__gptrget
   18AF FE                 4839 	mov	r6,a
   18B0 A3                 4840 	inc	dptr
   18B1 12s00r00           4841 	lcall	__gptrget
   18B4 FF                 4842 	mov	r7,a
   18B5 BE FF 06           4843 	cjne	r6,#0xFF,00200$
   18B8 BF 01 03           4844 	cjne	r7,#0x01,00200$
   18BB 02s1Ar5A           4845 	ljmp	00126$
   18BE                    4846 00200$:
                           4847 ;	../../core/net/rime/collect.c:1017: if(hdr.rtmetric <= tc->rtmetric) {
   18BE E5*00              4848 	mov	a,_bp
   18C0 24 04              4849 	add	a,#0x04
   18C2 24 02              4850 	add	a,#0x02
   18C4 F9                 4851 	mov	r1,a
   18C5 87 04              4852 	mov	ar4,@r1
   18C7 09                 4853 	inc	r1
   18C8 87 05              4854 	mov	ar5,@r1
   18CA C3                 4855 	clr	c
   18CB EE                 4856 	mov	a,r6
   18CC 9C                 4857 	subb	a,r4
   18CD EF                 4858 	mov	a,r7
   18CE 9D                 4859 	subb	a,r5
   18CF 40 09              4860 	jc	00118$
                           4861 ;	../../core/net/rime/collect.c:1018: ackflags |= ACK_FLAGS_RTMETRIC_NEEDS_UPDATE;
   18D1 E5*00              4862 	mov	a,_bp
   18D3 24 08              4863 	add	a,#0x08
   18D5 F8                 4864 	mov	r0,a
   18D6 E6                 4865 	mov	a,@r0
   18D7 44 10              4866 	orl	a,#0x10
   18D9 F6                 4867 	mov	@r0,a
   18DA                    4868 00118$:
                           4869 ;	../../core/net/rime/collect.c:1022: packetbuf_attr(PACKETBUF_ATTR_HOPS) + 1);
   18DA 75 82 13           4870 	mov	dpl,#0x13
   18DD 12s00r00           4871 	lcall	_packetbuf_attr
   18E0 E5 82              4872 	mov	a,dpl
   18E2 85 83 F0           4873 	mov	b,dph
   18E5 24 01              4874 	add	a,#0x01
   18E7 FE                 4875 	mov	r6,a
   18E8 E4                 4876 	clr	a
   18E9 35 F0              4877 	addc	a,b
   18EB FF                 4878 	mov	r7,a
                           4879 ;	../../core/net/rime/collect.c:1021: packetbuf_set_attr(PACKETBUF_ATTR_HOPS,
   18EC C0 06              4880 	push	ar6
   18EE C0 07              4881 	push	ar7
   18F0 75 82 13           4882 	mov	dpl,#0x13
   18F3 12s00r00           4883 	lcall	_packetbuf_set_attr
   18F6 15 81              4884 	dec	sp
   18F8 15 81              4885 	dec	sp
                           4886 ;	../../core/net/rime/collect.c:1024: packetbuf_attr(PACKETBUF_ATTR_TTL) - 1);
   18FA 75 82 14           4887 	mov	dpl,#0x14
   18FD 12s00r00           4888 	lcall	_packetbuf_attr
   1900 E5 82              4889 	mov	a,dpl
   1902 85 83 F0           4890 	mov	b,dph
   1905 24 FF              4891 	add	a,#0xFF
   1907 FE                 4892 	mov	r6,a
   1908 E5 F0              4893 	mov	a,b
   190A 34 FF              4894 	addc	a,#0xFF
   190C FF                 4895 	mov	r7,a
                           4896 ;	../../core/net/rime/collect.c:1023: packetbuf_set_attr(PACKETBUF_ATTR_TTL,
   190D C0 06              4897 	push	ar6
   190F C0 07              4898 	push	ar7
   1911 75 82 14           4899 	mov	dpl,#0x14
   1914 12s00r00           4900 	lcall	_packetbuf_set_attr
   1917 15 81              4901 	dec	sp
   1919 15 81              4902 	dec	sp
                           4903 ;	../../core/net/rime/collect.c:1041: if(packetqueue_len(&tc->send_queue) <= MAX_SENDING_QUEUE - MIN_AVAILABLE_QUEUE_ENTRIES &&
   191B A8*00              4904 	mov	r0,_bp
   191D 08                 4905 	inc	r0
   191E 74 4F              4906 	mov	a,#0x4F
   1920 26                 4907 	add	a,@r0
   1921 FD                 4908 	mov	r5,a
   1922 E4                 4909 	clr	a
   1923 08                 4910 	inc	r0
   1924 36                 4911 	addc	a,@r0
   1925 FE                 4912 	mov	r6,a
   1926 08                 4913 	inc	r0
   1927 86 07              4914 	mov	ar7,@r0
   1929 8D 82              4915 	mov	dpl,r5
   192B 8E 83              4916 	mov	dph,r6
   192D 8F F0              4917 	mov	b,r7
   192F 12s00r00           4918 	lcall	_packetqueue_len
   1932 AE 82              4919 	mov	r6,dpl
   1934 AF 83              4920 	mov	r7,dph
   1936 C3                 4921 	clr	c
   1937 74 02              4922 	mov	a,#0x02
   1939 9E                 4923 	subb	a,r6
   193A E4                 4924 	clr	a
   193B 64 80              4925 	xrl	a,#0x80
   193D 8F F0              4926 	mov	b,r7
   193F 63 F0 80           4927 	xrl	b,#0x80
   1942 95 F0              4928 	subb	a,b
   1944 50 03              4929 	jnc	00202$
   1946 02s19rFC           4930 	ljmp	00120$
   1949                    4931 00202$:
                           4932 ;	../../core/net/rime/collect.c:1045: tc)) {
   1949 A8*00              4933 	mov	r0,_bp
   194B 08                 4934 	inc	r0
   194C 86 05              4935 	mov	ar5,@r0
   194E 08                 4936 	inc	r0
   194F 86 06              4937 	mov	ar6,@r0
   1951 08                 4938 	inc	r0
   1952 86 07              4939 	mov	ar7,@r0
                           4940 ;	../../core/net/rime/collect.c:1044: packetbuf_attr(PACKETBUF_ATTR_MAX_REXMIT),
   1954 75 82 10           4941 	mov	dpl,#0x10
   1957 C0 07              4942 	push	ar7
   1959 C0 06              4943 	push	ar6
   195B C0 05              4944 	push	ar5
   195D 12s00r00           4945 	lcall	_packetbuf_attr
   1960 AB 82              4946 	mov	r3,dpl
   1962 D0 05              4947 	pop	ar5
   1964 D0 06              4948 	pop	ar6
   1966 D0 07              4949 	pop	ar7
   1968 E5*00              4950 	mov	a,_bp
   196A 24 11              4951 	add	a,#0x11
   196C F8                 4952 	mov	r0,a
   196D EB                 4953 	mov	a,r3
   196E 2B                 4954 	add	a,r3
   196F 25 E0              4955 	add	a,acc
   1971 08                 4956 	inc	r0
   1972 F6                 4957 	mov	@r0,a
   1973 18                 4958 	dec	r0
   1974 76 00              4959 	mov	@r0,#0x00
                           4960 ;	../../core/net/rime/collect.c:1042: packetqueue_enqueue_packetbuf(&tc->send_queue,
   1976 A8*00              4961 	mov	r0,_bp
   1978 08                 4962 	inc	r0
   1979 74 4F              4963 	mov	a,#0x4F
   197B 26                 4964 	add	a,@r0
   197C FA                 4965 	mov	r2,a
   197D E4                 4966 	clr	a
   197E 08                 4967 	inc	r0
   197F 36                 4968 	addc	a,@r0
   1980 FB                 4969 	mov	r3,a
   1981 08                 4970 	inc	r0
   1982 86 04              4971 	mov	ar4,@r0
   1984 C0 05              4972 	push	ar5
   1986 C0 06              4973 	push	ar6
   1988 C0 07              4974 	push	ar7
   198A E5*00              4975 	mov	a,_bp
   198C 24 11              4976 	add	a,#0x11
   198E F8                 4977 	mov	r0,a
   198F E6                 4978 	mov	a,@r0
   1990 C0 E0              4979 	push	acc
   1992 08                 4980 	inc	r0
   1993 E6                 4981 	mov	a,@r0
   1994 C0 E0              4982 	push	acc
   1996 8A 82              4983 	mov	dpl,r2
   1998 8B 83              4984 	mov	dph,r3
   199A 8C F0              4985 	mov	b,r4
   199C 12s00r00           4986 	lcall	_packetqueue_enqueue_packetbuf
   199F AE 82              4987 	mov	r6,dpl
   19A1 AF 83              4988 	mov	r7,dph
   19A3 E5 81              4989 	mov	a,sp
   19A5 24 FB              4990 	add	a,#0xfb
   19A7 F5 81              4991 	mov	sp,a
   19A9 EE                 4992 	mov	a,r6
   19AA 4F                 4993 	orl	a,r7
   19AB 60 4F              4994 	jz	00120$
                           4995 ;	../../core/net/rime/collect.c:1046: add_packet_to_recent_packets(tc);
   19AD A8*00              4996 	mov	r0,_bp
   19AF 08                 4997 	inc	r0
   19B0 86 82              4998 	mov	dpl,@r0
   19B2 08                 4999 	inc	r0
   19B3 86 83              5000 	mov	dph,@r0
   19B5 08                 5001 	inc	r0
   19B6 86 F0              5002 	mov	b,@r0
   19B8 12s13r97           5003 	lcall	_add_packet_to_recent_packets
                           5004 ;	../../core/net/rime/collect.c:1047: send_ack(tc, &ack_to, ackflags);
   19BB E5*00              5005 	mov	a,_bp
   19BD 24 08              5006 	add	a,#0x08
   19BF F8                 5007 	mov	r0,a
   19C0 86 04              5008 	mov	ar4,@r0
   19C2 7F 00              5009 	mov	r7,#0x00
   19C4 E5*00              5010 	mov	a,_bp
   19C6 24 09              5011 	add	a,#0x09
   19C8 FE                 5012 	mov	r6,a
   19C9 7D 00              5013 	mov	r5,#0x00
   19CB 7B 40              5014 	mov	r3,#0x40
   19CD C0 04              5015 	push	ar4
   19CF C0 07              5016 	push	ar7
   19D1 C0 06              5017 	push	ar6
   19D3 C0 05              5018 	push	ar5
   19D5 C0 03              5019 	push	ar3
   19D7 A8*00              5020 	mov	r0,_bp
   19D9 08                 5021 	inc	r0
   19DA 86 82              5022 	mov	dpl,@r0
   19DC 08                 5023 	inc	r0
   19DD 86 83              5024 	mov	dph,@r0
   19DF 08                 5025 	inc	r0
   19E0 86 F0              5026 	mov	b,@r0
   19E2 12s11rEE           5027 	lcall	_send_ack
   19E5 E5 81              5028 	mov	a,sp
   19E7 24 FB              5029 	add	a,#0xfb
   19E9 F5 81              5030 	mov	sp,a
                           5031 ;	../../core/net/rime/collect.c:1048: send_queued_packet(tc);
   19EB A8*00              5032 	mov	r0,_bp
   19ED 08                 5033 	inc	r0
   19EE 86 82              5034 	mov	dpl,@r0
   19F0 08                 5035 	inc	r0
   19F1 86 83              5036 	mov	dph,@r0
   19F3 08                 5037 	inc	r0
   19F4 86 F0              5038 	mov	b,@r0
   19F6 12s08r41           5039 	lcall	_send_queued_packet
   19F9 02s1Br13           5040 	ljmp	00136$
   19FC                    5041 00120$:
                           5042 ;	../../core/net/rime/collect.c:1051: ackflags | ACK_FLAGS_DROPPED | ACK_FLAGS_CONGESTED);
   19FC E5*00              5043 	mov	a,_bp
   19FE 24 08              5044 	add	a,#0x08
   1A00 F8                 5045 	mov	r0,a
   1A01 74 C0              5046 	mov	a,#0xC0
   1A03 46                 5047 	orl	a,@r0
   1A04 FF                 5048 	mov	r7,a
   1A05 7E 00              5049 	mov	r6,#0x00
                           5050 ;	../../core/net/rime/collect.c:1050: send_ack(tc, &ack_to,
   1A07 E5*00              5051 	mov	a,_bp
   1A09 24 09              5052 	add	a,#0x09
   1A0B FD                 5053 	mov	r5,a
   1A0C 7C 00              5054 	mov	r4,#0x00
   1A0E 7B 40              5055 	mov	r3,#0x40
   1A10 C0 07              5056 	push	ar7
   1A12 C0 06              5057 	push	ar6
   1A14 C0 05              5058 	push	ar5
   1A16 C0 04              5059 	push	ar4
   1A18 C0 03              5060 	push	ar3
   1A1A A8*00              5061 	mov	r0,_bp
   1A1C 08                 5062 	inc	r0
   1A1D 86 82              5063 	mov	dpl,@r0
   1A1F 08                 5064 	inc	r0
   1A20 86 83              5065 	mov	dph,@r0
   1A22 08                 5066 	inc	r0
   1A23 86 F0              5067 	mov	b,@r0
   1A25 12s11rEE           5068 	lcall	_send_ack
   1A28 E5 81              5069 	mov	a,sp
   1A2A 24 FB              5070 	add	a,#0xfb
   1A2C F5 81              5071 	mov	sp,a
                           5072 ;	../../core/net/rime/collect.c:1054: stats.qdrop++;
   1A2E 90s01r51           5073 	mov	dptr,#(_stats + 0x0024)
   1A31 E0                 5074 	movx	a,@dptr
   1A32 FC                 5075 	mov	r4,a
   1A33 A3                 5076 	inc	dptr
   1A34 E0                 5077 	movx	a,@dptr
   1A35 FD                 5078 	mov	r5,a
   1A36 A3                 5079 	inc	dptr
   1A37 E0                 5080 	movx	a,@dptr
   1A38 FE                 5081 	mov	r6,a
   1A39 A3                 5082 	inc	dptr
   1A3A E0                 5083 	movx	a,@dptr
   1A3B FF                 5084 	mov	r7,a
   1A3C 0C                 5085 	inc	r4
   1A3D BC 00 09           5086 	cjne	r4,#0x00,00204$
   1A40 0D                 5087 	inc	r5
   1A41 BD 00 05           5088 	cjne	r5,#0x00,00204$
   1A44 0E                 5089 	inc	r6
   1A45 BE 00 01           5090 	cjne	r6,#0x00,00204$
   1A48 0F                 5091 	inc	r7
   1A49                    5092 00204$:
   1A49 90s01r51           5093 	mov	dptr,#(_stats + 0x0024)
   1A4C EC                 5094 	mov	a,r4
   1A4D F0                 5095 	movx	@dptr,a
   1A4E A3                 5096 	inc	dptr
   1A4F ED                 5097 	mov	a,r5
   1A50 F0                 5098 	movx	@dptr,a
   1A51 A3                 5099 	inc	dptr
   1A52 EE                 5100 	mov	a,r6
   1A53 F0                 5101 	movx	@dptr,a
   1A54 A3                 5102 	inc	dptr
   1A55 EF                 5103 	mov	a,r7
   1A56 F0                 5104 	movx	@dptr,a
   1A57 02s1Br13           5105 	ljmp	00136$
   1A5A                    5106 00126$:
                           5107 ;	../../core/net/rime/collect.c:1056: } else if(packetbuf_attr(PACKETBUF_ATTR_TTL) <= 1) {
   1A5A 75 82 14           5108 	mov	dpl,#0x14
   1A5D 12s00r00           5109 	lcall	_packetbuf_attr
   1A60 AE 82              5110 	mov	r6,dpl
   1A62 AF 83              5111 	mov	r7,dph
   1A64 C3                 5112 	clr	c
   1A65 74 01              5113 	mov	a,#0x01
   1A67 9E                 5114 	subb	a,r6
   1A68 E4                 5115 	clr	a
   1A69 9F                 5116 	subb	a,r7
   1A6A 50 03              5117 	jnc	00205$
   1A6C 02s1Br13           5118 	ljmp	00136$
   1A6F                    5119 00205$:
                           5120 ;	../../core/net/rime/collect.c:1061: ACK_FLAGS_DROPPED | ACK_FLAGS_LIFETIME_EXCEEDED);
   1A6F E5*00              5121 	mov	a,_bp
   1A71 24 08              5122 	add	a,#0x08
   1A73 F8                 5123 	mov	r0,a
   1A74 74 60              5124 	mov	a,#0x60
   1A76 46                 5125 	orl	a,@r0
   1A77 FF                 5126 	mov	r7,a
   1A78 7E 00              5127 	mov	r6,#0x00
                           5128 ;	../../core/net/rime/collect.c:1060: send_ack(tc, &ack_to, ackflags |
   1A7A E5*00              5129 	mov	a,_bp
   1A7C 24 09              5130 	add	a,#0x09
   1A7E FD                 5131 	mov	r5,a
   1A7F 7C 00              5132 	mov	r4,#0x00
   1A81 7B 40              5133 	mov	r3,#0x40
   1A83 C0 07              5134 	push	ar7
   1A85 C0 06              5135 	push	ar6
   1A87 C0 05              5136 	push	ar5
   1A89 C0 04              5137 	push	ar4
   1A8B C0 03              5138 	push	ar3
   1A8D A8*00              5139 	mov	r0,_bp
   1A8F 08                 5140 	inc	r0
   1A90 86 82              5141 	mov	dpl,@r0
   1A92 08                 5142 	inc	r0
   1A93 86 83              5143 	mov	dph,@r0
   1A95 08                 5144 	inc	r0
   1A96 86 F0              5145 	mov	b,@r0
   1A98 12s11rEE           5146 	lcall	_send_ack
   1A9B E5 81              5147 	mov	a,sp
   1A9D 24 FB              5148 	add	a,#0xfb
   1A9F F5 81              5149 	mov	sp,a
                           5150 ;	../../core/net/rime/collect.c:1062: stats.ttldrop++;
   1AA1 90s01r59           5151 	mov	dptr,#(_stats + 0x002c)
   1AA4 E0                 5152 	movx	a,@dptr
   1AA5 FC                 5153 	mov	r4,a
   1AA6 A3                 5154 	inc	dptr
   1AA7 E0                 5155 	movx	a,@dptr
   1AA8 FD                 5156 	mov	r5,a
   1AA9 A3                 5157 	inc	dptr
   1AAA E0                 5158 	movx	a,@dptr
   1AAB FE                 5159 	mov	r6,a
   1AAC A3                 5160 	inc	dptr
   1AAD E0                 5161 	movx	a,@dptr
   1AAE FF                 5162 	mov	r7,a
   1AAF 0C                 5163 	inc	r4
   1AB0 BC 00 09           5164 	cjne	r4,#0x00,00206$
   1AB3 0D                 5165 	inc	r5
   1AB4 BD 00 05           5166 	cjne	r5,#0x00,00206$
   1AB7 0E                 5167 	inc	r6
   1AB8 BE 00 01           5168 	cjne	r6,#0x00,00206$
   1ABB 0F                 5169 	inc	r7
   1ABC                    5170 00206$:
   1ABC 90s01r59           5171 	mov	dptr,#(_stats + 0x002c)
   1ABF EC                 5172 	mov	a,r4
   1AC0 F0                 5173 	movx	@dptr,a
   1AC1 A3                 5174 	inc	dptr
   1AC2 ED                 5175 	mov	a,r5
   1AC3 F0                 5176 	movx	@dptr,a
   1AC4 A3                 5177 	inc	dptr
   1AC5 EE                 5178 	mov	a,r6
   1AC6 F0                 5179 	movx	@dptr,a
   1AC7 A3                 5180 	inc	dptr
   1AC8 EF                 5181 	mov	a,r7
   1AC9 F0                 5182 	movx	@dptr,a
   1ACA 80 47              5183 	sjmp	00136$
   1ACC                    5184 00135$:
                           5185 ;	../../core/net/rime/collect.c:1064: } else if(packetbuf_attr(PACKETBUF_ATTR_PACKET_TYPE) ==
   1ACC 75 82 0E           5186 	mov	dpl,#0x0E
   1ACF 12s00r00           5187 	lcall	_packetbuf_attr
   1AD2 AE 82              5188 	mov	r6,dpl
   1AD4 AF 83              5189 	mov	r7,dph
   1AD6 BE 01 3A           5190 	cjne	r6,#0x01,00136$
   1AD9 BF 00 37           5191 	cjne	r7,#0x00,00136$
                           5192 ;	../../core/net/rime/collect.c:1074: handle_ack(tc);
   1ADC A8*00              5193 	mov	r0,_bp
   1ADE 08                 5194 	inc	r0
   1ADF 86 82              5195 	mov	dpl,@r0
   1AE1 08                 5196 	inc	r0
   1AE2 86 83              5197 	mov	dph,@r0
   1AE4 08                 5198 	inc	r0
   1AE5 86 F0              5199 	mov	b,@r0
   1AE7 12s0ErA4           5200 	lcall	_handle_ack
                           5201 ;	../../core/net/rime/collect.c:1075: stats.ackrecv++;
   1AEA 90s01r45           5202 	mov	dptr,#(_stats + 0x0018)
   1AED E0                 5203 	movx	a,@dptr
   1AEE FC                 5204 	mov	r4,a
   1AEF A3                 5205 	inc	dptr
   1AF0 E0                 5206 	movx	a,@dptr
   1AF1 FD                 5207 	mov	r5,a
   1AF2 A3                 5208 	inc	dptr
   1AF3 E0                 5209 	movx	a,@dptr
   1AF4 FE                 5210 	mov	r6,a
   1AF5 A3                 5211 	inc	dptr
   1AF6 E0                 5212 	movx	a,@dptr
   1AF7 FF                 5213 	mov	r7,a
   1AF8 0C                 5214 	inc	r4
   1AF9 BC 00 09           5215 	cjne	r4,#0x00,00209$
   1AFC 0D                 5216 	inc	r5
   1AFD BD 00 05           5217 	cjne	r5,#0x00,00209$
   1B00 0E                 5218 	inc	r6
   1B01 BE 00 01           5219 	cjne	r6,#0x00,00209$
   1B04 0F                 5220 	inc	r7
   1B05                    5221 00209$:
   1B05 90s01r45           5222 	mov	dptr,#(_stats + 0x0018)
   1B08 EC                 5223 	mov	a,r4
   1B09 F0                 5224 	movx	@dptr,a
   1B0A A3                 5225 	inc	dptr
   1B0B ED                 5226 	mov	a,r5
   1B0C F0                 5227 	movx	@dptr,a
   1B0D A3                 5228 	inc	dptr
   1B0E EE                 5229 	mov	a,r6
   1B0F F0                 5230 	movx	@dptr,a
   1B10 A3                 5231 	inc	dptr
   1B11 EF                 5232 	mov	a,r7
   1B12 F0                 5233 	movx	@dptr,a
   1B13                    5234 00136$:
                           5235 ;	../../core/net/rime/collect.c:1077: return;
   1B13                    5236 00141$:
   1B13 85*00 81           5237 	mov	sp,_bp
   1B16 D0*00              5238 	pop	_bp
   1B18 22                 5239 	ret
                           5240 ;------------------------------------------------------------
                           5241 ;Allocation info for local variables in function 'timedout'
                           5242 ;------------------------------------------------------------
                           5243 ;tc                        Allocated to stack - _bp +1
                           5244 ;n                         Allocated to registers r5 r6 r7 
                           5245 ;sloc0                     Allocated to stack - _bp +4
                           5246 ;sloc1                     Allocated to stack - _bp +6
                           5247 ;sloc2                     Allocated to stack - _bp +8
                           5248 ;sloc3                     Allocated to stack - _bp +10
                           5249 ;sloc4                     Allocated to stack - _bp +12
                           5250 ;sloc5                     Allocated to stack - _bp +14
                           5251 ;------------------------------------------------------------
                           5252 ;	../../core/net/rime/collect.c:1081: timedout(struct collect_conn *tc)
                           5253 ;	-----------------------------------------
                           5254 ;	 function timedout
                           5255 ;	-----------------------------------------
   1B19                    5256 _timedout:
   1B19 C0*00              5257 	push	_bp
   1B1B 85 81*00           5258 	mov	_bp,sp
   1B1E C0 82              5259 	push	dpl
   1B20 C0 83              5260 	push	dph
   1B22 C0 F0              5261 	push	b
   1B24 E5 81              5262 	mov	a,sp
   1B26 24 0D              5263 	add	a,#0x0D
   1B28 F5 81              5264 	mov	sp,a
                           5265 ;	../../core/net/rime/collect.c:1091: tc->max_rexmits);
   1B2A A8*00              5266 	mov	r0,_bp
   1B2C 08                 5267 	inc	r0
   1B2D 74 A5              5268 	mov	a,#0xA5
   1B2F 26                 5269 	add	a,@r0
   1B30 FA                 5270 	mov	r2,a
   1B31 E4                 5271 	clr	a
   1B32 08                 5272 	inc	r0
   1B33 36                 5273 	addc	a,@r0
   1B34 FB                 5274 	mov	r3,a
   1B35 08                 5275 	inc	r0
   1B36 86 04              5276 	mov	ar4,@r0
   1B38 8A 82              5277 	mov	dpl,r2
   1B3A 8B 83              5278 	mov	dph,r3
   1B3C 8C F0              5279 	mov	b,r4
   1B3E 12s00r00           5280 	lcall	__gptrget
   1B41 FF                 5281 	mov	r7,a
   1B42 E5*00              5282 	mov	a,_bp
   1B44 24 04              5283 	add	a,#0x04
   1B46 F8                 5284 	mov	r0,a
   1B47 A6 07              5285 	mov	@r0,ar7
   1B49 08                 5286 	inc	r0
   1B4A 76 00              5287 	mov	@r0,#0x00
                           5288 ;	../../core/net/rime/collect.c:1090: tc->current_parent.u8[0], tc->current_parent.u8[1],
   1B4C A8*00              5289 	mov	r0,_bp
   1B4E 08                 5290 	inc	r0
   1B4F 74 9E              5291 	mov	a,#0x9E
   1B51 26                 5292 	add	a,@r0
   1B52 FD                 5293 	mov	r5,a
   1B53 E4                 5294 	clr	a
   1B54 08                 5295 	inc	r0
   1B55 36                 5296 	addc	a,@r0
   1B56 FE                 5297 	mov	r6,a
   1B57 08                 5298 	inc	r0
   1B58 86 07              5299 	mov	ar7,@r0
   1B5A 0D                 5300 	inc	r5
   1B5B BD 00 01           5301 	cjne	r5,#0x00,00107$
   1B5E 0E                 5302 	inc	r6
   1B5F                    5303 00107$:
   1B5F 8D 82              5304 	mov	dpl,r5
   1B61 8E 83              5305 	mov	dph,r6
   1B63 8F F0              5306 	mov	b,r7
   1B65 12s00r00           5307 	lcall	__gptrget
   1B68 FD                 5308 	mov	r5,a
   1B69 E5*00              5309 	mov	a,_bp
   1B6B 24 06              5310 	add	a,#0x06
   1B6D F8                 5311 	mov	r0,a
   1B6E A6 05              5312 	mov	@r0,ar5
   1B70 08                 5313 	inc	r0
   1B71 76 00              5314 	mov	@r0,#0x00
   1B73 A8*00              5315 	mov	r0,_bp
   1B75 08                 5316 	inc	r0
   1B76 74 9E              5317 	mov	a,#0x9E
   1B78 26                 5318 	add	a,@r0
   1B79 FD                 5319 	mov	r5,a
   1B7A E4                 5320 	clr	a
   1B7B 08                 5321 	inc	r0
   1B7C 36                 5322 	addc	a,@r0
   1B7D FE                 5323 	mov	r6,a
   1B7E 08                 5324 	inc	r0
   1B7F 86 07              5325 	mov	ar7,@r0
   1B81 8D 82              5326 	mov	dpl,r5
   1B83 8E 83              5327 	mov	dph,r6
   1B85 8F F0              5328 	mov	b,r7
   1B87 12s00r00           5329 	lcall	__gptrget
   1B8A FD                 5330 	mov	r5,a
   1B8B E5*00              5331 	mov	a,_bp
   1B8D 24 08              5332 	add	a,#0x08
   1B8F F8                 5333 	mov	r0,a
   1B90 A6 05              5334 	mov	@r0,ar5
   1B92 08                 5335 	inc	r0
   1B93 76 00              5336 	mov	@r0,#0x00
                           5337 ;	../../core/net/rime/collect.c:1089: rimeaddr_node_addr.u8[0], rimeaddr_node_addr.u8[1], tc->transmissions,
   1B95 A8*00              5338 	mov	r0,_bp
   1B97 08                 5339 	inc	r0
   1B98 74 A4              5340 	mov	a,#0xA4
   1B9A 26                 5341 	add	a,@r0
   1B9B FD                 5342 	mov	r5,a
   1B9C E4                 5343 	clr	a
   1B9D 08                 5344 	inc	r0
   1B9E 36                 5345 	addc	a,@r0
   1B9F FE                 5346 	mov	r6,a
   1BA0 08                 5347 	inc	r0
   1BA1 86 07              5348 	mov	ar7,@r0
   1BA3 8D 82              5349 	mov	dpl,r5
   1BA5 8E 83              5350 	mov	dph,r6
   1BA7 8F F0              5351 	mov	b,r7
   1BA9 12s00r00           5352 	lcall	__gptrget
   1BAC FD                 5353 	mov	r5,a
   1BAD E5*00              5354 	mov	a,_bp
   1BAF 24 0A              5355 	add	a,#0x0a
   1BB1 F8                 5356 	mov	r0,a
   1BB2 A6 05              5357 	mov	@r0,ar5
   1BB4 08                 5358 	inc	r0
   1BB5 76 00              5359 	mov	@r0,#0x00
   1BB7 90s00r01           5360 	mov	dptr,#(_rimeaddr_node_addr + 0x0001)
   1BBA E0                 5361 	movx	a,@dptr
   1BBB FE                 5362 	mov	r6,a
   1BBC E5*00              5363 	mov	a,_bp
   1BBE 24 0C              5364 	add	a,#0x0c
   1BC0 F8                 5365 	mov	r0,a
   1BC1 A6 06              5366 	mov	@r0,ar6
   1BC3 08                 5367 	inc	r0
   1BC4 76 00              5368 	mov	@r0,#0x00
   1BC6 90s00r00           5369 	mov	dptr,#_rimeaddr_node_addr
   1BC9 E0                 5370 	movx	a,@dptr
   1BCA FD                 5371 	mov	r5,a
   1BCB 7F 00              5372 	mov	r7,#0x00
                           5373 ;	../../core/net/rime/collect.c:1088: printf("%d.%d: timedout after %d retransmissions to %d.%d (max retransmissions %d): packet dropped\n",
   1BCD C0 04              5374 	push	ar4
   1BCF C0 03              5375 	push	ar3
   1BD1 C0 02              5376 	push	ar2
   1BD3 E5*00              5377 	mov	a,_bp
   1BD5 24 04              5378 	add	a,#0x04
   1BD7 F8                 5379 	mov	r0,a
   1BD8 E6                 5380 	mov	a,@r0
   1BD9 C0 E0              5381 	push	acc
   1BDB 08                 5382 	inc	r0
   1BDC E6                 5383 	mov	a,@r0
   1BDD C0 E0              5384 	push	acc
   1BDF E5*00              5385 	mov	a,_bp
   1BE1 24 06              5386 	add	a,#0x06
   1BE3 F8                 5387 	mov	r0,a
   1BE4 E6                 5388 	mov	a,@r0
   1BE5 C0 E0              5389 	push	acc
   1BE7 08                 5390 	inc	r0
   1BE8 E6                 5391 	mov	a,@r0
   1BE9 C0 E0              5392 	push	acc
   1BEB E5*00              5393 	mov	a,_bp
   1BED 24 08              5394 	add	a,#0x08
   1BEF F8                 5395 	mov	r0,a
   1BF0 E6                 5396 	mov	a,@r0
   1BF1 C0 E0              5397 	push	acc
   1BF3 08                 5398 	inc	r0
   1BF4 E6                 5399 	mov	a,@r0
   1BF5 C0 E0              5400 	push	acc
   1BF7 E5*00              5401 	mov	a,_bp
   1BF9 24 0A              5402 	add	a,#0x0a
   1BFB F8                 5403 	mov	r0,a
   1BFC E6                 5404 	mov	a,@r0
   1BFD C0 E0              5405 	push	acc
   1BFF 08                 5406 	inc	r0
   1C00 E6                 5407 	mov	a,@r0
   1C01 C0 E0              5408 	push	acc
   1C03 E5*00              5409 	mov	a,_bp
   1C05 24 0C              5410 	add	a,#0x0c
   1C07 F8                 5411 	mov	r0,a
   1C08 E6                 5412 	mov	a,@r0
   1C09 C0 E0              5413 	push	acc
   1C0B 08                 5414 	inc	r0
   1C0C E6                 5415 	mov	a,@r0
   1C0D C0 E0              5416 	push	acc
   1C0F C0 05              5417 	push	ar5
   1C11 C0 07              5418 	push	ar7
   1C13 74r47              5419 	mov	a,#__str_5
   1C15 C0 E0              5420 	push	acc
   1C17 74s00              5421 	mov	a,#(__str_5 >> 8)
   1C19 C0 E0              5422 	push	acc
   1C1B 74 80              5423 	mov	a,#0x80
   1C1D C0 E0              5424 	push	acc
   1C1F 12s00r00           5425 	lcall	_printf
   1C22 E5 81              5426 	mov	a,sp
   1C24 24 F1              5427 	add	a,#0xf1
   1C26 F5 81              5428 	mov	sp,a
                           5429 ;	../../core/net/rime/collect.c:1093: tc->sending = 0;
   1C28 A8*00              5430 	mov	r0,_bp
   1C2A 08                 5431 	inc	r0
   1C2B 74 A3              5432 	mov	a,#0xA3
   1C2D 26                 5433 	add	a,@r0
   1C2E FD                 5434 	mov	r5,a
   1C2F E4                 5435 	clr	a
   1C30 08                 5436 	inc	r0
   1C31 36                 5437 	addc	a,@r0
   1C32 FE                 5438 	mov	r6,a
   1C33 08                 5439 	inc	r0
   1C34 86 07              5440 	mov	ar7,@r0
   1C36 8D 82              5441 	mov	dpl,r5
   1C38 8E 83              5442 	mov	dph,r6
   1C3A 8F F0              5443 	mov	b,r7
   1C3C E4                 5444 	clr	a
   1C3D 12s00r00           5445 	lcall	__gptrput
                           5446 ;	../../core/net/rime/collect.c:1095: &tc->current_parent);
   1C40 A8*00              5447 	mov	r0,_bp
   1C42 08                 5448 	inc	r0
   1C43 E5*00              5449 	mov	a,_bp
   1C45 24 0E              5450 	add	a,#0x0e
   1C47 F9                 5451 	mov	r1,a
   1C48 74 9E              5452 	mov	a,#0x9E
   1C4A 26                 5453 	add	a,@r0
   1C4B F7                 5454 	mov	@r1,a
   1C4C E4                 5455 	clr	a
   1C4D 08                 5456 	inc	r0
   1C4E 36                 5457 	addc	a,@r0
   1C4F 09                 5458 	inc	r1
   1C50 F7                 5459 	mov	@r1,a
   1C51 08                 5460 	inc	r0
   1C52 09                 5461 	inc	r1
   1C53 E6                 5462 	mov	a,@r0
   1C54 F7                 5463 	mov	@r1,a
                           5464 ;	../../core/net/rime/collect.c:1094: n = collect_neighbor_list_find(&tc->neighbor_list,
   1C55 A8*00              5465 	mov	r0,_bp
   1C57 08                 5466 	inc	r0
   1C58 74 55              5467 	mov	a,#0x55
   1C5A 26                 5468 	add	a,@r0
   1C5B FD                 5469 	mov	r5,a
   1C5C E4                 5470 	clr	a
   1C5D 08                 5471 	inc	r0
   1C5E 36                 5472 	addc	a,@r0
   1C5F FE                 5473 	mov	r6,a
   1C60 08                 5474 	inc	r0
   1C61 86 07              5475 	mov	ar7,@r0
   1C63 E5*00              5476 	mov	a,_bp
   1C65 24 0E              5477 	add	a,#0x0e
   1C67 F8                 5478 	mov	r0,a
   1C68 E6                 5479 	mov	a,@r0
   1C69 C0 E0              5480 	push	acc
   1C6B 08                 5481 	inc	r0
   1C6C E6                 5482 	mov	a,@r0
   1C6D C0 E0              5483 	push	acc
   1C6F 08                 5484 	inc	r0
   1C70 E6                 5485 	mov	a,@r0
   1C71 C0 E0              5486 	push	acc
   1C73 8D 82              5487 	mov	dpl,r5
   1C75 8E 83              5488 	mov	dph,r6
   1C77 8F F0              5489 	mov	b,r7
   1C79 12s00r00           5490 	lcall	_collect_neighbor_list_find
   1C7C AD 82              5491 	mov	r5,dpl
   1C7E AE 83              5492 	mov	r6,dph
   1C80 AF F0              5493 	mov	r7,b
   1C82 15 81              5494 	dec	sp
   1C84 15 81              5495 	dec	sp
   1C86 15 81              5496 	dec	sp
   1C88 D0 02              5497 	pop	ar2
   1C8A D0 03              5498 	pop	ar3
   1C8C D0 04              5499 	pop	ar4
                           5500 ;	../../core/net/rime/collect.c:1096: if(n != NULL) {
   1C8E ED                 5501 	mov	a,r5
   1C8F 4E                 5502 	orl	a,r6
   1C90 60 1D              5503 	jz	00102$
                           5504 ;	../../core/net/rime/collect.c:1097: collect_neighbor_tx_fail(n, tc->max_rexmits);
   1C92 8A 82              5505 	mov	dpl,r2
   1C94 8B 83              5506 	mov	dph,r3
   1C96 8C F0              5507 	mov	b,r4
   1C98 12s00r00           5508 	lcall	__gptrget
   1C9B FA                 5509 	mov	r2,a
   1C9C 7C 00              5510 	mov	r4,#0x00
   1C9E C0 02              5511 	push	ar2
   1CA0 C0 04              5512 	push	ar4
   1CA2 8D 82              5513 	mov	dpl,r5
   1CA4 8E 83              5514 	mov	dph,r6
   1CA6 8F F0              5515 	mov	b,r7
   1CA8 12s00r00           5516 	lcall	_collect_neighbor_tx_fail
   1CAB 15 81              5517 	dec	sp
   1CAD 15 81              5518 	dec	sp
   1CAF                    5519 00102$:
                           5520 ;	../../core/net/rime/collect.c:1099: update_rtmetric(tc);
   1CAF A8*00              5521 	mov	r0,_bp
   1CB1 08                 5522 	inc	r0
   1CB2 86 82              5523 	mov	dpl,@r0
   1CB4 08                 5524 	inc	r0
   1CB5 86 83              5525 	mov	dph,@r0
   1CB7 08                 5526 	inc	r0
   1CB8 86 F0              5527 	mov	b,@r0
   1CBA 12s02rA0           5528 	lcall	_update_rtmetric
                           5529 ;	../../core/net/rime/collect.c:1100: send_next_packet(tc);
   1CBD A8*00              5530 	mov	r0,_bp
   1CBF 08                 5531 	inc	r0
   1CC0 86 82              5532 	mov	dpl,@r0
   1CC2 08                 5533 	inc	r0
   1CC3 86 83              5534 	mov	dph,@r0
   1CC5 08                 5535 	inc	r0
   1CC6 86 F0              5536 	mov	b,@r0
   1CC8 12s0DrE3           5537 	lcall	_send_next_packet
                           5538 ;	../../core/net/rime/collect.c:1101: set_keepalive_timer(tc);
   1CCB A8*00              5539 	mov	r0,_bp
   1CCD 08                 5540 	inc	r0
   1CCE 86 82              5541 	mov	dpl,@r0
   1CD0 08                 5542 	inc	r0
   1CD1 86 83              5543 	mov	dph,@r0
   1CD3 08                 5544 	inc	r0
   1CD4 86 F0              5545 	mov	b,@r0
   1CD6 12s23rC1           5546 	lcall	_set_keepalive_timer
   1CD9 85*00 81           5547 	mov	sp,_bp
   1CDC D0*00              5548 	pop	_bp
   1CDE 22                 5549 	ret
                           5550 ;------------------------------------------------------------
                           5551 ;Allocation info for local variables in function 'node_packet_sent'
                           5552 ;------------------------------------------------------------
                           5553 ;status                    Allocated to stack - _bp -4
                           5554 ;transmissions             Allocated to stack - _bp -6
                           5555 ;c                         Allocated to registers r5 r6 r7 
                           5556 ;tc                        Allocated to stack - _bp +1
                           5557 ;time                      Allocated to stack - _bp +4
                           5558 ;------------------------------------------------------------
                           5559 ;	../../core/net/rime/collect.c:1105: node_packet_sent(struct unicast_conn *c, int status, int transmissions)
                           5560 ;	-----------------------------------------
                           5561 ;	 function node_packet_sent
                           5562 ;	-----------------------------------------
   1CDF                    5563 _node_packet_sent:
   1CDF C0*00              5564 	push	_bp
   1CE1 E5 81              5565 	mov	a,sp
   1CE3 F5*00              5566 	mov	_bp,a
   1CE5 24 05              5567 	add	a,#0x05
   1CE7 F5 81              5568 	mov	sp,a
   1CE9 AD 82              5569 	mov	r5,dpl
   1CEB AE 83              5570 	mov	r6,dph
   1CED AF F0              5571 	mov	r7,b
                           5572 ;	../../core/net/rime/collect.c:1107: struct collect_conn *tc = (struct collect_conn *)
   1CEF A8*00              5573 	mov	r0,_bp
   1CF1 08                 5574 	inc	r0
   1CF2 A6 05              5575 	mov	@r0,ar5
   1CF4 08                 5576 	inc	r0
   1CF5 A6 06              5577 	mov	@r0,ar6
   1CF7 08                 5578 	inc	r0
   1CF8 A6 07              5579 	mov	@r0,ar7
                           5580 ;	../../core/net/rime/collect.c:1111: if(packetbuf_attr(PACKETBUF_ATTR_PACKET_TYPE) ==
   1CFA 75 82 0E           5581 	mov	dpl,#0x0E
   1CFD 12s00r00           5582 	lcall	_packetbuf_attr
   1D00 E5 82              5583 	mov	a,dpl
   1D02 85 83 F0           5584 	mov	b,dph
   1D05 45 F0              5585 	orl	a,b
   1D07 60 03              5586 	jz	00112$
   1D09 02s1DrE4           5587 	ljmp	00106$
   1D0C                    5588 00112$:
                           5589 ;	../../core/net/rime/collect.c:1114: tc->transmissions += transmissions;
   1D0C A8*00              5590 	mov	r0,_bp
   1D0E 08                 5591 	inc	r0
   1D0F 74 A4              5592 	mov	a,#0xA4
   1D11 26                 5593 	add	a,@r0
   1D12 FA                 5594 	mov	r2,a
   1D13 E4                 5595 	clr	a
   1D14 08                 5596 	inc	r0
   1D15 36                 5597 	addc	a,@r0
   1D16 FB                 5598 	mov	r3,a
   1D17 08                 5599 	inc	r0
   1D18 86 04              5600 	mov	ar4,@r0
   1D1A 8A 82              5601 	mov	dpl,r2
   1D1C 8B 83              5602 	mov	dph,r3
   1D1E 8C F0              5603 	mov	b,r4
   1D20 12s00r00           5604 	lcall	__gptrget
   1D23 FF                 5605 	mov	r7,a
   1D24 E5*00              5606 	mov	a,_bp
   1D26 24 FA              5607 	add	a,#0xfa
   1D28 F8                 5608 	mov	r0,a
   1D29 E6                 5609 	mov	a,@r0
   1D2A 2F                 5610 	add	a,r7
   1D2B FE                 5611 	mov	r6,a
   1D2C 8A 82              5612 	mov	dpl,r2
   1D2E 8B 83              5613 	mov	dph,r3
   1D30 8C F0              5614 	mov	b,r4
   1D32 12s00r00           5615 	lcall	__gptrput
                           5616 ;	../../core/net/rime/collect.c:1121: if(tc->transmissions >= tc->max_rexmits) {
   1D35 A8*00              5617 	mov	r0,_bp
   1D37 08                 5618 	inc	r0
   1D38 74 A5              5619 	mov	a,#0xA5
   1D3A 26                 5620 	add	a,@r0
   1D3B FC                 5621 	mov	r4,a
   1D3C E4                 5622 	clr	a
   1D3D 08                 5623 	inc	r0
   1D3E 36                 5624 	addc	a,@r0
   1D3F FD                 5625 	mov	r5,a
   1D40 08                 5626 	inc	r0
   1D41 86 07              5627 	mov	ar7,@r0
   1D43 8C 82              5628 	mov	dpl,r4
   1D45 8D 83              5629 	mov	dph,r5
   1D47 8F F0              5630 	mov	b,r7
   1D49 12s00r00           5631 	lcall	__gptrget
   1D4C FC                 5632 	mov	r4,a
   1D4D C3                 5633 	clr	c
   1D4E EE                 5634 	mov	a,r6
   1D4F 9C                 5635 	subb	a,r4
   1D50 40 39              5636 	jc	00102$
                           5637 ;	../../core/net/rime/collect.c:1122: timedout(tc);
   1D52 A8*00              5638 	mov	r0,_bp
   1D54 08                 5639 	inc	r0
   1D55 86 82              5640 	mov	dpl,@r0
   1D57 08                 5641 	inc	r0
   1D58 86 83              5642 	mov	dph,@r0
   1D5A 08                 5643 	inc	r0
   1D5B 86 F0              5644 	mov	b,@r0
   1D5D 12s1Br19           5645 	lcall	_timedout
                           5646 ;	../../core/net/rime/collect.c:1123: stats.timedout++;
   1D60 90s01r61           5647 	mov	dptr,#(_stats + 0x0034)
   1D63 E0                 5648 	movx	a,@dptr
   1D64 FC                 5649 	mov	r4,a
   1D65 A3                 5650 	inc	dptr
   1D66 E0                 5651 	movx	a,@dptr
   1D67 FD                 5652 	mov	r5,a
   1D68 A3                 5653 	inc	dptr
   1D69 E0                 5654 	movx	a,@dptr
   1D6A FE                 5655 	mov	r6,a
   1D6B A3                 5656 	inc	dptr
   1D6C E0                 5657 	movx	a,@dptr
   1D6D FF                 5658 	mov	r7,a
   1D6E 0C                 5659 	inc	r4
   1D6F BC 00 09           5660 	cjne	r4,#0x00,00114$
   1D72 0D                 5661 	inc	r5
   1D73 BD 00 05           5662 	cjne	r5,#0x00,00114$
   1D76 0E                 5663 	inc	r6
   1D77 BE 00 01           5664 	cjne	r6,#0x00,00114$
   1D7A 0F                 5665 	inc	r7
   1D7B                    5666 00114$:
   1D7B 90s01r61           5667 	mov	dptr,#(_stats + 0x0034)
   1D7E EC                 5668 	mov	a,r4
   1D7F F0                 5669 	movx	@dptr,a
   1D80 A3                 5670 	inc	dptr
   1D81 ED                 5671 	mov	a,r5
   1D82 F0                 5672 	movx	@dptr,a
   1D83 A3                 5673 	inc	dptr
   1D84 EE                 5674 	mov	a,r6
   1D85 F0                 5675 	movx	@dptr,a
   1D86 A3                 5676 	inc	dptr
   1D87 EF                 5677 	mov	a,r7
   1D88 F0                 5678 	movx	@dptr,a
   1D89 80 59              5679 	sjmp	00106$
   1D8B                    5680 00102$:
                           5681 ;	../../core/net/rime/collect.c:1125: clock_time_t time = REXMIT_TIME / 2 + (random_rand() % (REXMIT_TIME / 2));
   1D8B 12s00r00           5682 	lcall	_random_rand
   1D8E E5 82              5683 	mov	a,dpl
   1D90 85 83 F0           5684 	mov	b,dph
   1D93 FE                 5685 	mov	r6,a
   1D94 7F 00              5686 	mov	r7,#0x00
   1D96 E5*00              5687 	mov	a,_bp
   1D98 24 04              5688 	add	a,#0x04
   1D9A F8                 5689 	mov	r0,a
   1D9B A6 06              5690 	mov	@r0,ar6
   1D9D 74 01              5691 	mov	a,#0x01
   1D9F 2F                 5692 	add	a,r7
   1DA0 08                 5693 	inc	r0
   1DA1 F6                 5694 	mov	@r0,a
                           5695 ;	../../core/net/rime/collect.c:1128: retransmit_callback, tc);
   1DA2 A8*00              5696 	mov	r0,_bp
   1DA4 08                 5697 	inc	r0
   1DA5 86 03              5698 	mov	ar3,@r0
   1DA7 08                 5699 	inc	r0
   1DA8 86 04              5700 	mov	ar4,@r0
   1DAA 08                 5701 	inc	r0
   1DAB 86 05              5702 	mov	ar5,@r0
                           5703 ;	../../core/net/rime/collect.c:1127: ctimer_set(&tc->retransmission_timer, time,
   1DAD A8*00              5704 	mov	r0,_bp
   1DAF 08                 5705 	inc	r0
   1DB0 74 34              5706 	mov	a,#0x34
   1DB2 26                 5707 	add	a,@r0
   1DB3 FA                 5708 	mov	r2,a
   1DB4 E4                 5709 	clr	a
   1DB5 08                 5710 	inc	r0
   1DB6 36                 5711 	addc	a,@r0
   1DB7 FE                 5712 	mov	r6,a
   1DB8 08                 5713 	inc	r0
   1DB9 86 07              5714 	mov	ar7,@r0
   1DBB C0 03              5715 	push	ar3
   1DBD C0 04              5716 	push	ar4
   1DBF C0 05              5717 	push	ar5
   1DC1 74r45              5718 	mov	a,#_retransmit_callback
   1DC3 C0 E0              5719 	push	acc
   1DC5 74s1E              5720 	mov	a,#(_retransmit_callback >> 8)
   1DC7 C0 E0              5721 	push	acc
   1DC9 E5*00              5722 	mov	a,_bp
   1DCB 24 04              5723 	add	a,#0x04
   1DCD F8                 5724 	mov	r0,a
   1DCE E6                 5725 	mov	a,@r0
   1DCF C0 E0              5726 	push	acc
   1DD1 08                 5727 	inc	r0
   1DD2 E6                 5728 	mov	a,@r0
   1DD3 C0 E0              5729 	push	acc
   1DD5 8A 82              5730 	mov	dpl,r2
   1DD7 8E 83              5731 	mov	dph,r6
   1DD9 8F F0              5732 	mov	b,r7
   1DDB 12s00r00           5733 	lcall	_ctimer_set
   1DDE E5 81              5734 	mov	a,sp
   1DE0 24 F9              5735 	add	a,#0xf9
   1DE2 F5 81              5736 	mov	sp,a
   1DE4                    5737 00106$:
   1DE4 85*00 81           5738 	mov	sp,_bp
   1DE7 D0*00              5739 	pop	_bp
   1DE9 22                 5740 	ret
                           5741 ;------------------------------------------------------------
                           5742 ;Allocation info for local variables in function 'retransmit_not_sent_callback'
                           5743 ;------------------------------------------------------------
                           5744 ;ptr                       Allocated to registers r5 r6 r7 
                           5745 ;c                         Allocated to stack - _bp +1
                           5746 ;------------------------------------------------------------
                           5747 ;	../../core/net/rime/collect.c:1142: retransmit_not_sent_callback(void *ptr)
                           5748 ;	-----------------------------------------
                           5749 ;	 function retransmit_not_sent_callback
                           5750 ;	-----------------------------------------
   1DEA                    5751 _retransmit_not_sent_callback:
   1DEA C0*00              5752 	push	_bp
   1DEC 85 81*00           5753 	mov	_bp,sp
   1DEF 05 81              5754 	inc	sp
   1DF1 05 81              5755 	inc	sp
   1DF3 05 81              5756 	inc	sp
   1DF5 AD 82              5757 	mov	r5,dpl
   1DF7 AE 83              5758 	mov	r6,dph
   1DF9 AF F0              5759 	mov	r7,b
                           5760 ;	../../core/net/rime/collect.c:1144: struct collect_conn *c = ptr;
   1DFB A8*00              5761 	mov	r0,_bp
   1DFD 08                 5762 	inc	r0
   1DFE A6 05              5763 	mov	@r0,ar5
   1E00 08                 5764 	inc	r0
   1E01 A6 06              5765 	mov	@r0,ar6
   1E03 08                 5766 	inc	r0
   1E04 A6 07              5767 	mov	@r0,ar7
                           5768 ;	../../core/net/rime/collect.c:1147: c->transmissions += MAX_MAC_REXMITS + 1;
   1E06 A8*00              5769 	mov	r0,_bp
   1E08 08                 5770 	inc	r0
   1E09 74 A4              5771 	mov	a,#0xA4
   1E0B 26                 5772 	add	a,@r0
   1E0C FA                 5773 	mov	r2,a
   1E0D E4                 5774 	clr	a
   1E0E 08                 5775 	inc	r0
   1E0F 36                 5776 	addc	a,@r0
   1E10 FB                 5777 	mov	r3,a
   1E11 08                 5778 	inc	r0
   1E12 86 04              5779 	mov	ar4,@r0
   1E14 8A 82              5780 	mov	dpl,r2
   1E16 8B 83              5781 	mov	dph,r3
   1E18 8C F0              5782 	mov	b,r4
   1E1A 12s00r00           5783 	lcall	__gptrget
   1E1D FF                 5784 	mov	r7,a
   1E1E 0F                 5785 	inc	r7
   1E1F 0F                 5786 	inc	r7
   1E20 0F                 5787 	inc	r7
   1E21 8A 82              5788 	mov	dpl,r2
   1E23 8B 83              5789 	mov	dph,r3
   1E25 8C F0              5790 	mov	b,r4
   1E27 EF                 5791 	mov	a,r7
   1E28 12s00r00           5792 	lcall	__gptrput
                           5793 ;	../../core/net/rime/collect.c:1148: retransmit_callback(c);
   1E2B A8*00              5794 	mov	r0,_bp
   1E2D 08                 5795 	inc	r0
   1E2E 86 05              5796 	mov	ar5,@r0
   1E30 08                 5797 	inc	r0
   1E31 86 06              5798 	mov	ar6,@r0
   1E33 08                 5799 	inc	r0
   1E34 86 07              5800 	mov	ar7,@r0
   1E36 8D 82              5801 	mov	dpl,r5
   1E38 8E 83              5802 	mov	dph,r6
   1E3A 8F F0              5803 	mov	b,r7
   1E3C 12s1Er45           5804 	lcall	_retransmit_callback
   1E3F 85*00 81           5805 	mov	sp,_bp
   1E42 D0*00              5806 	pop	_bp
   1E44 22                 5807 	ret
                           5808 ;------------------------------------------------------------
                           5809 ;Allocation info for local variables in function 'retransmit_callback'
                           5810 ;------------------------------------------------------------
                           5811 ;ptr                       Allocated to registers r5 r6 r7 
                           5812 ;c                         Allocated to stack - _bp +1
                           5813 ;------------------------------------------------------------
                           5814 ;	../../core/net/rime/collect.c:1159: retransmit_callback(void *ptr)
                           5815 ;	-----------------------------------------
                           5816 ;	 function retransmit_callback
                           5817 ;	-----------------------------------------
   1E45                    5818 _retransmit_callback:
   1E45 C0*00              5819 	push	_bp
   1E47 85 81*00           5820 	mov	_bp,sp
   1E4A 05 81              5821 	inc	sp
   1E4C 05 81              5822 	inc	sp
   1E4E 05 81              5823 	inc	sp
   1E50 AD 82              5824 	mov	r5,dpl
   1E52 AE 83              5825 	mov	r6,dph
   1E54 AF F0              5826 	mov	r7,b
                           5827 ;	../../core/net/rime/collect.c:1161: struct collect_conn *c = ptr;
   1E56 A8*00              5828 	mov	r0,_bp
   1E58 08                 5829 	inc	r0
   1E59 A6 05              5830 	mov	@r0,ar5
   1E5B 08                 5831 	inc	r0
   1E5C A6 06              5832 	mov	@r0,ar6
   1E5E 08                 5833 	inc	r0
   1E5F A6 07              5834 	mov	@r0,ar7
                           5835 ;	../../core/net/rime/collect.c:1164: if(c->transmissions >= c->max_rexmits) {
   1E61 A8*00              5836 	mov	r0,_bp
   1E63 08                 5837 	inc	r0
   1E64 74 A4              5838 	mov	a,#0xA4
   1E66 26                 5839 	add	a,@r0
   1E67 FA                 5840 	mov	r2,a
   1E68 E4                 5841 	clr	a
   1E69 08                 5842 	inc	r0
   1E6A 36                 5843 	addc	a,@r0
   1E6B FB                 5844 	mov	r3,a
   1E6C 08                 5845 	inc	r0
   1E6D 86 04              5846 	mov	ar4,@r0
   1E6F 8A 82              5847 	mov	dpl,r2
   1E71 8B 83              5848 	mov	dph,r3
   1E73 8C F0              5849 	mov	b,r4
   1E75 12s00r00           5850 	lcall	__gptrget
   1E78 FA                 5851 	mov	r2,a
   1E79 A8*00              5852 	mov	r0,_bp
   1E7B 08                 5853 	inc	r0
   1E7C 74 A5              5854 	mov	a,#0xA5
   1E7E 26                 5855 	add	a,@r0
   1E7F FB                 5856 	mov	r3,a
   1E80 E4                 5857 	clr	a
   1E81 08                 5858 	inc	r0
   1E82 36                 5859 	addc	a,@r0
   1E83 FC                 5860 	mov	r4,a
   1E84 08                 5861 	inc	r0
   1E85 86 07              5862 	mov	ar7,@r0
   1E87 8B 82              5863 	mov	dpl,r3
   1E89 8C 83              5864 	mov	dph,r4
   1E8B 8F F0              5865 	mov	b,r7
   1E8D 12s00r00           5866 	lcall	__gptrget
   1E90 FB                 5867 	mov	r3,a
   1E91 C3                 5868 	clr	c
   1E92 EA                 5869 	mov	a,r2
   1E93 9B                 5870 	subb	a,r3
   1E94 40 39              5871 	jc	00102$
                           5872 ;	../../core/net/rime/collect.c:1165: timedout(c);
   1E96 A8*00              5873 	mov	r0,_bp
   1E98 08                 5874 	inc	r0
   1E99 86 82              5875 	mov	dpl,@r0
   1E9B 08                 5876 	inc	r0
   1E9C 86 83              5877 	mov	dph,@r0
   1E9E 08                 5878 	inc	r0
   1E9F 86 F0              5879 	mov	b,@r0
   1EA1 12s1Br19           5880 	lcall	_timedout
                           5881 ;	../../core/net/rime/collect.c:1166: stats.timedout++;
   1EA4 90s01r61           5882 	mov	dptr,#(_stats + 0x0034)
   1EA7 E0                 5883 	movx	a,@dptr
   1EA8 FC                 5884 	mov	r4,a
   1EA9 A3                 5885 	inc	dptr
   1EAA E0                 5886 	movx	a,@dptr
   1EAB FD                 5887 	mov	r5,a
   1EAC A3                 5888 	inc	dptr
   1EAD E0                 5889 	movx	a,@dptr
   1EAE FE                 5890 	mov	r6,a
   1EAF A3                 5891 	inc	dptr
   1EB0 E0                 5892 	movx	a,@dptr
   1EB1 FF                 5893 	mov	r7,a
   1EB2 0C                 5894 	inc	r4
   1EB3 BC 00 09           5895 	cjne	r4,#0x00,00109$
   1EB6 0D                 5896 	inc	r5
   1EB7 BD 00 05           5897 	cjne	r5,#0x00,00109$
   1EBA 0E                 5898 	inc	r6
   1EBB BE 00 01           5899 	cjne	r6,#0x00,00109$
   1EBE 0F                 5900 	inc	r7
   1EBF                    5901 00109$:
   1EBF 90s01r61           5902 	mov	dptr,#(_stats + 0x0034)
   1EC2 EC                 5903 	mov	a,r4
   1EC3 F0                 5904 	movx	@dptr,a
   1EC4 A3                 5905 	inc	dptr
   1EC5 ED                 5906 	mov	a,r5
   1EC6 F0                 5907 	movx	@dptr,a
   1EC7 A3                 5908 	inc	dptr
   1EC8 EE                 5909 	mov	a,r6
   1EC9 F0                 5910 	movx	@dptr,a
   1ECA A3                 5911 	inc	dptr
   1ECB EF                 5912 	mov	a,r7
   1ECC F0                 5913 	movx	@dptr,a
   1ECD 80 26              5914 	sjmp	00104$
   1ECF                    5915 00102$:
                           5916 ;	../../core/net/rime/collect.c:1168: c->sending = 0;
   1ECF A8*00              5917 	mov	r0,_bp
   1ED1 08                 5918 	inc	r0
   1ED2 74 A3              5919 	mov	a,#0xA3
   1ED4 26                 5920 	add	a,@r0
   1ED5 FD                 5921 	mov	r5,a
   1ED6 E4                 5922 	clr	a
   1ED7 08                 5923 	inc	r0
   1ED8 36                 5924 	addc	a,@r0
   1ED9 FE                 5925 	mov	r6,a
   1EDA 08                 5926 	inc	r0
   1EDB 86 07              5927 	mov	ar7,@r0
   1EDD 8D 82              5928 	mov	dpl,r5
   1EDF 8E 83              5929 	mov	dph,r6
   1EE1 8F F0              5930 	mov	b,r7
   1EE3 E4                 5931 	clr	a
   1EE4 12s00r00           5932 	lcall	__gptrput
                           5933 ;	../../core/net/rime/collect.c:1169: retransmit_current_packet(c);
   1EE7 A8*00              5934 	mov	r0,_bp
   1EE9 08                 5935 	inc	r0
   1EEA 86 82              5936 	mov	dpl,@r0
   1EEC 08                 5937 	inc	r0
   1EED 86 83              5938 	mov	dph,@r0
   1EEF 08                 5939 	inc	r0
   1EF0 86 F0              5940 	mov	b,@r0
   1EF2 12s0Br3D           5941 	lcall	_retransmit_current_packet
   1EF5                    5942 00104$:
   1EF5 85*00 81           5943 	mov	sp,_bp
   1EF8 D0*00              5944 	pop	_bp
   1EFA 22                 5945 	ret
                           5946 ;------------------------------------------------------------
                           5947 ;Allocation info for local variables in function 'received_announcement'
                           5948 ;------------------------------------------------------------
                           5949 ;from                      Allocated to stack - _bp -5
                           5950 ;id                        Allocated to stack - _bp -7
                           5951 ;value                     Allocated to stack - _bp -9
                           5952 ;a                         Allocated to registers r5 r6 r7 
                           5953 ;tc                        Allocated to stack - _bp +1
                           5954 ;n                         Allocated to registers r2 r3 r4 
                           5955 ;sloc0                     Allocated to stack - _bp +10
                           5956 ;------------------------------------------------------------
                           5957 ;	../../core/net/rime/collect.c:1212: received_announcement(struct announcement *a, const rimeaddr_t *from,
                           5958 ;	-----------------------------------------
                           5959 ;	 function received_announcement
                           5960 ;	-----------------------------------------
   1EFB                    5961 _received_announcement:
   1EFB C0*00              5962 	push	_bp
   1EFD 85 81*00           5963 	mov	_bp,sp
   1F00 05 81              5964 	inc	sp
   1F02 05 81              5965 	inc	sp
   1F04 05 81              5966 	inc	sp
   1F06 AD 82              5967 	mov	r5,dpl
   1F08 AE 83              5968 	mov	r6,dph
   1F0A AF F0              5969 	mov	r7,b
                           5970 ;	../../core/net/rime/collect.c:1215: struct collect_conn *tc = (struct collect_conn *)
   1F0C ED                 5971 	mov	a,r5
   1F0D 24 EE              5972 	add	a,#0xEE
   1F0F FD                 5973 	mov	r5,a
   1F10 EE                 5974 	mov	a,r6
   1F11 34 FF              5975 	addc	a,#0xFF
   1F13 FE                 5976 	mov	r6,a
   1F14 A8*00              5977 	mov	r0,_bp
   1F16 08                 5978 	inc	r0
   1F17 A6 05              5979 	mov	@r0,ar5
   1F19 08                 5980 	inc	r0
   1F1A A6 06              5981 	mov	@r0,ar6
   1F1C 08                 5982 	inc	r0
   1F1D A6 07              5983 	mov	@r0,ar7
                           5984 ;	../../core/net/rime/collect.c:1219: n = collect_neighbor_list_find(&tc->neighbor_list, from);
   1F1F A8*00              5985 	mov	r0,_bp
   1F21 08                 5986 	inc	r0
   1F22 74 55              5987 	mov	a,#0x55
   1F24 26                 5988 	add	a,@r0
   1F25 FA                 5989 	mov	r2,a
   1F26 E4                 5990 	clr	a
   1F27 08                 5991 	inc	r0
   1F28 36                 5992 	addc	a,@r0
   1F29 FB                 5993 	mov	r3,a
   1F2A 08                 5994 	inc	r0
   1F2B 86 04              5995 	mov	ar4,@r0
   1F2D E5*00              5996 	mov	a,_bp
   1F2F 24 FB              5997 	add	a,#0xfb
   1F31 F8                 5998 	mov	r0,a
   1F32 E6                 5999 	mov	a,@r0
   1F33 C0 E0              6000 	push	acc
   1F35 08                 6001 	inc	r0
   1F36 E6                 6002 	mov	a,@r0
   1F37 C0 E0              6003 	push	acc
   1F39 08                 6004 	inc	r0
   1F3A E6                 6005 	mov	a,@r0
   1F3B C0 E0              6006 	push	acc
   1F3D 8A 82              6007 	mov	dpl,r2
   1F3F 8B 83              6008 	mov	dph,r3
   1F41 8C F0              6009 	mov	b,r4
   1F43 12s00r00           6010 	lcall	_collect_neighbor_list_find
   1F46 AA 82              6011 	mov	r2,dpl
   1F48 AB 83              6012 	mov	r3,dph
   1F4A AC F0              6013 	mov	r4,b
   1F4C 15 81              6014 	dec	sp
   1F4E 15 81              6015 	dec	sp
   1F50 15 81              6016 	dec	sp
                           6017 ;	../../core/net/rime/collect.c:1221: if(n == NULL) {
   1F52 EA                 6018 	mov	a,r2
   1F53 4B                 6019 	orl	a,r3
   1F54 60 03              6020 	jz	00133$
   1F56 02s20r00           6021 	ljmp	00110$
   1F59                    6022 00133$:
                           6023 ;	../../core/net/rime/collect.c:1224: if(value < tc->rtmetric) {
   1F59 A8*00              6024 	mov	r0,_bp
   1F5B 08                 6025 	inc	r0
   1F5C 74 A0              6026 	mov	a,#0xA0
   1F5E 26                 6027 	add	a,@r0
   1F5F FC                 6028 	mov	r4,a
   1F60 E4                 6029 	clr	a
   1F61 08                 6030 	inc	r0
   1F62 36                 6031 	addc	a,@r0
   1F63 FB                 6032 	mov	r3,a
   1F64 08                 6033 	inc	r0
   1F65 86 02              6034 	mov	ar2,@r0
   1F67 8C 82              6035 	mov	dpl,r4
   1F69 8B 83              6036 	mov	dph,r3
   1F6B 8A F0              6037 	mov	b,r2
   1F6D 12s00r00           6038 	lcall	__gptrget
   1F70 FE                 6039 	mov	r6,a
   1F71 A3                 6040 	inc	dptr
   1F72 12s00r00           6041 	lcall	__gptrget
   1F75 FF                 6042 	mov	r7,a
   1F76 E5*00              6043 	mov	a,_bp
   1F78 24 F7              6044 	add	a,#0xf7
   1F7A F8                 6045 	mov	r0,a
   1F7B C3                 6046 	clr	c
   1F7C E6                 6047 	mov	a,@r0
   1F7D 9E                 6048 	subb	a,r6
   1F7E 08                 6049 	inc	r0
   1F7F E6                 6050 	mov	a,@r0
   1F80 9F                 6051 	subb	a,r7
   1F81 50 45              6052 	jnc	00102$
                           6053 ;	../../core/net/rime/collect.c:1225: collect_neighbor_list_add(&tc->neighbor_list, from, value);
   1F83 A8*00              6054 	mov	r0,_bp
   1F85 08                 6055 	inc	r0
   1F86 74 55              6056 	mov	a,#0x55
   1F88 26                 6057 	add	a,@r0
   1F89 FD                 6058 	mov	r5,a
   1F8A E4                 6059 	clr	a
   1F8B 08                 6060 	inc	r0
   1F8C 36                 6061 	addc	a,@r0
   1F8D FE                 6062 	mov	r6,a
   1F8E 08                 6063 	inc	r0
   1F8F 86 07              6064 	mov	ar7,@r0
   1F91 C0 04              6065 	push	ar4
   1F93 C0 03              6066 	push	ar3
   1F95 C0 02              6067 	push	ar2
   1F97 E5*00              6068 	mov	a,_bp
   1F99 24 F7              6069 	add	a,#0xf7
   1F9B F8                 6070 	mov	r0,a
   1F9C E6                 6071 	mov	a,@r0
   1F9D C0 E0              6072 	push	acc
   1F9F 08                 6073 	inc	r0
   1FA0 E6                 6074 	mov	a,@r0
   1FA1 C0 E0              6075 	push	acc
   1FA3 E5*00              6076 	mov	a,_bp
   1FA5 24 FB              6077 	add	a,#0xfb
   1FA7 F8                 6078 	mov	r0,a
   1FA8 E6                 6079 	mov	a,@r0
   1FA9 C0 E0              6080 	push	acc
   1FAB 08                 6081 	inc	r0
   1FAC E6                 6082 	mov	a,@r0
   1FAD C0 E0              6083 	push	acc
   1FAF 08                 6084 	inc	r0
   1FB0 E6                 6085 	mov	a,@r0
   1FB1 C0 E0              6086 	push	acc
   1FB3 8D 82              6087 	mov	dpl,r5
   1FB5 8E 83              6088 	mov	dph,r6
   1FB7 8F F0              6089 	mov	b,r7
   1FB9 12s00r00           6090 	lcall	_collect_neighbor_list_add
   1FBC E5 81              6091 	mov	a,sp
   1FBE 24 FB              6092 	add	a,#0xfb
   1FC0 F5 81              6093 	mov	sp,a
   1FC2 D0 02              6094 	pop	ar2
   1FC4 D0 03              6095 	pop	ar3
   1FC6 D0 04              6096 	pop	ar4
   1FC8                    6097 00102$:
                           6098 ;	../../core/net/rime/collect.c:1230: if(value == RTMETRIC_MAX && tc->rtmetric != RTMETRIC_MAX) {
   1FC8 E5*00              6099 	mov	a,_bp
   1FCA 24 F7              6100 	add	a,#0xf7
   1FCC F8                 6101 	mov	r0,a
   1FCD B6 FF 06           6102 	cjne	@r0,#0xFF,00135$
   1FD0 08                 6103 	inc	r0
   1FD1 B6 01 02           6104 	cjne	@r0,#0x01,00135$
   1FD4 80 03              6105 	sjmp	00136$
   1FD6                    6106 00135$:
   1FD6 02s20r60           6107 	ljmp	00111$
   1FD9                    6108 00136$:
   1FD9 8C 82              6109 	mov	dpl,r4
   1FDB 8B 83              6110 	mov	dph,r3
   1FDD 8A F0              6111 	mov	b,r2
   1FDF 12s00r00           6112 	lcall	__gptrget
   1FE2 FE                 6113 	mov	r6,a
   1FE3 A3                 6114 	inc	dptr
   1FE4 12s00r00           6115 	lcall	__gptrget
   1FE7 FF                 6116 	mov	r7,a
   1FE8 BE FF 05           6117 	cjne	r6,#0xFF,00137$
   1FEB BF 01 02           6118 	cjne	r7,#0x01,00137$
   1FEE 80 70              6119 	sjmp	00111$
   1FF0                    6120 00137$:
                           6121 ;	../../core/net/rime/collect.c:1231: bump_advertisement(tc);
   1FF0 A8*00              6122 	mov	r0,_bp
   1FF2 08                 6123 	inc	r0
   1FF3 86 82              6124 	mov	dpl,@r0
   1FF5 08                 6125 	inc	r0
   1FF6 86 83              6126 	mov	dph,@r0
   1FF8 08                 6127 	inc	r0
   1FF9 86 F0              6128 	mov	b,@r0
   1FFB 12s00r51           6129 	lcall	_bump_advertisement
   1FFE 80 60              6130 	sjmp	00111$
   2000                    6131 00110$:
                           6132 ;	../../core/net/rime/collect.c:1242: if(value == RTMETRIC_MAX &&
   2000 E5*00              6133 	mov	a,_bp
   2002 24 F7              6134 	add	a,#0xf7
   2004 F8                 6135 	mov	r0,a
   2005 B6 FF 3F           6136 	cjne	@r0,#0xFF,00107$
   2008 08                 6137 	inc	r0
   2009 B6 01 3B           6138 	cjne	@r0,#0x01,00107$
                           6139 ;	../../core/net/rime/collect.c:1243: collect_neighbor_rtmetric(n) != RTMETRIC_MAX) {
   200C 8A 82              6140 	mov	dpl,r2
   200E 8B 83              6141 	mov	dph,r3
   2010 8C F0              6142 	mov	b,r4
   2012 C0 04              6143 	push	ar4
   2014 C0 03              6144 	push	ar3
   2016 C0 02              6145 	push	ar2
   2018 12s00r00           6146 	lcall	_collect_neighbor_rtmetric
   201B AE 82              6147 	mov	r6,dpl
   201D AF 83              6148 	mov	r7,dph
   201F D0 02              6149 	pop	ar2
   2021 D0 03              6150 	pop	ar3
   2023 D0 04              6151 	pop	ar4
   2025 BE FF 05           6152 	cjne	r6,#0xFF,00140$
   2028 BF 01 02           6153 	cjne	r7,#0x01,00140$
   202B 80 1A              6154 	sjmp	00107$
   202D                    6155 00140$:
                           6156 ;	../../core/net/rime/collect.c:1244: bump_advertisement(tc);
   202D A8*00              6157 	mov	r0,_bp
   202F 08                 6158 	inc	r0
   2030 86 82              6159 	mov	dpl,@r0
   2032 08                 6160 	inc	r0
   2033 86 83              6161 	mov	dph,@r0
   2035 08                 6162 	inc	r0
   2036 86 F0              6163 	mov	b,@r0
   2038 C0 04              6164 	push	ar4
   203A C0 03              6165 	push	ar3
   203C C0 02              6166 	push	ar2
   203E 12s00r51           6167 	lcall	_bump_advertisement
   2041 D0 02              6168 	pop	ar2
   2043 D0 03              6169 	pop	ar3
   2045 D0 04              6170 	pop	ar4
   2047                    6171 00107$:
                           6172 ;	../../core/net/rime/collect.c:1246: collect_neighbor_update_rtmetric(n, value);
   2047 E5*00              6173 	mov	a,_bp
   2049 24 F7              6174 	add	a,#0xf7
   204B F8                 6175 	mov	r0,a
   204C E6                 6176 	mov	a,@r0
   204D C0 E0              6177 	push	acc
   204F 08                 6178 	inc	r0
   2050 E6                 6179 	mov	a,@r0
   2051 C0 E0              6180 	push	acc
   2053 8A 82              6181 	mov	dpl,r2
   2055 8B 83              6182 	mov	dph,r3
   2057 8C F0              6183 	mov	b,r4
   2059 12s00r00           6184 	lcall	_collect_neighbor_update_rtmetric
   205C 15 81              6185 	dec	sp
   205E 15 81              6186 	dec	sp
   2060                    6187 00111$:
                           6188 ;	../../core/net/rime/collect.c:1252: update_rtmetric(tc);
   2060 A8*00              6189 	mov	r0,_bp
   2062 08                 6190 	inc	r0
   2063 86 82              6191 	mov	dpl,@r0
   2065 08                 6192 	inc	r0
   2066 86 83              6193 	mov	dph,@r0
   2068 08                 6194 	inc	r0
   2069 86 F0              6195 	mov	b,@r0
   206B 12s02rA0           6196 	lcall	_update_rtmetric
                           6197 ;	../../core/net/rime/collect.c:1255: if(value == RTMETRIC_MAX &&
   206E E5*00              6198 	mov	a,_bp
   2070 24 F7              6199 	add	a,#0xf7
   2072 F8                 6200 	mov	r0,a
   2073 B6 FF 40           6201 	cjne	@r0,#0xFF,00115$
   2076 08                 6202 	inc	r0
   2077 B6 01 3C           6203 	cjne	@r0,#0x01,00115$
                           6204 ;	../../core/net/rime/collect.c:1256: tc->rtmetric != RTMETRIC_MAX) {
   207A A8*00              6205 	mov	r0,_bp
   207C 08                 6206 	inc	r0
   207D 74 A0              6207 	mov	a,#0xA0
   207F 26                 6208 	add	a,@r0
   2080 FD                 6209 	mov	r5,a
   2081 E4                 6210 	clr	a
   2082 08                 6211 	inc	r0
   2083 36                 6212 	addc	a,@r0
   2084 FE                 6213 	mov	r6,a
   2085 08                 6214 	inc	r0
   2086 86 07              6215 	mov	ar7,@r0
   2088 8D 82              6216 	mov	dpl,r5
   208A 8E 83              6217 	mov	dph,r6
   208C 8F F0              6218 	mov	b,r7
   208E 12s00r00           6219 	lcall	__gptrget
   2091 FD                 6220 	mov	r5,a
   2092 A3                 6221 	inc	dptr
   2093 12s00r00           6222 	lcall	__gptrget
   2096 FE                 6223 	mov	r6,a
   2097 BD FF 05           6224 	cjne	r5,#0xFF,00143$
   209A BE 01 02           6225 	cjne	r6,#0x01,00143$
   209D 80 17              6226 	sjmp	00115$
   209F                    6227 00143$:
                           6228 ;	../../core/net/rime/collect.c:1257: announcement_bump(&tc->announcement);
   209F A8*00              6229 	mov	r0,_bp
   20A1 08                 6230 	inc	r0
   20A2 74 12              6231 	mov	a,#0x12
   20A4 26                 6232 	add	a,@r0
   20A5 FD                 6233 	mov	r5,a
   20A6 E4                 6234 	clr	a
   20A7 08                 6235 	inc	r0
   20A8 36                 6236 	addc	a,@r0
   20A9 FE                 6237 	mov	r6,a
   20AA 08                 6238 	inc	r0
   20AB 86 07              6239 	mov	ar7,@r0
   20AD 8D 82              6240 	mov	dpl,r5
   20AF 8E 83              6241 	mov	dph,r6
   20B1 8F F0              6242 	mov	b,r7
   20B3 12s00r00           6243 	lcall	_announcement_bump
   20B6                    6244 00115$:
   20B6 85*00 81           6245 	mov	sp,_bp
   20B9 D0*00              6246 	pop	_bp
   20BB 22                 6247 	ret
                           6248 ;------------------------------------------------------------
                           6249 ;Allocation info for local variables in function 'collect_open'
                           6250 ;------------------------------------------------------------
                           6251 ;channels                  Allocated to stack - _bp -4
                           6252 ;is_router                 Allocated to stack - _bp -5
                           6253 ;cb                        Allocated to stack - _bp -8
                           6254 ;tc                        Allocated to stack - _bp +1
                           6255 ;sloc0                     Allocated to stack - _bp +4
                           6256 ;------------------------------------------------------------
                           6257 ;	../../core/net/rime/collect.c:1271: collect_open(struct collect_conn *tc, uint16_t channels,
                           6258 ;	-----------------------------------------
                           6259 ;	 function collect_open
                           6260 ;	-----------------------------------------
   20BC                    6261 _collect_open:
   20BC C0*00              6262 	push	_bp
   20BE 85 81*00           6263 	mov	_bp,sp
   20C1 C0 82              6264 	push	dpl
   20C3 C0 83              6265 	push	dph
   20C5 C0 F0              6266 	push	b
   20C7 05 81              6267 	inc	sp
   20C9 05 81              6268 	inc	sp
                           6269 ;	../../core/net/rime/collect.c:1275: unicast_open(&tc->unicast_conn, channels + 1, &unicast_callbacks);
   20CB E5*00              6270 	mov	a,_bp
   20CD 24 FC              6271 	add	a,#0xfc
   20CF F8                 6272 	mov	r0,a
   20D0 74 01              6273 	mov	a,#0x01
   20D2 26                 6274 	add	a,@r0
   20D3 FB                 6275 	mov	r3,a
   20D4 E4                 6276 	clr	a
   20D5 08                 6277 	inc	r0
   20D6 36                 6278 	addc	a,@r0
   20D7 FC                 6279 	mov	r4,a
   20D8 C0 04              6280 	push	ar4
   20DA C0 03              6281 	push	ar3
   20DC 74rA3              6282 	mov	a,#_unicast_callbacks
   20DE C0 E0              6283 	push	acc
   20E0 74s00              6284 	mov	a,#(_unicast_callbacks >> 8)
   20E2 C0 E0              6285 	push	acc
   20E4 74 80              6286 	mov	a,#0x80
   20E6 C0 E0              6287 	push	acc
   20E8 C0 03              6288 	push	ar3
   20EA C0 04              6289 	push	ar4
   20EC A8*00              6290 	mov	r0,_bp
   20EE 08                 6291 	inc	r0
   20EF 86 82              6292 	mov	dpl,@r0
   20F1 08                 6293 	inc	r0
   20F2 86 83              6294 	mov	dph,@r0
   20F4 08                 6295 	inc	r0
   20F5 86 F0              6296 	mov	b,@r0
   20F7 12s00r00           6297 	lcall	_unicast_open
   20FA E5 81              6298 	mov	a,sp
   20FC 24 FB              6299 	add	a,#0xfb
   20FE F5 81              6300 	mov	sp,a
   2100 D0 03              6301 	pop	ar3
   2102 D0 04              6302 	pop	ar4
                           6303 ;	../../core/net/rime/collect.c:1276: channel_set_attributes(channels + 1, attributes);
   2104 74r00              6304 	mov	a,#_attributes
   2106 C0 E0              6305 	push	acc
   2108 74s00              6306 	mov	a,#(_attributes >> 8)
   210A C0 E0              6307 	push	acc
   210C 74 80              6308 	mov	a,#0x80
   210E C0 E0              6309 	push	acc
   2110 8B 82              6310 	mov	dpl,r3
   2112 8C 83              6311 	mov	dph,r4
   2114 12s00r00           6312 	lcall	_channel_set_attributes
   2117 15 81              6313 	dec	sp
   2119 15 81              6314 	dec	sp
   211B 15 81              6315 	dec	sp
                           6316 ;	../../core/net/rime/collect.c:1277: tc->rtmetric = RTMETRIC_MAX;
   211D A8*00              6317 	mov	r0,_bp
   211F 08                 6318 	inc	r0
   2120 74 A0              6319 	mov	a,#0xA0
   2122 26                 6320 	add	a,@r0
   2123 FA                 6321 	mov	r2,a
   2124 E4                 6322 	clr	a
   2125 08                 6323 	inc	r0
   2126 36                 6324 	addc	a,@r0
   2127 FB                 6325 	mov	r3,a
   2128 08                 6326 	inc	r0
   2129 86 04              6327 	mov	ar4,@r0
   212B 8A 82              6328 	mov	dpl,r2
   212D 8B 83              6329 	mov	dph,r3
   212F 8C F0              6330 	mov	b,r4
   2131 74 FF              6331 	mov	a,#0xFF
   2133 12s00r00           6332 	lcall	__gptrput
   2136 A3                 6333 	inc	dptr
   2137 74 01              6334 	mov	a,#0x01
   2139 12s00r00           6335 	lcall	__gptrput
                           6336 ;	../../core/net/rime/collect.c:1278: tc->cb = cb;
   213C A8*00              6337 	mov	r0,_bp
   213E 08                 6338 	inc	r0
   213F 74 31              6339 	mov	a,#0x31
   2141 26                 6340 	add	a,@r0
   2142 FA                 6341 	mov	r2,a
   2143 E4                 6342 	clr	a
   2144 08                 6343 	inc	r0
   2145 36                 6344 	addc	a,@r0
   2146 FB                 6345 	mov	r3,a
   2147 08                 6346 	inc	r0
   2148 86 04              6347 	mov	ar4,@r0
   214A 8A 82              6348 	mov	dpl,r2
   214C 8B 83              6349 	mov	dph,r3
   214E 8C F0              6350 	mov	b,r4
   2150 E5*00              6351 	mov	a,_bp
   2152 24 F8              6352 	add	a,#0xf8
   2154 F8                 6353 	mov	r0,a
   2155 E6                 6354 	mov	a,@r0
   2156 12s00r00           6355 	lcall	__gptrput
   2159 A3                 6356 	inc	dptr
   215A 08                 6357 	inc	r0
   215B E6                 6358 	mov	a,@r0
   215C 12s00r00           6359 	lcall	__gptrput
   215F A3                 6360 	inc	dptr
   2160 08                 6361 	inc	r0
   2161 E6                 6362 	mov	a,@r0
   2162 12s00r00           6363 	lcall	__gptrput
                           6364 ;	../../core/net/rime/collect.c:1279: tc->is_router = is_router;
   2165 A8*00              6365 	mov	r0,_bp
   2167 08                 6366 	inc	r0
   2168 74 A7              6367 	mov	a,#0xA7
   216A 26                 6368 	add	a,@r0
   216B FA                 6369 	mov	r2,a
   216C E4                 6370 	clr	a
   216D 08                 6371 	inc	r0
   216E 36                 6372 	addc	a,@r0
   216F FB                 6373 	mov	r3,a
   2170 08                 6374 	inc	r0
   2171 86 04              6375 	mov	ar4,@r0
   2173 8A 82              6376 	mov	dpl,r2
   2175 8B 83              6377 	mov	dph,r3
   2177 8C F0              6378 	mov	b,r4
   2179 E5*00              6379 	mov	a,_bp
   217B 24 FB              6380 	add	a,#0xfb
   217D F8                 6381 	mov	r0,a
   217E E6                 6382 	mov	a,@r0
   217F 12s00r00           6383 	lcall	__gptrput
                           6384 ;	../../core/net/rime/collect.c:1280: tc->seqno = 10;
   2182 A8*00              6385 	mov	r0,_bp
   2184 08                 6386 	inc	r0
   2185 74 A2              6387 	mov	a,#0xA2
   2187 26                 6388 	add	a,@r0
   2188 FA                 6389 	mov	r2,a
   2189 E4                 6390 	clr	a
   218A 08                 6391 	inc	r0
   218B 36                 6392 	addc	a,@r0
   218C FB                 6393 	mov	r3,a
   218D 08                 6394 	inc	r0
   218E 86 04              6395 	mov	ar4,@r0
   2190 8A 82              6396 	mov	dpl,r2
   2192 8B 83              6397 	mov	dph,r3
   2194 8C F0              6398 	mov	b,r4
   2196 74 0A              6399 	mov	a,#0x0A
   2198 12s00r00           6400 	lcall	__gptrput
                           6401 ;	../../core/net/rime/collect.c:1281: tc->eseqno = 0;
   219B A8*00              6402 	mov	r0,_bp
   219D 08                 6403 	inc	r0
   219E 74 A6              6404 	mov	a,#0xA6
   21A0 26                 6405 	add	a,@r0
   21A1 FA                 6406 	mov	r2,a
   21A2 E4                 6407 	clr	a
   21A3 08                 6408 	inc	r0
   21A4 36                 6409 	addc	a,@r0
   21A5 FB                 6410 	mov	r3,a
   21A6 08                 6411 	inc	r0
   21A7 86 04              6412 	mov	ar4,@r0
   21A9 8A 82              6413 	mov	dpl,r2
   21AB 8B 83              6414 	mov	dph,r3
   21AD 8C F0              6415 	mov	b,r4
   21AF E4                 6416 	clr	a
   21B0 12s00r00           6417 	lcall	__gptrput
                           6418 ;	../../core/net/rime/collect.c:1282: LIST_STRUCT_INIT(tc, send_queue_list);
   21B3 A8*00              6419 	mov	r0,_bp
   21B5 08                 6420 	inc	r0
   21B6 74 4C              6421 	mov	a,#0x4C
   21B8 26                 6422 	add	a,@r0
   21B9 FA                 6423 	mov	r2,a
   21BA E4                 6424 	clr	a
   21BB 08                 6425 	inc	r0
   21BC 36                 6426 	addc	a,@r0
   21BD FB                 6427 	mov	r3,a
   21BE 08                 6428 	inc	r0
   21BF 86 04              6429 	mov	ar4,@r0
   21C1 A8*00              6430 	mov	r0,_bp
   21C3 08                 6431 	inc	r0
   21C4 74 49              6432 	mov	a,#0x49
   21C6 26                 6433 	add	a,@r0
   21C7 FD                 6434 	mov	r5,a
   21C8 E4                 6435 	clr	a
   21C9 08                 6436 	inc	r0
   21CA 36                 6437 	addc	a,@r0
   21CB FE                 6438 	mov	r6,a
   21CC 08                 6439 	inc	r0
   21CD 86 07              6440 	mov	ar7,@r0
   21CF 8A 82              6441 	mov	dpl,r2
   21D1 8B 83              6442 	mov	dph,r3
   21D3 8C F0              6443 	mov	b,r4
   21D5 ED                 6444 	mov	a,r5
   21D6 12s00r00           6445 	lcall	__gptrput
   21D9 A3                 6446 	inc	dptr
   21DA EE                 6447 	mov	a,r6
   21DB 12s00r00           6448 	lcall	__gptrput
   21DE A3                 6449 	inc	dptr
   21DF EF                 6450 	mov	a,r7
   21E0 12s00r00           6451 	lcall	__gptrput
   21E3 8D 82              6452 	mov	dpl,r5
   21E5 8E 83              6453 	mov	dph,r6
   21E7 8F F0              6454 	mov	b,r7
   21E9 E4                 6455 	clr	a
   21EA 12s00r00           6456 	lcall	__gptrput
   21ED A3                 6457 	inc	dptr
   21EE E4                 6458 	clr	a
   21EF 12s00r00           6459 	lcall	__gptrput
   21F2 A3                 6460 	inc	dptr
   21F3 E4                 6461 	clr	a
   21F4 12s00r00           6462 	lcall	__gptrput
   21F7 8D 82              6463 	mov	dpl,r5
   21F9 8E 83              6464 	mov	dph,r6
   21FB 8F F0              6465 	mov	b,r7
   21FD C0 04              6466 	push	ar4
   21FF C0 03              6467 	push	ar3
   2201 C0 02              6468 	push	ar2
   2203 12s00r00           6469 	lcall	_list_init
                           6470 ;	../../core/net/rime/collect.c:1283: collect_neighbor_list_new(&tc->neighbor_list);
   2206 A8*00              6471 	mov	r0,_bp
   2208 08                 6472 	inc	r0
   2209 74 55              6473 	mov	a,#0x55
   220B 26                 6474 	add	a,@r0
   220C FD                 6475 	mov	r5,a
   220D E4                 6476 	clr	a
   220E 08                 6477 	inc	r0
   220F 36                 6478 	addc	a,@r0
   2210 FE                 6479 	mov	r6,a
   2211 08                 6480 	inc	r0
   2212 86 07              6481 	mov	ar7,@r0
   2214 8D 82              6482 	mov	dpl,r5
   2216 8E 83              6483 	mov	dph,r6
   2218 8F F0              6484 	mov	b,r7
   221A 12s00r00           6485 	lcall	_collect_neighbor_list_new
   221D D0 02              6486 	pop	ar2
   221F D0 03              6487 	pop	ar3
   2221 D0 04              6488 	pop	ar4
                           6489 ;	../../core/net/rime/collect.c:1284: tc->send_queue.list = &(tc->send_queue_list);
   2223 A8*00              6490 	mov	r0,_bp
   2225 08                 6491 	inc	r0
   2226 74 4F              6492 	mov	a,#0x4F
   2228 26                 6493 	add	a,@r0
   2229 FD                 6494 	mov	r5,a
   222A E4                 6495 	clr	a
   222B 08                 6496 	inc	r0
   222C 36                 6497 	addc	a,@r0
   222D FE                 6498 	mov	r6,a
   222E 08                 6499 	inc	r0
   222F 86 07              6500 	mov	ar7,@r0
   2231 8D 82              6501 	mov	dpl,r5
   2233 8E 83              6502 	mov	dph,r6
   2235 8F F0              6503 	mov	b,r7
   2237 EA                 6504 	mov	a,r2
   2238 12s00r00           6505 	lcall	__gptrput
   223B A3                 6506 	inc	dptr
   223C EB                 6507 	mov	a,r3
   223D 12s00r00           6508 	lcall	__gptrput
   2240 A3                 6509 	inc	dptr
   2241 EC                 6510 	mov	a,r4
   2242 12s00r00           6511 	lcall	__gptrput
                           6512 ;	../../core/net/rime/collect.c:1285: tc->send_queue.memb = &send_queue_memb;
   2245 A8*00              6513 	mov	r0,_bp
   2247 08                 6514 	inc	r0
   2248 74 4F              6515 	mov	a,#0x4F
   224A 26                 6516 	add	a,@r0
   224B FD                 6517 	mov	r5,a
   224C E4                 6518 	clr	a
   224D 08                 6519 	inc	r0
   224E 36                 6520 	addc	a,@r0
   224F FE                 6521 	mov	r6,a
   2250 08                 6522 	inc	r0
   2251 86 07              6523 	mov	ar7,@r0
   2253 74 03              6524 	mov	a,#0x03
   2255 2D                 6525 	add	a,r5
   2256 FD                 6526 	mov	r5,a
   2257 E4                 6527 	clr	a
   2258 3E                 6528 	addc	a,r6
   2259 FE                 6529 	mov	r6,a
   225A 8D 82              6530 	mov	dpl,r5
   225C 8E 83              6531 	mov	dph,r6
   225E 8F F0              6532 	mov	b,r7
   2260 74r00              6533 	mov	a,#_send_queue_memb
   2262 12s00r00           6534 	lcall	__gptrput
   2265 A3                 6535 	inc	dptr
   2266 74s00              6536 	mov	a,#(_send_queue_memb >> 8)
   2268 12s00r00           6537 	lcall	__gptrput
   226B A3                 6538 	inc	dptr
   226C E4                 6539 	clr	a
   226D 12s00r00           6540 	lcall	__gptrput
                           6541 ;	../../core/net/rime/collect.c:1286: collect_neighbor_init();
   2270 12s00r00           6542 	lcall	_collect_neighbor_init
                           6543 ;	../../core/net/rime/collect.c:1300: announcement_register(&tc->announcement, channels,
   2273 A8*00              6544 	mov	r0,_bp
   2275 08                 6545 	inc	r0
   2276 74 12              6546 	mov	a,#0x12
   2278 26                 6547 	add	a,@r0
   2279 FD                 6548 	mov	r5,a
   227A E4                 6549 	clr	a
   227B 08                 6550 	inc	r0
   227C 36                 6551 	addc	a,@r0
   227D FE                 6552 	mov	r6,a
   227E 08                 6553 	inc	r0
   227F 86 07              6554 	mov	ar7,@r0
   2281 74rFB              6555 	mov	a,#_received_announcement
   2283 C0 E0              6556 	push	acc
   2285 74s1E              6557 	mov	a,#(_received_announcement >> 8)
   2287 C0 E0              6558 	push	acc
   2289 E5*00              6559 	mov	a,_bp
   228B 24 FC              6560 	add	a,#0xfc
   228D F8                 6561 	mov	r0,a
   228E E6                 6562 	mov	a,@r0
   228F C0 E0              6563 	push	acc
   2291 08                 6564 	inc	r0
   2292 E6                 6565 	mov	a,@r0
   2293 C0 E0              6566 	push	acc
   2295 8D 82              6567 	mov	dpl,r5
   2297 8E 83              6568 	mov	dph,r6
   2299 8F F0              6569 	mov	b,r7
   229B 12s00r00           6570 	lcall	_announcement_register
   229E E5 81              6571 	mov	a,sp
   22A0 24 FC              6572 	add	a,#0xfc
   22A2 F5 81              6573 	mov	sp,a
                           6574 ;	../../core/net/rime/collect.c:1303: announcement_set_value(&tc->announcement, RTMETRIC_MAX);
   22A4 A8*00              6575 	mov	r0,_bp
   22A6 08                 6576 	inc	r0
   22A7 74 12              6577 	mov	a,#0x12
   22A9 26                 6578 	add	a,@r0
   22AA FD                 6579 	mov	r5,a
   22AB E4                 6580 	clr	a
   22AC 08                 6581 	inc	r0
   22AD 36                 6582 	addc	a,@r0
   22AE FE                 6583 	mov	r6,a
   22AF 08                 6584 	inc	r0
   22B0 86 07              6585 	mov	ar7,@r0
   22B2 74 FF              6586 	mov	a,#0xFF
   22B4 C0 E0              6587 	push	acc
   22B6 74 01              6588 	mov	a,#0x01
   22B8 C0 E0              6589 	push	acc
   22BA 8D 82              6590 	mov	dpl,r5
   22BC 8E 83              6591 	mov	dph,r6
   22BE 8F F0              6592 	mov	b,r7
   22C0 12s00r00           6593 	lcall	_announcement_set_value
   22C3 15 81              6594 	dec	sp
   22C5 15 81              6595 	dec	sp
                           6596 ;	../../core/net/rime/collect.c:1308: proactive_probing_callback, tc);
   22C7 A8*00              6597 	mov	r0,_bp
   22C9 08                 6598 	inc	r0
   22CA 86 05              6599 	mov	ar5,@r0
   22CC 08                 6600 	inc	r0
   22CD 86 06              6601 	mov	ar6,@r0
   22CF 08                 6602 	inc	r0
   22D0 86 07              6603 	mov	ar7,@r0
                           6604 ;	../../core/net/rime/collect.c:1307: ctimer_set(&tc->proactive_probing_timer, PROACTIVE_PROBING_INTERVAL,
   22D2 C0 07              6605 	push	ar7
   22D4 C0 06              6606 	push	ar6
   22D6 C0 05              6607 	push	ar5
   22D8 12s00r00           6608 	lcall	_random_rand
   22DB E5 82              6609 	mov	a,dpl
   22DD 85 83 F0           6610 	mov	b,dph
   22E0 54 7F              6611 	anl	a,#0x7F
   22E2 FB                 6612 	mov	r3,a
   22E3 7C 00              6613 	mov	r4,#0x00
   22E5 C0 03              6614 	push	ar3
   22E7 C0 04              6615 	push	ar4
   22E9 90 00 3C           6616 	mov	dptr,#0x003C
   22EC 12s00r00           6617 	lcall	__mulint
   22EF C8                 6618 	xch	a,r0
   22F0 E5*00              6619 	mov	a,_bp
   22F2 24 04              6620 	add	a,#0x04
   22F4 C8                 6621 	xch	a,r0
   22F5 A6 82              6622 	mov	@r0,dpl
   22F7 08                 6623 	inc	r0
   22F8 A6 83              6624 	mov	@r0,dph
   22FA 15 81              6625 	dec	sp
   22FC 15 81              6626 	dec	sp
   22FE D0 05              6627 	pop	ar5
   2300 D0 06              6628 	pop	ar6
   2302 D0 07              6629 	pop	ar7
   2304 A8*00              6630 	mov	r0,_bp
   2306 08                 6631 	inc	r0
   2307 74 87              6632 	mov	a,#0x87
   2309 26                 6633 	add	a,@r0
   230A FA                 6634 	mov	r2,a
   230B E4                 6635 	clr	a
   230C 08                 6636 	inc	r0
   230D 36                 6637 	addc	a,@r0
   230E FB                 6638 	mov	r3,a
   230F 08                 6639 	inc	r0
   2310 86 04              6640 	mov	ar4,@r0
   2312 C0 05              6641 	push	ar5
   2314 C0 06              6642 	push	ar6
   2316 C0 07              6643 	push	ar7
   2318 74r87              6644 	mov	a,#_proactive_probing_callback
   231A C0 E0              6645 	push	acc
   231C 74s05              6646 	mov	a,#(_proactive_probing_callback >> 8)
   231E C0 E0              6647 	push	acc
   2320 E5*00              6648 	mov	a,_bp
   2322 24 04              6649 	add	a,#0x04
   2324 F8                 6650 	mov	r0,a
   2325 E6                 6651 	mov	a,@r0
   2326 C0 E0              6652 	push	acc
   2328 08                 6653 	inc	r0
   2329 E6                 6654 	mov	a,@r0
   232A C0 E0              6655 	push	acc
   232C 8A 82              6656 	mov	dpl,r2
   232E 8B 83              6657 	mov	dph,r3
   2330 8C F0              6658 	mov	b,r4
   2332 12s00r00           6659 	lcall	_ctimer_set
   2335 E5 81              6660 	mov	a,sp
   2337 24 F9              6661 	add	a,#0xf9
   2339 85*00 81           6662 	mov	sp,_bp
   233C D0*00              6663 	pop	_bp
   233E 22                 6664 	ret
                           6665 ;------------------------------------------------------------
                           6666 ;Allocation info for local variables in function 'send_keepalive'
                           6667 ;------------------------------------------------------------
                           6668 ;ptr                       Allocated to registers r5 r6 r7 
                           6669 ;c                         Allocated to registers r5 r6 r7 
                           6670 ;------------------------------------------------------------
                           6671 ;	../../core/net/rime/collect.c:1313: send_keepalive(void *ptr)
                           6672 ;	-----------------------------------------
                           6673 ;	 function send_keepalive
                           6674 ;	-----------------------------------------
   233F                    6675 _send_keepalive:
                           6676 ;	../../core/net/rime/collect.c:1315: struct collect_conn *c = ptr;
                           6677 ;	../../core/net/rime/collect.c:1317: set_keepalive_timer(c);
   233F AD 82              6678 	mov	r5,dpl
   2341 AE 83              6679 	mov	r6,dph
   2343 AF F0              6680 	mov	r7,b
   2345 C0 07              6681 	push	ar7
   2347 C0 06              6682 	push	ar6
   2349 C0 05              6683 	push	ar5
   234B 12s23rC1           6684 	lcall	_set_keepalive_timer
   234E D0 05              6685 	pop	ar5
   2350 D0 06              6686 	pop	ar6
   2352 D0 07              6687 	pop	ar7
                           6688 ;	../../core/net/rime/collect.c:1320: if(c->sending == 0 && packetqueue_len(&c->send_queue) == 0) {
   2354 74 A3              6689 	mov	a,#0xA3
   2356 2D                 6690 	add	a,r5
   2357 FA                 6691 	mov	r2,a
   2358 E4                 6692 	clr	a
   2359 3E                 6693 	addc	a,r6
   235A FB                 6694 	mov	r3,a
   235B 8F 04              6695 	mov	ar4,r7
   235D 8A 82              6696 	mov	dpl,r2
   235F 8B 83              6697 	mov	dph,r3
   2361 8C F0              6698 	mov	b,r4
   2363 12s00r00           6699 	lcall	__gptrget
   2366 70 58              6700 	jnz	00106$
   2368 74 4F              6701 	mov	a,#0x4F
   236A 2D                 6702 	add	a,r5
   236B FA                 6703 	mov	r2,a
   236C E4                 6704 	clr	a
   236D 3E                 6705 	addc	a,r6
   236E FB                 6706 	mov	r3,a
   236F 8F 04              6707 	mov	ar4,r7
   2371 8A 82              6708 	mov	dpl,r2
   2373 8B 83              6709 	mov	dph,r3
   2375 8C F0              6710 	mov	b,r4
   2377 C0 07              6711 	push	ar7
   2379 C0 06              6712 	push	ar6
   237B C0 05              6713 	push	ar5
   237D 12s00r00           6714 	lcall	_packetqueue_len
   2380 E5 82              6715 	mov	a,dpl
   2382 85 83 F0           6716 	mov	b,dph
   2385 D0 05              6717 	pop	ar5
   2387 D0 06              6718 	pop	ar6
   2389 D0 07              6719 	pop	ar7
   238B 45 F0              6720 	orl	a,b
   238D 70 31              6721 	jnz	00106$
                           6722 ;	../../core/net/rime/collect.c:1321: if(enqueue_dummy_packet(c, KEEPALIVE_REXMITS)) {
   238F C0 07              6723 	push	ar7
   2391 C0 06              6724 	push	ar6
   2393 C0 05              6725 	push	ar5
   2395 74 08              6726 	mov	a,#0x08
   2397 C0 E0              6727 	push	acc
   2399 E4                 6728 	clr	a
   239A C0 E0              6729 	push	acc
   239C 8D 82              6730 	mov	dpl,r5
   239E 8E 83              6731 	mov	dph,r6
   23A0 8F F0              6732 	mov	b,r7
   23A2 12s03rA6           6733 	lcall	_enqueue_dummy_packet
   23A5 AB 82              6734 	mov	r3,dpl
   23A7 AC 83              6735 	mov	r4,dph
   23A9 15 81              6736 	dec	sp
   23AB 15 81              6737 	dec	sp
   23AD D0 05              6738 	pop	ar5
   23AF D0 06              6739 	pop	ar6
   23B1 D0 07              6740 	pop	ar7
   23B3 EB                 6741 	mov	a,r3
   23B4 4C                 6742 	orl	a,r4
   23B5 60 09              6743 	jz	00106$
                           6744 ;	../../core/net/rime/collect.c:1324: send_queued_packet(c);
   23B7 8D 82              6745 	mov	dpl,r5
   23B9 8E 83              6746 	mov	dph,r6
   23BB 8F F0              6747 	mov	b,r7
   23BD 02s08r41           6748 	ljmp	_send_queued_packet
   23C0                    6749 00106$:
   23C0 22                 6750 	ret
                           6751 ;------------------------------------------------------------
                           6752 ;Allocation info for local variables in function 'set_keepalive_timer'
                           6753 ;------------------------------------------------------------
                           6754 ;c                         Allocated to stack - _bp +1
                           6755 ;sloc0                     Allocated to stack - _bp +4
                           6756 ;sloc1                     Allocated to stack - _bp +6
                           6757 ;------------------------------------------------------------
                           6758 ;	../../core/net/rime/collect.c:1330: set_keepalive_timer(struct collect_conn *c)
                           6759 ;	-----------------------------------------
                           6760 ;	 function set_keepalive_timer
                           6761 ;	-----------------------------------------
   23C1                    6762 _set_keepalive_timer:
   23C1 C0*00              6763 	push	_bp
   23C3 85 81*00           6764 	mov	_bp,sp
   23C6 C0 82              6765 	push	dpl
   23C8 C0 83              6766 	push	dph
   23CA C0 F0              6767 	push	b
   23CC E5 81              6768 	mov	a,sp
   23CE 24 05              6769 	add	a,#0x05
   23D0 F5 81              6770 	mov	sp,a
                           6771 ;	../../core/net/rime/collect.c:1332: if(c->keepalive_period != 0) {
   23D2 A8*00              6772 	mov	r0,_bp
   23D4 08                 6773 	inc	r0
   23D5 74 85              6774 	mov	a,#0x85
   23D7 26                 6775 	add	a,@r0
   23D8 FA                 6776 	mov	r2,a
   23D9 E4                 6777 	clr	a
   23DA 08                 6778 	inc	r0
   23DB 36                 6779 	addc	a,@r0
   23DC FB                 6780 	mov	r3,a
   23DD 08                 6781 	inc	r0
   23DE 86 04              6782 	mov	ar4,@r0
   23E0 8A 82              6783 	mov	dpl,r2
   23E2 8B 83              6784 	mov	dph,r3
   23E4 8C F0              6785 	mov	b,r4
   23E6 12s00r00           6786 	lcall	__gptrget
   23E9 FF                 6787 	mov	r7,a
   23EA A3                 6788 	inc	dptr
   23EB 12s00r00           6789 	lcall	__gptrget
   23EE FE                 6790 	mov	r6,a
   23EF 4F                 6791 	orl	a,r7
   23F0 70 03              6792 	jnz	00108$
   23F2 02s24r97           6793 	ljmp	00102$
   23F5                    6794 00108$:
                           6795 ;	../../core/net/rime/collect.c:1335: send_keepalive, c);
   23F5 A8*00              6796 	mov	r0,_bp
   23F7 08                 6797 	inc	r0
   23F8 E5*00              6798 	mov	a,_bp
   23FA 24 06              6799 	add	a,#0x06
   23FC F9                 6800 	mov	r1,a
   23FD E6                 6801 	mov	a,@r0
   23FE F7                 6802 	mov	@r1,a
   23FF 08                 6803 	inc	r0
   2400 09                 6804 	inc	r1
   2401 E6                 6805 	mov	a,@r0
   2402 F7                 6806 	mov	@r1,a
   2403 08                 6807 	inc	r0
   2404 09                 6808 	inc	r1
   2405 E6                 6809 	mov	a,@r0
   2406 F7                 6810 	mov	@r1,a
                           6811 ;	../../core/net/rime/collect.c:1333: ctimer_set(&c->keepalive_timer, (c->keepalive_period / 2) +
   2407 E5*00              6812 	mov	a,_bp
   2409 24 04              6813 	add	a,#0x04
   240B F8                 6814 	mov	r0,a
   240C A6 07              6815 	mov	@r0,ar7
   240E EE                 6816 	mov	a,r6
   240F C3                 6817 	clr	c
   2410 13                 6818 	rrc	a
   2411 C6                 6819 	xch	a,@r0
   2412 13                 6820 	rrc	a
   2413 C6                 6821 	xch	a,@r0
   2414 08                 6822 	inc	r0
   2415 F6                 6823 	mov	@r0,a
                           6824 ;	../../core/net/rime/collect.c:1334: (random_rand() % (c->keepalive_period / 2)),
   2416 C0 04              6825 	push	ar4
   2418 C0 03              6826 	push	ar3
   241A C0 02              6827 	push	ar2
   241C 12s00r00           6828 	lcall	_random_rand
   241F AD 82              6829 	mov	r5,dpl
   2421 AF 83              6830 	mov	r7,dph
   2423 D0 02              6831 	pop	ar2
   2425 D0 03              6832 	pop	ar3
   2427 D0 04              6833 	pop	ar4
   2429 8A 82              6834 	mov	dpl,r2
   242B 8B 83              6835 	mov	dph,r3
   242D 8C F0              6836 	mov	b,r4
   242F 12s00r00           6837 	lcall	__gptrget
   2432 FA                 6838 	mov	r2,a
   2433 A3                 6839 	inc	dptr
   2434 12s00r00           6840 	lcall	__gptrget
   2437 C3                 6841 	clr	c
   2438 13                 6842 	rrc	a
   2439 CA                 6843 	xch	a,r2
   243A 13                 6844 	rrc	a
   243B CA                 6845 	xch	a,r2
   243C FB                 6846 	mov	r3,a
   243D C0 02              6847 	push	ar2
   243F C0 03              6848 	push	ar3
   2441 8D 82              6849 	mov	dpl,r5
   2443 8F 83              6850 	mov	dph,r7
   2445 12s00r00           6851 	lcall	__moduint
   2448 AE 82              6852 	mov	r6,dpl
   244A AF 83              6853 	mov	r7,dph
   244C 15 81              6854 	dec	sp
   244E 15 81              6855 	dec	sp
   2450 E5*00              6856 	mov	a,_bp
   2452 24 04              6857 	add	a,#0x04
   2454 F8                 6858 	mov	r0,a
   2455 EE                 6859 	mov	a,r6
   2456 26                 6860 	add	a,@r0
   2457 FE                 6861 	mov	r6,a
   2458 EF                 6862 	mov	a,r7
   2459 08                 6863 	inc	r0
   245A 36                 6864 	addc	a,@r0
   245B FF                 6865 	mov	r7,a
                           6866 ;	../../core/net/rime/collect.c:1333: ctimer_set(&c->keepalive_timer, (c->keepalive_period / 2) +
   245C A8*00              6867 	mov	r0,_bp
   245E 08                 6868 	inc	r0
   245F 74 70              6869 	mov	a,#0x70
   2461 26                 6870 	add	a,@r0
   2462 FB                 6871 	mov	r3,a
   2463 E4                 6872 	clr	a
   2464 08                 6873 	inc	r0
   2465 36                 6874 	addc	a,@r0
   2466 FC                 6875 	mov	r4,a
   2467 08                 6876 	inc	r0
   2468 86 05              6877 	mov	ar5,@r0
   246A E5*00              6878 	mov	a,_bp
   246C 24 06              6879 	add	a,#0x06
   246E F8                 6880 	mov	r0,a
   246F E6                 6881 	mov	a,@r0
   2470 C0 E0              6882 	push	acc
   2472 08                 6883 	inc	r0
   2473 E6                 6884 	mov	a,@r0
   2474 C0 E0              6885 	push	acc
   2476 08                 6886 	inc	r0
   2477 E6                 6887 	mov	a,@r0
   2478 C0 E0              6888 	push	acc
   247A 74r3F              6889 	mov	a,#_send_keepalive
   247C C0 E0              6890 	push	acc
   247E 74s23              6891 	mov	a,#(_send_keepalive >> 8)
   2480 C0 E0              6892 	push	acc
   2482 C0 06              6893 	push	ar6
   2484 C0 07              6894 	push	ar7
   2486 8B 82              6895 	mov	dpl,r3
   2488 8C 83              6896 	mov	dph,r4
   248A 8D F0              6897 	mov	b,r5
   248C 12s00r00           6898 	lcall	_ctimer_set
   248F E5 81              6899 	mov	a,sp
   2491 24 F9              6900 	add	a,#0xf9
   2493 F5 81              6901 	mov	sp,a
   2495 80 17              6902 	sjmp	00104$
   2497                    6903 00102$:
                           6904 ;	../../core/net/rime/collect.c:1337: ctimer_stop(&c->keepalive_timer);
   2497 A8*00              6905 	mov	r0,_bp
   2499 08                 6906 	inc	r0
   249A 74 70              6907 	mov	a,#0x70
   249C 26                 6908 	add	a,@r0
   249D FD                 6909 	mov	r5,a
   249E E4                 6910 	clr	a
   249F 08                 6911 	inc	r0
   24A0 36                 6912 	addc	a,@r0
   24A1 FE                 6913 	mov	r6,a
   24A2 08                 6914 	inc	r0
   24A3 86 07              6915 	mov	ar7,@r0
   24A5 8D 82              6916 	mov	dpl,r5
   24A7 8E 83              6917 	mov	dph,r6
   24A9 8F F0              6918 	mov	b,r7
   24AB 12s00r00           6919 	lcall	_ctimer_stop
   24AE                    6920 00104$:
   24AE 85*00 81           6921 	mov	sp,_bp
   24B1 D0*00              6922 	pop	_bp
   24B3 22                 6923 	ret
                           6924 ;------------------------------------------------------------
                           6925 ;Allocation info for local variables in function 'collect_set_keepalive'
                           6926 ;------------------------------------------------------------
                           6927 ;period                    Allocated to stack - _bp -4
                           6928 ;c                         Allocated to registers r5 r6 r7 
                           6929 ;------------------------------------------------------------
                           6930 ;	../../core/net/rime/collect.c:1342: collect_set_keepalive(struct collect_conn *c, clock_time_t period)
                           6931 ;	-----------------------------------------
                           6932 ;	 function collect_set_keepalive
                           6933 ;	-----------------------------------------
   24B4                    6934 _collect_set_keepalive:
   24B4 C0*00              6935 	push	_bp
   24B6 85 81*00           6936 	mov	_bp,sp
   24B9 AD 82              6937 	mov	r5,dpl
   24BB AE 83              6938 	mov	r6,dph
   24BD AF F0              6939 	mov	r7,b
                           6940 ;	../../core/net/rime/collect.c:1344: c->keepalive_period = period;
   24BF 74 85              6941 	mov	a,#0x85
   24C1 2D                 6942 	add	a,r5
   24C2 FA                 6943 	mov	r2,a
   24C3 E4                 6944 	clr	a
   24C4 3E                 6945 	addc	a,r6
   24C5 FB                 6946 	mov	r3,a
   24C6 8F 04              6947 	mov	ar4,r7
   24C8 8A 82              6948 	mov	dpl,r2
   24CA 8B 83              6949 	mov	dph,r3
   24CC 8C F0              6950 	mov	b,r4
   24CE E5*00              6951 	mov	a,_bp
   24D0 24 FC              6952 	add	a,#0xfc
   24D2 F8                 6953 	mov	r0,a
   24D3 E6                 6954 	mov	a,@r0
   24D4 12s00r00           6955 	lcall	__gptrput
   24D7 A3                 6956 	inc	dptr
   24D8 08                 6957 	inc	r0
   24D9 E6                 6958 	mov	a,@r0
   24DA 12s00r00           6959 	lcall	__gptrput
                           6960 ;	../../core/net/rime/collect.c:1345: set_keepalive_timer(c);
   24DD 8D 82              6961 	mov	dpl,r5
   24DF 8E 83              6962 	mov	dph,r6
   24E1 8F F0              6963 	mov	b,r7
   24E3 12s23rC1           6964 	lcall	_set_keepalive_timer
   24E6 D0*00              6965 	pop	_bp
   24E8 22                 6966 	ret
                           6967 ;------------------------------------------------------------
                           6968 ;Allocation info for local variables in function 'collect_close'
                           6969 ;------------------------------------------------------------
                           6970 ;tc                        Allocated to registers r5 r6 r7 
                           6971 ;------------------------------------------------------------
                           6972 ;	../../core/net/rime/collect.c:1349: collect_close(struct collect_conn *tc)
                           6973 ;	-----------------------------------------
                           6974 ;	 function collect_close
                           6975 ;	-----------------------------------------
   24E9                    6976 _collect_close:
   24E9 AD 82              6977 	mov	r5,dpl
   24EB AE 83              6978 	mov	r6,dph
   24ED AF F0              6979 	mov	r7,b
                           6980 ;	../../core/net/rime/collect.c:1352: announcement_remove(&tc->announcement);
   24EF 74 12              6981 	mov	a,#0x12
   24F1 2D                 6982 	add	a,r5
   24F2 FA                 6983 	mov	r2,a
   24F3 E4                 6984 	clr	a
   24F4 3E                 6985 	addc	a,r6
   24F5 FB                 6986 	mov	r3,a
   24F6 8F 04              6987 	mov	ar4,r7
   24F8 8A 82              6988 	mov	dpl,r2
   24FA 8B 83              6989 	mov	dph,r3
   24FC 8C F0              6990 	mov	b,r4
   24FE C0 07              6991 	push	ar7
   2500 C0 06              6992 	push	ar6
   2502 C0 05              6993 	push	ar5
   2504 12s00r00           6994 	lcall	_announcement_remove
   2507 D0 05              6995 	pop	ar5
   2509 D0 06              6996 	pop	ar6
   250B D0 07              6997 	pop	ar7
                           6998 ;	../../core/net/rime/collect.c:1356: unicast_close(&tc->unicast_conn);
   250D 8D 82              6999 	mov	dpl,r5
   250F 8E 83              7000 	mov	dph,r6
   2511 8F F0              7001 	mov	b,r7
   2513 C0 07              7002 	push	ar7
   2515 C0 06              7003 	push	ar6
   2517 C0 05              7004 	push	ar5
   2519 12s00r00           7005 	lcall	_unicast_close
   251C D0 05              7006 	pop	ar5
   251E D0 06              7007 	pop	ar6
   2520 D0 07              7008 	pop	ar7
                           7009 ;	../../core/net/rime/collect.c:1357: while(packetqueue_first(&tc->send_queue) != NULL) {
   2522                    7010 00101$:
   2522 74 4F              7011 	mov	a,#0x4F
   2524 2D                 7012 	add	a,r5
   2525 FA                 7013 	mov	r2,a
   2526 E4                 7014 	clr	a
   2527 3E                 7015 	addc	a,r6
   2528 FB                 7016 	mov	r3,a
   2529 8F 04              7017 	mov	ar4,r7
   252B 8A 82              7018 	mov	dpl,r2
   252D 8B 83              7019 	mov	dph,r3
   252F 8C F0              7020 	mov	b,r4
   2531 C0 07              7021 	push	ar7
   2533 C0 06              7022 	push	ar6
   2535 C0 05              7023 	push	ar5
   2537 12s00r00           7024 	lcall	_packetqueue_first
   253A AA 82              7025 	mov	r2,dpl
   253C AB 83              7026 	mov	r3,dph
   253E AC F0              7027 	mov	r4,b
   2540 D0 05              7028 	pop	ar5
   2542 D0 06              7029 	pop	ar6
   2544 D0 07              7030 	pop	ar7
   2546 EA                 7031 	mov	a,r2
   2547 4B                 7032 	orl	a,r3
   2548 60 20              7033 	jz	00104$
                           7034 ;	../../core/net/rime/collect.c:1358: packetqueue_dequeue(&tc->send_queue);
   254A 74 4F              7035 	mov	a,#0x4F
   254C 2D                 7036 	add	a,r5
   254D FA                 7037 	mov	r2,a
   254E E4                 7038 	clr	a
   254F 3E                 7039 	addc	a,r6
   2550 FB                 7040 	mov	r3,a
   2551 8F 04              7041 	mov	ar4,r7
   2553 8A 82              7042 	mov	dpl,r2
   2555 8B 83              7043 	mov	dph,r3
   2557 8C F0              7044 	mov	b,r4
   2559 C0 07              7045 	push	ar7
   255B C0 06              7046 	push	ar6
   255D C0 05              7047 	push	ar5
   255F 12s00r00           7048 	lcall	_packetqueue_dequeue
   2562 D0 05              7049 	pop	ar5
   2564 D0 06              7050 	pop	ar6
   2566 D0 07              7051 	pop	ar7
   2568 80 B8              7052 	sjmp	00101$
   256A                    7053 00104$:
   256A 22                 7054 	ret
                           7055 ;------------------------------------------------------------
                           7056 ;Allocation info for local variables in function 'collect_set_sink'
                           7057 ;------------------------------------------------------------
                           7058 ;should_be_sink            Allocated to stack - _bp -4
                           7059 ;tc                        Allocated to stack - _bp +1
                           7060 ;------------------------------------------------------------
                           7061 ;	../../core/net/rime/collect.c:1363: collect_set_sink(struct collect_conn *tc, int should_be_sink)
                           7062 ;	-----------------------------------------
                           7063 ;	 function collect_set_sink
                           7064 ;	-----------------------------------------
   256B                    7065 _collect_set_sink:
   256B C0*00              7066 	push	_bp
   256D 85 81*00           7067 	mov	_bp,sp
   2570 C0 82              7068 	push	dpl
   2572 C0 83              7069 	push	dph
   2574 C0 F0              7070 	push	b
                           7071 ;	../../core/net/rime/collect.c:1365: if(should_be_sink) {
   2576 E5*00              7072 	mov	a,_bp
   2578 24 FC              7073 	add	a,#0xfc
   257A F8                 7074 	mov	r0,a
   257B E6                 7075 	mov	a,@r0
   257C 08                 7076 	inc	r0
   257D 46                 7077 	orl	a,@r0
   257E 70 03              7078 	jnz	00117$
   2580 02s26r23           7079 	ljmp	00105$
   2583                    7080 00117$:
                           7081 ;	../../core/net/rime/collect.c:1366: tc->is_router = 1;
   2583 A8*00              7082 	mov	r0,_bp
   2585 08                 7083 	inc	r0
   2586 74 A7              7084 	mov	a,#0xA7
   2588 26                 7085 	add	a,@r0
   2589 FA                 7086 	mov	r2,a
   258A E4                 7087 	clr	a
   258B 08                 7088 	inc	r0
   258C 36                 7089 	addc	a,@r0
   258D FB                 7090 	mov	r3,a
   258E 08                 7091 	inc	r0
   258F 86 04              7092 	mov	ar4,@r0
   2591 8A 82              7093 	mov	dpl,r2
   2593 8B 83              7094 	mov	dph,r3
   2595 8C F0              7095 	mov	b,r4
   2597 74 01              7096 	mov	a,#0x01
   2599 12s00r00           7097 	lcall	__gptrput
                           7098 ;	../../core/net/rime/collect.c:1367: tc->rtmetric = RTMETRIC_SINK;
   259C A8*00              7099 	mov	r0,_bp
   259E 08                 7100 	inc	r0
   259F 74 A0              7101 	mov	a,#0xA0
   25A1 26                 7102 	add	a,@r0
   25A2 FA                 7103 	mov	r2,a
   25A3 E4                 7104 	clr	a
   25A4 08                 7105 	inc	r0
   25A5 36                 7106 	addc	a,@r0
   25A6 FB                 7107 	mov	r3,a
   25A7 08                 7108 	inc	r0
   25A8 86 04              7109 	mov	ar4,@r0
   25AA 8A 82              7110 	mov	dpl,r2
   25AC 8B 83              7111 	mov	dph,r3
   25AE 8C F0              7112 	mov	b,r4
   25B0 E4                 7113 	clr	a
   25B1 12s00r00           7114 	lcall	__gptrput
   25B4 A3                 7115 	inc	dptr
   25B5 E4                 7116 	clr	a
   25B6 12s00r00           7117 	lcall	__gptrput
                           7118 ;	../../core/net/rime/collect.c:1369: bump_advertisement(tc);
   25B9 A8*00              7119 	mov	r0,_bp
   25BB 08                 7120 	inc	r0
   25BC 86 82              7121 	mov	dpl,@r0
   25BE 08                 7122 	inc	r0
   25BF 86 83              7123 	mov	dph,@r0
   25C1 08                 7124 	inc	r0
   25C2 86 F0              7125 	mov	b,@r0
   25C4 12s00r51           7126 	lcall	_bump_advertisement
                           7127 ;	../../core/net/rime/collect.c:1372: while(packetqueue_len(&tc->send_queue) > 0) {
   25C7                    7128 00101$:
   25C7 A8*00              7129 	mov	r0,_bp
   25C9 08                 7130 	inc	r0
   25CA 74 4F              7131 	mov	a,#0x4F
   25CC 26                 7132 	add	a,@r0
   25CD FA                 7133 	mov	r2,a
   25CE E4                 7134 	clr	a
   25CF 08                 7135 	inc	r0
   25D0 36                 7136 	addc	a,@r0
   25D1 FB                 7137 	mov	r3,a
   25D2 08                 7138 	inc	r0
   25D3 86 04              7139 	mov	ar4,@r0
   25D5 8A 82              7140 	mov	dpl,r2
   25D7 8B 83              7141 	mov	dph,r3
   25D9 8C F0              7142 	mov	b,r4
   25DB 12s00r00           7143 	lcall	_packetqueue_len
   25DE AB 82              7144 	mov	r3,dpl
   25E0 AC 83              7145 	mov	r4,dph
   25E2 C3                 7146 	clr	c
   25E3 E4                 7147 	clr	a
   25E4 9B                 7148 	subb	a,r3
   25E5 E4                 7149 	clr	a
   25E6 64 80              7150 	xrl	a,#0x80
   25E8 8C F0              7151 	mov	b,r4
   25EA 63 F0 80           7152 	xrl	b,#0x80
   25ED 95 F0              7153 	subb	a,b
   25EF 50 19              7154 	jnc	00103$
                           7155 ;	../../core/net/rime/collect.c:1373: packetqueue_dequeue(&tc->send_queue);
   25F1 A8*00              7156 	mov	r0,_bp
   25F3 08                 7157 	inc	r0
   25F4 74 4F              7158 	mov	a,#0x4F
   25F6 26                 7159 	add	a,@r0
   25F7 FA                 7160 	mov	r2,a
   25F8 E4                 7161 	clr	a
   25F9 08                 7162 	inc	r0
   25FA 36                 7163 	addc	a,@r0
   25FB FB                 7164 	mov	r3,a
   25FC 08                 7165 	inc	r0
   25FD 86 04              7166 	mov	ar4,@r0
   25FF 8A 82              7167 	mov	dpl,r2
   2601 8B 83              7168 	mov	dph,r3
   2603 8C F0              7169 	mov	b,r4
   2605 12s00r00           7170 	lcall	_packetqueue_dequeue
   2608 80 BD              7171 	sjmp	00101$
   260A                    7172 00103$:
                           7173 ;	../../core/net/rime/collect.c:1377: ctimer_stop(&tc->retransmission_timer);
   260A A8*00              7174 	mov	r0,_bp
   260C 08                 7175 	inc	r0
   260D 74 34              7176 	mov	a,#0x34
   260F 26                 7177 	add	a,@r0
   2610 FA                 7178 	mov	r2,a
   2611 E4                 7179 	clr	a
   2612 08                 7180 	inc	r0
   2613 36                 7181 	addc	a,@r0
   2614 FB                 7182 	mov	r3,a
   2615 08                 7183 	inc	r0
   2616 86 04              7184 	mov	ar4,@r0
   2618 8A 82              7185 	mov	dpl,r2
   261A 8B 83              7186 	mov	dph,r3
   261C 8C F0              7187 	mov	b,r4
   261E 12s00r00           7188 	lcall	_ctimer_stop
   2621 80 1F              7189 	sjmp	00106$
   2623                    7190 00105$:
                           7191 ;	../../core/net/rime/collect.c:1379: tc->rtmetric = RTMETRIC_MAX;
   2623 A8*00              7192 	mov	r0,_bp
   2625 08                 7193 	inc	r0
   2626 74 A0              7194 	mov	a,#0xA0
   2628 26                 7195 	add	a,@r0
   2629 FA                 7196 	mov	r2,a
   262A E4                 7197 	clr	a
   262B 08                 7198 	inc	r0
   262C 36                 7199 	addc	a,@r0
   262D FB                 7200 	mov	r3,a
   262E 08                 7201 	inc	r0
   262F 86 04              7202 	mov	ar4,@r0
   2631 8A 82              7203 	mov	dpl,r2
   2633 8B 83              7204 	mov	dph,r3
   2635 8C F0              7205 	mov	b,r4
   2637 74 FF              7206 	mov	a,#0xFF
   2639 12s00r00           7207 	lcall	__gptrput
   263C A3                 7208 	inc	dptr
   263D 74 01              7209 	mov	a,#0x01
   263F 12s00r00           7210 	lcall	__gptrput
   2642                    7211 00106$:
                           7212 ;	../../core/net/rime/collect.c:1382: announcement_set_value(&tc->announcement, tc->rtmetric);
   2642 A8*00              7213 	mov	r0,_bp
   2644 08                 7214 	inc	r0
   2645 74 A0              7215 	mov	a,#0xA0
   2647 26                 7216 	add	a,@r0
   2648 FA                 7217 	mov	r2,a
   2649 E4                 7218 	clr	a
   264A 08                 7219 	inc	r0
   264B 36                 7220 	addc	a,@r0
   264C FB                 7221 	mov	r3,a
   264D 08                 7222 	inc	r0
   264E 86 04              7223 	mov	ar4,@r0
   2650 8A 82              7224 	mov	dpl,r2
   2652 8B 83              7225 	mov	dph,r3
   2654 8C F0              7226 	mov	b,r4
   2656 12s00r00           7227 	lcall	__gptrget
   2659 FA                 7228 	mov	r2,a
   265A A3                 7229 	inc	dptr
   265B 12s00r00           7230 	lcall	__gptrget
   265E FB                 7231 	mov	r3,a
   265F A8*00              7232 	mov	r0,_bp
   2661 08                 7233 	inc	r0
   2662 74 12              7234 	mov	a,#0x12
   2664 26                 7235 	add	a,@r0
   2665 FC                 7236 	mov	r4,a
   2666 E4                 7237 	clr	a
   2667 08                 7238 	inc	r0
   2668 36                 7239 	addc	a,@r0
   2669 FE                 7240 	mov	r6,a
   266A 08                 7241 	inc	r0
   266B 86 07              7242 	mov	ar7,@r0
   266D C0 02              7243 	push	ar2
   266F C0 03              7244 	push	ar3
   2671 8C 82              7245 	mov	dpl,r4
   2673 8E 83              7246 	mov	dph,r6
   2675 8F F0              7247 	mov	b,r7
   2677 12s00r00           7248 	lcall	_announcement_set_value
   267A 15 81              7249 	dec	sp
   267C 15 81              7250 	dec	sp
                           7251 ;	../../core/net/rime/collect.c:1384: update_rtmetric(tc);
   267E A8*00              7252 	mov	r0,_bp
   2680 08                 7253 	inc	r0
   2681 86 82              7254 	mov	dpl,@r0
   2683 08                 7255 	inc	r0
   2684 86 83              7256 	mov	dph,@r0
   2686 08                 7257 	inc	r0
   2687 86 F0              7258 	mov	b,@r0
   2689 12s02rA0           7259 	lcall	_update_rtmetric
                           7260 ;	../../core/net/rime/collect.c:1386: bump_advertisement(tc);
   268C A8*00              7261 	mov	r0,_bp
   268E 08                 7262 	inc	r0
   268F 86 82              7263 	mov	dpl,@r0
   2691 08                 7264 	inc	r0
   2692 86 83              7265 	mov	dph,@r0
   2694 08                 7266 	inc	r0
   2695 86 F0              7267 	mov	b,@r0
   2697 12s00r51           7268 	lcall	_bump_advertisement
                           7269 ;	../../core/net/rime/collect.c:1389: printf("#A rt=0,p=0\n");
   269A 85*00 81           7270 	mov	sp,_bp
   269D D0*00              7271 	pop	_bp
   269F 22                 7272 	ret
                           7273 ;------------------------------------------------------------
                           7274 ;Allocation info for local variables in function 'collect_send'
                           7275 ;------------------------------------------------------------
                           7276 ;rexmits                   Allocated to stack - _bp -4
                           7277 ;tc                        Allocated to stack - _bp +1
                           7278 ;n                         Allocated to registers r5 r6 r7 
                           7279 ;ret                       Allocated to registers r6 r7 
                           7280 ;sloc0                     Allocated to stack - _bp +4
                           7281 ;sloc1                     Allocated to stack - _bp +5
                           7282 ;------------------------------------------------------------
                           7283 ;	../../core/net/rime/collect.c:1394: collect_send(struct collect_conn *tc, int rexmits)
                           7284 ;	-----------------------------------------
                           7285 ;	 function collect_send
                           7286 ;	-----------------------------------------
   26A0                    7287 _collect_send:
   26A0 C0*00              7288 	push	_bp
   26A2 85 81*00           7289 	mov	_bp,sp
   26A5 C0 82              7290 	push	dpl
   26A7 C0 83              7291 	push	dph
   26A9 C0 F0              7292 	push	b
   26AB 05 81              7293 	inc	sp
   26AD 05 81              7294 	inc	sp
   26AF 05 81              7295 	inc	sp
                           7296 ;	../../core/net/rime/collect.c:1399: packetbuf_set_attr(PACKETBUF_ATTR_EPACKET_ID, tc->eseqno);
   26B1 A8*00              7297 	mov	r0,_bp
   26B3 08                 7298 	inc	r0
   26B4 74 A6              7299 	mov	a,#0xA6
   26B6 26                 7300 	add	a,@r0
   26B7 FA                 7301 	mov	r2,a
   26B8 E4                 7302 	clr	a
   26B9 08                 7303 	inc	r0
   26BA 36                 7304 	addc	a,@r0
   26BB FB                 7305 	mov	r3,a
   26BC 08                 7306 	inc	r0
   26BD 86 04              7307 	mov	ar4,@r0
   26BF 8A 82              7308 	mov	dpl,r2
   26C1 8B 83              7309 	mov	dph,r3
   26C3 8C F0              7310 	mov	b,r4
   26C5 12s00r00           7311 	lcall	__gptrget
   26C8 FF                 7312 	mov	r7,a
   26C9 7E 00              7313 	mov	r6,#0x00
   26CB C0 04              7314 	push	ar4
   26CD C0 03              7315 	push	ar3
   26CF C0 02              7316 	push	ar2
   26D1 C0 07              7317 	push	ar7
   26D3 C0 06              7318 	push	ar6
   26D5 75 82 15           7319 	mov	dpl,#0x15
   26D8 12s00r00           7320 	lcall	_packetbuf_set_attr
   26DB 15 81              7321 	dec	sp
   26DD 15 81              7322 	dec	sp
   26DF D0 02              7323 	pop	ar2
   26E1 D0 03              7324 	pop	ar3
   26E3 D0 04              7325 	pop	ar4
                           7326 ;	../../core/net/rime/collect.c:1409: tc->eseqno = (tc->eseqno + 1) % (1 << COLLECT_PACKET_ID_BITS);
   26E5 8A 82              7327 	mov	dpl,r2
   26E7 8B 83              7328 	mov	dph,r3
   26E9 8C F0              7329 	mov	b,r4
   26EB 12s00r00           7330 	lcall	__gptrget
   26EE FF                 7331 	mov	r7,a
   26EF 7E 00              7332 	mov	r6,#0x00
   26F1 0F                 7333 	inc	r7
   26F2 BF 00 01           7334 	cjne	r7,#0x00,00131$
   26F5 0E                 7335 	inc	r6
   26F6                    7336 00131$:
   26F6 C0 04              7337 	push	ar4
   26F8 C0 03              7338 	push	ar3
   26FA C0 02              7339 	push	ar2
   26FC E4                 7340 	clr	a
   26FD C0 E0              7341 	push	acc
   26FF 74 01              7342 	mov	a,#0x01
   2701 C0 E0              7343 	push	acc
   2703 8F 82              7344 	mov	dpl,r7
   2705 8E 83              7345 	mov	dph,r6
   2707 12s00r00           7346 	lcall	__modsint
   270A AE 82              7347 	mov	r6,dpl
   270C AF 83              7348 	mov	r7,dph
   270E 15 81              7349 	dec	sp
   2710 15 81              7350 	dec	sp
   2712 D0 02              7351 	pop	ar2
   2714 D0 03              7352 	pop	ar3
   2716 D0 04              7353 	pop	ar4
   2718 8A 82              7354 	mov	dpl,r2
   271A 8B 83              7355 	mov	dph,r3
   271C 8C F0              7356 	mov	b,r4
                           7357 ;	../../core/net/rime/collect.c:1411: if(tc->eseqno == 0) {
   271E EE                 7358 	mov	a,r6
   271F 12s00r00           7359 	lcall	__gptrput
   2722 70 0B              7360 	jnz	00102$
                           7361 ;	../../core/net/rime/collect.c:1412: tc->eseqno = ((int)(1 << COLLECT_PACKET_ID_BITS)) / 2;
   2724 8A 82              7362 	mov	dpl,r2
   2726 8B 83              7363 	mov	dph,r3
   2728 8C F0              7364 	mov	b,r4
   272A 74 80              7365 	mov	a,#0x80
   272C 12s00r00           7366 	lcall	__gptrput
   272F                    7367 00102$:
                           7368 ;	../../core/net/rime/collect.c:1414: packetbuf_set_addr(PACKETBUF_ADDR_ESENDER, &rimeaddr_node_addr);
   272F 74r00              7369 	mov	a,#_rimeaddr_node_addr
   2731 C0 E0              7370 	push	acc
   2733 74s00              7371 	mov	a,#(_rimeaddr_node_addr >> 8)
   2735 C0 E0              7372 	push	acc
   2737 E4                 7373 	clr	a
   2738 C0 E0              7374 	push	acc
   273A 75 82 1A           7375 	mov	dpl,#0x1A
   273D 12s00r00           7376 	lcall	_packetbuf_set_addr
   2740 15 81              7377 	dec	sp
   2742 15 81              7378 	dec	sp
   2744 15 81              7379 	dec	sp
                           7380 ;	../../core/net/rime/collect.c:1415: packetbuf_set_attr(PACKETBUF_ATTR_HOPS, 1);
   2746 74 01              7381 	mov	a,#0x01
   2748 C0 E0              7382 	push	acc
   274A E4                 7383 	clr	a
   274B C0 E0              7384 	push	acc
   274D 75 82 13           7385 	mov	dpl,#0x13
   2750 12s00r00           7386 	lcall	_packetbuf_set_attr
   2753 15 81              7387 	dec	sp
   2755 15 81              7388 	dec	sp
                           7389 ;	../../core/net/rime/collect.c:1416: packetbuf_set_attr(PACKETBUF_ATTR_TTL, MAX_HOPLIM);
   2757 74 0F              7390 	mov	a,#0x0F
   2759 C0 E0              7391 	push	acc
   275B E4                 7392 	clr	a
   275C C0 E0              7393 	push	acc
   275E 75 82 14           7394 	mov	dpl,#0x14
   2761 12s00r00           7395 	lcall	_packetbuf_set_attr
   2764 15 81              7396 	dec	sp
   2766 15 81              7397 	dec	sp
                           7398 ;	../../core/net/rime/collect.c:1417: if(rexmits > MAX_REXMITS) {
   2768 E5*00              7399 	mov	a,_bp
   276A 24 FC              7400 	add	a,#0xfc
   276C F8                 7401 	mov	r0,a
   276D C3                 7402 	clr	c
   276E 74 1F              7403 	mov	a,#0x1F
   2770 96                 7404 	subb	a,@r0
   2771 E4                 7405 	clr	a
   2772 64 80              7406 	xrl	a,#0x80
   2774 08                 7407 	inc	r0
   2775 86 F0              7408 	mov	b,@r0
   2777 63 F0 80           7409 	xrl	b,#0x80
   277A 95 F0              7410 	subb	a,b
   277C 50 13              7411 	jnc	00104$
                           7412 ;	../../core/net/rime/collect.c:1418: packetbuf_set_attr(PACKETBUF_ATTR_MAX_REXMIT, MAX_REXMITS);
   277E 74 1F              7413 	mov	a,#0x1F
   2780 C0 E0              7414 	push	acc
   2782 E4                 7415 	clr	a
   2783 C0 E0              7416 	push	acc
   2785 75 82 10           7417 	mov	dpl,#0x10
   2788 12s00r00           7418 	lcall	_packetbuf_set_attr
   278B 15 81              7419 	dec	sp
   278D 15 81              7420 	dec	sp
   278F 80 18              7421 	sjmp	00105$
   2791                    7422 00104$:
                           7423 ;	../../core/net/rime/collect.c:1420: packetbuf_set_attr(PACKETBUF_ATTR_MAX_REXMIT, rexmits);
   2791 E5*00              7424 	mov	a,_bp
   2793 24 FC              7425 	add	a,#0xfc
   2795 F8                 7426 	mov	r0,a
   2796 86 06              7427 	mov	ar6,@r0
   2798 08                 7428 	inc	r0
   2799 86 07              7429 	mov	ar7,@r0
   279B C0 06              7430 	push	ar6
   279D C0 07              7431 	push	ar7
   279F 75 82 10           7432 	mov	dpl,#0x10
   27A2 12s00r00           7433 	lcall	_packetbuf_set_attr
   27A5 15 81              7434 	dec	sp
   27A7 15 81              7435 	dec	sp
   27A9                    7436 00105$:
                           7437 ;	../../core/net/rime/collect.c:1428: if(tc->rtmetric == RTMETRIC_SINK) {
   27A9 A8*00              7438 	mov	r0,_bp
   27AB 08                 7439 	inc	r0
   27AC 74 A0              7440 	mov	a,#0xA0
   27AE 26                 7441 	add	a,@r0
   27AF FD                 7442 	mov	r5,a
   27B0 E4                 7443 	clr	a
   27B1 08                 7444 	inc	r0
   27B2 36                 7445 	addc	a,@r0
   27B3 FE                 7446 	mov	r6,a
   27B4 08                 7447 	inc	r0
   27B5 86 07              7448 	mov	ar7,@r0
   27B7 8D 82              7449 	mov	dpl,r5
   27B9 8E 83              7450 	mov	dph,r6
   27BB 8F F0              7451 	mov	b,r7
   27BD 12s00r00           7452 	lcall	__gptrget
   27C0 FD                 7453 	mov	r5,a
   27C1 A3                 7454 	inc	dptr
   27C2 12s00r00           7455 	lcall	__gptrget
   27C5 FE                 7456 	mov	r6,a
   27C6 4D                 7457 	orl	a,r5
   27C7 60 03              7458 	jz	00134$
   27C9 02s28r6D           7459 	ljmp	00115$
   27CC                    7460 00134$:
                           7461 ;	../../core/net/rime/collect.c:1429: packetbuf_set_attr(PACKETBUF_ATTR_HOPS, 0);
   27CC E4                 7462 	clr	a
   27CD C0 E0              7463 	push	acc
   27CF C0 E0              7464 	push	acc
   27D1 75 82 13           7465 	mov	dpl,#0x13
   27D4 12s00r00           7466 	lcall	_packetbuf_set_attr
   27D7 15 81              7467 	dec	sp
   27D9 15 81              7468 	dec	sp
                           7469 ;	../../core/net/rime/collect.c:1430: if(tc->cb->recv != NULL) {
   27DB A8*00              7470 	mov	r0,_bp
   27DD 08                 7471 	inc	r0
   27DE 74 31              7472 	mov	a,#0x31
   27E0 26                 7473 	add	a,@r0
   27E1 FD                 7474 	mov	r5,a
   27E2 E4                 7475 	clr	a
   27E3 08                 7476 	inc	r0
   27E4 36                 7477 	addc	a,@r0
   27E5 FE                 7478 	mov	r6,a
   27E6 08                 7479 	inc	r0
   27E7 86 07              7480 	mov	ar7,@r0
   27E9 8D 82              7481 	mov	dpl,r5
   27EB 8E 83              7482 	mov	dph,r6
   27ED 8F F0              7483 	mov	b,r7
   27EF 12s00r00           7484 	lcall	__gptrget
   27F2 FD                 7485 	mov	r5,a
   27F3 A3                 7486 	inc	dptr
   27F4 12s00r00           7487 	lcall	__gptrget
   27F7 FE                 7488 	mov	r6,a
   27F8 A3                 7489 	inc	dptr
   27F9 12s00r00           7490 	lcall	__gptrget
   27FC FF                 7491 	mov	r7,a
   27FD 8D 82              7492 	mov	dpl,r5
   27FF 8E 83              7493 	mov	dph,r6
   2801 8F F0              7494 	mov	b,r7
   2803 12s00r00           7495 	lcall	__gptrget
   2806 FE                 7496 	mov	r6,a
   2807 A3                 7497 	inc	dptr
   2808 12s00r00           7498 	lcall	__gptrget
   280B FF                 7499 	mov	r7,a
   280C 4E                 7500 	orl	a,r6
   280D 60 58              7501 	jz	00107$
                           7502 ;	../../core/net/rime/collect.c:1433: packetbuf_attr(PACKETBUF_ATTR_HOPS));
   280F 75 82 13           7503 	mov	dpl,#0x13
   2812 C0 07              7504 	push	ar7
   2814 C0 06              7505 	push	ar6
   2816 12s00r00           7506 	lcall	_packetbuf_attr
   2819 AC 82              7507 	mov	r4,dpl
                           7508 ;	../../core/net/rime/collect.c:1432: packetbuf_attr(PACKETBUF_ATTR_EPACKET_ID),
   281B 75 82 15           7509 	mov	dpl,#0x15
   281E C0 04              7510 	push	ar4
   2820 12s00r00           7511 	lcall	_packetbuf_attr
   2823 AB 82              7512 	mov	r3,dpl
   2825 E5*00              7513 	mov	a,_bp
   2827 24 04              7514 	add	a,#0x04
   2829 F8                 7515 	mov	r0,a
   282A A6 03              7516 	mov	@r0,ar3
                           7517 ;	../../core/net/rime/collect.c:1431: tc->cb->recv(packetbuf_addr(PACKETBUF_ADDR_ESENDER),
   282C 75 82 1A           7518 	mov	dpl,#0x1A
   282F 12s00r00           7519 	lcall	_packetbuf_addr
   2832 AA 82              7520 	mov	r2,dpl
   2834 AB 83              7521 	mov	r3,dph
   2836 AD F0              7522 	mov	r5,b
   2838 D0 04              7523 	pop	ar4
   283A D0 06              7524 	pop	ar6
   283C D0 07              7525 	pop	ar7
   283E C0 07              7526 	push	ar7
   2840 C0 06              7527 	push	ar6
   2842 C0 04              7528 	push	ar4
   2844 E5*00              7529 	mov	a,_bp
   2846 24 04              7530 	add	a,#0x04
   2848 F8                 7531 	mov	r0,a
   2849 E6                 7532 	mov	a,@r0
   284A C0 E0              7533 	push	acc
   284C 74r5F              7534 	mov	a,#00136$
   284E C0 E0              7535 	push	acc
   2850 74s28              7536 	mov	a,#(00136$ >> 8)
   2852 C0 E0              7537 	push	acc
   2854 C0 06              7538 	push	ar6
   2856 C0 07              7539 	push	ar7
   2858 8A 82              7540 	mov	dpl,r2
   285A 8B 83              7541 	mov	dph,r3
   285C 8D F0              7542 	mov	b,r5
   285E 22                 7543 	ret
   285F                    7544 00136$:
   285F 15 81              7545 	dec	sp
   2861 15 81              7546 	dec	sp
   2863 D0 06              7547 	pop	ar6
   2865 D0 07              7548 	pop	ar7
   2867                    7549 00107$:
                           7550 ;	../../core/net/rime/collect.c:1435: return 1;
   2867 90 00 01           7551 	mov	dptr,#0x0001
   286A 02s29rA1           7552 	ljmp	00117$
   286D                    7553 00115$:
                           7554 ;	../../core/net/rime/collect.c:1439: packetbuf_hdralloc(sizeof(struct data_msg_hdr));
   286D 90 00 04           7555 	mov	dptr,#0x0004
   2870 12s00r00           7556 	lcall	_packetbuf_hdralloc
                           7557 ;	../../core/net/rime/collect.c:1444: tc)) {
   2873 A8*00              7558 	mov	r0,_bp
   2875 08                 7559 	inc	r0
   2876 86 05              7560 	mov	ar5,@r0
   2878 08                 7561 	inc	r0
   2879 86 06              7562 	mov	ar6,@r0
   287B 08                 7563 	inc	r0
   287C 86 07              7564 	mov	ar7,@r0
                           7565 ;	../../core/net/rime/collect.c:1443: packetbuf_attr(PACKETBUF_ATTR_MAX_REXMIT),
   287E 75 82 10           7566 	mov	dpl,#0x10
   2881 C0 07              7567 	push	ar7
   2883 C0 06              7568 	push	ar6
   2885 C0 05              7569 	push	ar5
   2887 12s00r00           7570 	lcall	_packetbuf_attr
   288A AB 82              7571 	mov	r3,dpl
   288C D0 05              7572 	pop	ar5
   288E D0 06              7573 	pop	ar6
   2890 D0 07              7574 	pop	ar7
   2892 E5*00              7575 	mov	a,_bp
   2894 24 05              7576 	add	a,#0x05
   2896 F8                 7577 	mov	r0,a
   2897 EB                 7578 	mov	a,r3
   2898 2B                 7579 	add	a,r3
   2899 25 E0              7580 	add	a,acc
   289B 08                 7581 	inc	r0
   289C F6                 7582 	mov	@r0,a
   289D 18                 7583 	dec	r0
   289E 76 00              7584 	mov	@r0,#0x00
                           7585 ;	../../core/net/rime/collect.c:1441: if(packetqueue_enqueue_packetbuf(&tc->send_queue,
   28A0 A8*00              7586 	mov	r0,_bp
   28A2 08                 7587 	inc	r0
   28A3 74 4F              7588 	mov	a,#0x4F
   28A5 26                 7589 	add	a,@r0
   28A6 FA                 7590 	mov	r2,a
   28A7 E4                 7591 	clr	a
   28A8 08                 7592 	inc	r0
   28A9 36                 7593 	addc	a,@r0
   28AA FB                 7594 	mov	r3,a
   28AB 08                 7595 	inc	r0
   28AC 86 04              7596 	mov	ar4,@r0
   28AE C0 05              7597 	push	ar5
   28B0 C0 06              7598 	push	ar6
   28B2 C0 07              7599 	push	ar7
   28B4 E5*00              7600 	mov	a,_bp
   28B6 24 05              7601 	add	a,#0x05
   28B8 F8                 7602 	mov	r0,a
   28B9 E6                 7603 	mov	a,@r0
   28BA C0 E0              7604 	push	acc
   28BC 08                 7605 	inc	r0
   28BD E6                 7606 	mov	a,@r0
   28BE C0 E0              7607 	push	acc
   28C0 8A 82              7608 	mov	dpl,r2
   28C2 8B 83              7609 	mov	dph,r3
   28C4 8C F0              7610 	mov	b,r4
   28C6 12s00r00           7611 	lcall	_packetqueue_enqueue_packetbuf
   28C9 AE 82              7612 	mov	r6,dpl
   28CB AF 83              7613 	mov	r7,dph
   28CD E5 81              7614 	mov	a,sp
   28CF 24 FB              7615 	add	a,#0xfb
   28D1 F5 81              7616 	mov	sp,a
   28D3 EE                 7617 	mov	a,r6
   28D4 4F                 7618 	orl	a,r7
   28D5 60 14              7619 	jz	00109$
                           7620 ;	../../core/net/rime/collect.c:1445: send_queued_packet(tc);
   28D7 A8*00              7621 	mov	r0,_bp
   28D9 08                 7622 	inc	r0
   28DA 86 82              7623 	mov	dpl,@r0
   28DC 08                 7624 	inc	r0
   28DD 86 83              7625 	mov	dph,@r0
   28DF 08                 7626 	inc	r0
   28E0 86 F0              7627 	mov	b,@r0
   28E2 12s08r41           7628 	lcall	_send_queued_packet
                           7629 ;	../../core/net/rime/collect.c:1446: ret = 1;
   28E5 7E 01              7630 	mov	r6,#0x01
   28E7 7F 00              7631 	mov	r7,#0x00
   28E9 80 2F              7632 	sjmp	00110$
   28EB                    7633 00109$:
                           7634 ;	../../core/net/rime/collect.c:1451: rimeaddr_node_addr.u8[0], rimeaddr_node_addr.u8[1]);
   28EB 90s00r01           7635 	mov	dptr,#(_rimeaddr_node_addr + 0x0001)
   28EE E0                 7636 	movx	a,@dptr
   28EF FD                 7637 	mov	r5,a
   28F0 7C 00              7638 	mov	r4,#0x00
   28F2 90s00r00           7639 	mov	dptr,#_rimeaddr_node_addr
   28F5 E0                 7640 	movx	a,@dptr
   28F6 FB                 7641 	mov	r3,a
   28F7 7A 00              7642 	mov	r2,#0x00
                           7643 ;	../../core/net/rime/collect.c:1450: printf("%d.%d: drop originated packet: no queuebuf\n",
   28F9 C0 05              7644 	push	ar5
   28FB C0 04              7645 	push	ar4
   28FD C0 03              7646 	push	ar3
   28FF C0 02              7647 	push	ar2
   2901 74rB4              7648 	mov	a,#__str_7
   2903 C0 E0              7649 	push	acc
   2905 74s00              7650 	mov	a,#(__str_7 >> 8)
   2907 C0 E0              7651 	push	acc
   2909 74 80              7652 	mov	a,#0x80
   290B C0 E0              7653 	push	acc
   290D 12s00r00           7654 	lcall	_printf
   2910 E5 81              7655 	mov	a,sp
   2912 24 F9              7656 	add	a,#0xf9
   2914 F5 81              7657 	mov	sp,a
                           7658 ;	../../core/net/rime/collect.c:1452: ret = 0;
   2916 7E 00              7659 	mov	r6,#0x00
   2918 7F 00              7660 	mov	r7,#0x00
   291A                    7661 00110$:
                           7662 ;	../../core/net/rime/collect.c:1456: n = collect_neighbor_list_find(&tc->neighbor_list, &tc->parent);
   291A C0 06              7663 	push	ar6
   291C C0 07              7664 	push	ar7
   291E A8*00              7665 	mov	r0,_bp
   2920 08                 7666 	inc	r0
   2921 74 9C              7667 	mov	a,#0x9C
   2923 26                 7668 	add	a,@r0
   2924 FB                 7669 	mov	r3,a
   2925 E4                 7670 	clr	a
   2926 08                 7671 	inc	r0
   2927 36                 7672 	addc	a,@r0
   2928 FC                 7673 	mov	r4,a
   2929 08                 7674 	inc	r0
   292A 86 05              7675 	mov	ar5,@r0
   292C A8*00              7676 	mov	r0,_bp
   292E 08                 7677 	inc	r0
   292F 74 55              7678 	mov	a,#0x55
   2931 26                 7679 	add	a,@r0
   2932 FA                 7680 	mov	r2,a
   2933 E4                 7681 	clr	a
   2934 08                 7682 	inc	r0
   2935 36                 7683 	addc	a,@r0
   2936 FE                 7684 	mov	r6,a
   2937 08                 7685 	inc	r0
   2938 86 07              7686 	mov	ar7,@r0
   293A C0 03              7687 	push	ar3
   293C C0 04              7688 	push	ar4
   293E C0 05              7689 	push	ar5
   2940 8A 82              7690 	mov	dpl,r2
   2942 8E 83              7691 	mov	dph,r6
   2944 8F F0              7692 	mov	b,r7
   2946 12s00r00           7693 	lcall	_collect_neighbor_list_find
   2949 AD 82              7694 	mov	r5,dpl
   294B AE 83              7695 	mov	r6,dph
   294D 15 81              7696 	dec	sp
   294F 15 81              7697 	dec	sp
   2951 15 81              7698 	dec	sp
                           7699 ;	../../core/net/rime/collect.c:1457: if(n != NULL) {
   2953 ED                 7700 	mov	a,r5
   2954 4E                 7701 	orl	a,r6
   2955 D0 07              7702 	pop	ar7
   2957 D0 06              7703 	pop	ar6
   2959 70 42              7704 	jnz	00116$
                           7705 ;	../../core/net/rime/collect.c:1471: announcement_set_value(&tc->announcement, RTMETRIC_MAX);
   295B A8*00              7706 	mov	r0,_bp
   295D 08                 7707 	inc	r0
   295E 74 12              7708 	mov	a,#0x12
   2960 26                 7709 	add	a,@r0
   2961 FB                 7710 	mov	r3,a
   2962 E4                 7711 	clr	a
   2963 08                 7712 	inc	r0
   2964 36                 7713 	addc	a,@r0
   2965 FC                 7714 	mov	r4,a
   2966 08                 7715 	inc	r0
   2967 86 05              7716 	mov	ar5,@r0
   2969 C0 07              7717 	push	ar7
   296B C0 06              7718 	push	ar6
   296D 74 FF              7719 	mov	a,#0xFF
   296F C0 E0              7720 	push	acc
   2971 74 01              7721 	mov	a,#0x01
   2973 C0 E0              7722 	push	acc
   2975 8B 82              7723 	mov	dpl,r3
   2977 8C 83              7724 	mov	dph,r4
   2979 8D F0              7725 	mov	b,r5
   297B 12s00r00           7726 	lcall	_announcement_set_value
   297E 15 81              7727 	dec	sp
   2980 15 81              7728 	dec	sp
                           7729 ;	../../core/net/rime/collect.c:1472: announcement_bump(&tc->announcement);
   2982 A8*00              7730 	mov	r0,_bp
   2984 08                 7731 	inc	r0
   2985 74 12              7732 	mov	a,#0x12
   2987 26                 7733 	add	a,@r0
   2988 FB                 7734 	mov	r3,a
   2989 E4                 7735 	clr	a
   298A 08                 7736 	inc	r0
   298B 36                 7737 	addc	a,@r0
   298C FC                 7738 	mov	r4,a
   298D 08                 7739 	inc	r0
   298E 86 05              7740 	mov	ar5,@r0
   2990 8B 82              7741 	mov	dpl,r3
   2992 8C 83              7742 	mov	dph,r4
   2994 8D F0              7743 	mov	b,r5
   2996 12s00r00           7744 	lcall	_announcement_bump
   2999 D0 06              7745 	pop	ar6
   299B D0 07              7746 	pop	ar7
   299D                    7747 00116$:
                           7748 ;	../../core/net/rime/collect.c:1489: return ret;
   299D 8E 82              7749 	mov	dpl,r6
   299F 8F 83              7750 	mov	dph,r7
   29A1                    7751 00117$:
   29A1 85*00 81           7752 	mov	sp,_bp
   29A4 D0*00              7753 	pop	_bp
   29A6 22                 7754 	ret
                           7755 ;------------------------------------------------------------
                           7756 ;Allocation info for local variables in function 'collect_depth'
                           7757 ;------------------------------------------------------------
                           7758 ;tc                        Allocated to registers r5 r6 r7 
                           7759 ;------------------------------------------------------------
                           7760 ;	../../core/net/rime/collect.c:1493: collect_depth(struct collect_conn *tc)
                           7761 ;	-----------------------------------------
                           7762 ;	 function collect_depth
                           7763 ;	-----------------------------------------
   29A7                    7764 _collect_depth:
   29A7 AD 82              7765 	mov	r5,dpl
   29A9 AE 83              7766 	mov	r6,dph
   29AB AF F0              7767 	mov	r7,b
                           7768 ;	../../core/net/rime/collect.c:1495: return tc->rtmetric;
   29AD 74 A0              7769 	mov	a,#0xA0
   29AF 2D                 7770 	add	a,r5
   29B0 FD                 7771 	mov	r5,a
   29B1 E4                 7772 	clr	a
   29B2 3E                 7773 	addc	a,r6
   29B3 FE                 7774 	mov	r6,a
   29B4 8D 82              7775 	mov	dpl,r5
   29B6 8E 83              7776 	mov	dph,r6
   29B8 8F F0              7777 	mov	b,r7
   29BA 12s00r00           7778 	lcall	__gptrget
   29BD FD                 7779 	mov	r5,a
   29BE A3                 7780 	inc	dptr
   29BF 12s00r00           7781 	lcall	__gptrget
   29C2 8D 82              7782 	mov	dpl,r5
   29C4 F5 83              7783 	mov	dph,a
   29C6 22                 7784 	ret
                           7785 ;------------------------------------------------------------
                           7786 ;Allocation info for local variables in function 'collect_parent'
                           7787 ;------------------------------------------------------------
                           7788 ;tc                        Allocated to registers r5 r6 r7 
                           7789 ;------------------------------------------------------------
                           7790 ;	../../core/net/rime/collect.c:1499: collect_parent(struct collect_conn *tc)
                           7791 ;	-----------------------------------------
                           7792 ;	 function collect_parent
                           7793 ;	-----------------------------------------
   29C7                    7794 _collect_parent:
   29C7 AD 82              7795 	mov	r5,dpl
   29C9 AE 83              7796 	mov	r6,dph
   29CB AF F0              7797 	mov	r7,b
                           7798 ;	../../core/net/rime/collect.c:1501: return &tc->current_parent;
   29CD 74 9E              7799 	mov	a,#0x9E
   29CF 2D                 7800 	add	a,r5
   29D0 FD                 7801 	mov	r5,a
   29D1 E4                 7802 	clr	a
   29D2 3E                 7803 	addc	a,r6
   29D3 FE                 7804 	mov	r6,a
   29D4 8D 82              7805 	mov	dpl,r5
   29D6 8E 83              7806 	mov	dph,r6
   29D8 8F F0              7807 	mov	b,r7
   29DA 22                 7808 	ret
                           7809 ;------------------------------------------------------------
                           7810 ;Allocation info for local variables in function 'collect_purge'
                           7811 ;------------------------------------------------------------
                           7812 ;tc                        Allocated to registers r5 r6 r7 
                           7813 ;------------------------------------------------------------
                           7814 ;	../../core/net/rime/collect.c:1505: collect_purge(struct collect_conn *tc)
                           7815 ;	-----------------------------------------
                           7816 ;	 function collect_purge
                           7817 ;	-----------------------------------------
   29DB                    7818 _collect_purge:
   29DB AD 82              7819 	mov	r5,dpl
   29DD AE 83              7820 	mov	r6,dph
   29DF AF F0              7821 	mov	r7,b
                           7822 ;	../../core/net/rime/collect.c:1507: collect_neighbor_list_purge(&tc->neighbor_list);
   29E1 74 55              7823 	mov	a,#0x55
   29E3 2D                 7824 	add	a,r5
   29E4 FA                 7825 	mov	r2,a
   29E5 E4                 7826 	clr	a
   29E6 3E                 7827 	addc	a,r6
   29E7 FB                 7828 	mov	r3,a
   29E8 8F 04              7829 	mov	ar4,r7
   29EA 8A 82              7830 	mov	dpl,r2
   29EC 8B 83              7831 	mov	dph,r3
   29EE 8C F0              7832 	mov	b,r4
   29F0 C0 07              7833 	push	ar7
   29F2 C0 06              7834 	push	ar6
   29F4 C0 05              7835 	push	ar5
   29F6 12s00r00           7836 	lcall	_collect_neighbor_list_purge
   29F9 D0 05              7837 	pop	ar5
   29FB D0 06              7838 	pop	ar6
   29FD D0 07              7839 	pop	ar7
                           7840 ;	../../core/net/rime/collect.c:1508: rimeaddr_copy(&tc->parent, &rimeaddr_null);
   29FF 74 9C              7841 	mov	a,#0x9C
   2A01 2D                 7842 	add	a,r5
   2A02 FA                 7843 	mov	r2,a
   2A03 E4                 7844 	clr	a
   2A04 3E                 7845 	addc	a,r6
   2A05 FB                 7846 	mov	r3,a
   2A06 8F 04              7847 	mov	ar4,r7
   2A08 C0 07              7848 	push	ar7
   2A0A C0 06              7849 	push	ar6
   2A0C C0 05              7850 	push	ar5
   2A0E 74r00              7851 	mov	a,#_rimeaddr_null
   2A10 C0 E0              7852 	push	acc
   2A12 74s00              7853 	mov	a,#(_rimeaddr_null >> 8)
   2A14 C0 E0              7854 	push	acc
   2A16 74 80              7855 	mov	a,#0x80
   2A18 C0 E0              7856 	push	acc
   2A1A 8A 82              7857 	mov	dpl,r2
   2A1C 8B 83              7858 	mov	dph,r3
   2A1E 8C F0              7859 	mov	b,r4
   2A20 12s00r00           7860 	lcall	_rimeaddr_copy
   2A23 15 81              7861 	dec	sp
   2A25 15 81              7862 	dec	sp
   2A27 15 81              7863 	dec	sp
   2A29 D0 05              7864 	pop	ar5
   2A2B D0 06              7865 	pop	ar6
   2A2D D0 07              7866 	pop	ar7
                           7867 ;	../../core/net/rime/collect.c:1509: update_rtmetric(tc);
   2A2F 8D 82              7868 	mov	dpl,r5
   2A31 8E 83              7869 	mov	dph,r6
   2A33 8F F0              7870 	mov	b,r7
   2A35 C0 07              7871 	push	ar7
   2A37 C0 06              7872 	push	ar6
   2A39 C0 05              7873 	push	ar5
   2A3B 12s02rA0           7874 	lcall	_update_rtmetric
   2A3E D0 05              7875 	pop	ar5
   2A40 D0 06              7876 	pop	ar6
   2A42 D0 07              7877 	pop	ar7
                           7878 ;	../../core/net/rime/collect.c:1513: rimeaddr_copy(&tc->parent, &rimeaddr_null);
   2A44 74 9C              7879 	mov	a,#0x9C
   2A46 2D                 7880 	add	a,r5
   2A47 FD                 7881 	mov	r5,a
   2A48 E4                 7882 	clr	a
   2A49 3E                 7883 	addc	a,r6
   2A4A FE                 7884 	mov	r6,a
   2A4B 74r00              7885 	mov	a,#_rimeaddr_null
   2A4D C0 E0              7886 	push	acc
   2A4F 74s00              7887 	mov	a,#(_rimeaddr_null >> 8)
   2A51 C0 E0              7888 	push	acc
   2A53 74 80              7889 	mov	a,#0x80
   2A55 C0 E0              7890 	push	acc
   2A57 8D 82              7891 	mov	dpl,r5
   2A59 8E 83              7892 	mov	dph,r6
   2A5B 8F F0              7893 	mov	b,r7
   2A5D 12s00r00           7894 	lcall	_rimeaddr_copy
   2A60 15 81              7895 	dec	sp
   2A62 15 81              7896 	dec	sp
   2A64 15 81              7897 	dec	sp
   2A66 22                 7898 	ret
                           7899 ;------------------------------------------------------------
                           7900 ;Allocation info for local variables in function 'collect_print_stats'
                           7901 ;------------------------------------------------------------
                           7902 ;	../../core/net/rime/collect.c:1517: collect_print_stats(void)
                           7903 ;	-----------------------------------------
                           7904 ;	 function collect_print_stats
                           7905 ;	-----------------------------------------
   2A67                    7906 _collect_print_stats:
                           7907 ;	../../core/net/rime/collect.c:1525: }
   2A67 22                 7908 	ret
                           7909 	.area CSEG    (CODE)
                           7910 	.area CONST   (CODE)
   0000                    7911 _attributes:
   0000 1A                 7912 	.db #0x1A	; 26
   0001 10                 7913 	.db #0x10	; 16
   0002 15                 7914 	.db #0x15	; 21
   0003 08                 7915 	.db #0x08	; 8
   0004 0D                 7916 	.db #0x0D	; 13
   0005 08                 7917 	.db #0x08	; 8
   0006 14                 7918 	.db #0x14	; 20
   0007 04                 7919 	.db #0x04	; 4
   0008 13                 7920 	.db #0x13	; 19
   0009 04                 7921 	.db #0x04	; 4
   000A 10                 7922 	.db #0x10	; 16
   000B 05                 7923 	.db #0x05	; 5
   000C 0E                 7924 	.db #0x0E	; 14
   000D 01                 7925 	.db #0x01	; 1
   000E 19                 7926 	.db #0x19	; 25
   000F 10                 7927 	.db #0x10	; 16
   0010 18                 7928 	.db #0x18	; 24
   0011 10                 7929 	.db #0x10	; 16
   0012 00                 7930 	.db #0x00	; 0
   0013 00                 7931 	.db #0x00	; 0
   0014                    7932 __str_0:
   0014 23 41 20 65 3D 25  7933 	.ascii "#A e=%d"
        64
   001B 0A                 7934 	.db 0x0A
   001C 00                 7935 	.db 0x00
   001D                    7936 __str_1:
   001D 23 4C 20 25 64 20  7937 	.ascii "#L %d 0"
        30
   0024 0A                 7938 	.db 0x0A
   0025 00                 7939 	.db 0x00
   0026                    7940 __str_2:
   0026 23 4C 20 25 64 20  7941 	.ascii "#L %d 1"
        31
   002D 0A                 7942 	.db 0x0A
   002E 00                 7943 	.db 0x00
   002F                    7944 __str_3:
   002F 23 41 20 72 74 3D  7945 	.ascii "#A rt=%d,p=%d"
        25 64 2C 70 3D 25
        64
   003C 0A                 7946 	.db 0x0A
   003D 00                 7947 	.db 0x00
   003E                    7948 __str_4:
   003E 23 41 20 73 3D 25  7949 	.ascii "#A s=%d"
        64
   0045 0A                 7950 	.db 0x0A
   0046 00                 7951 	.db 0x00
   0047                    7952 __str_5:
   0047 25 64 2E 25 64 3A  7953 	.ascii "%d.%d: timedout after %d retransmissions to %d.%d (max retra"
        20 74 69 6D 65 64
        6F 75 74 20 61 66
        74 65 72 20 25 64
        20 72 65 74 72 61
        6E 73 6D 69 73 73
        69 6F 6E 73 20 74
        6F 20 25 64 2E 25
        64 20 28 6D 61 78
        20 72 65 74 72 61
   0083 6E 73 6D 69 73 73  7954 	.ascii "nsmissions %d): packet dropped"
        69 6F 6E 73 20 25
        64 29 3A 20 70 61
        63 6B 65 74 20 64
        72 6F 70 70 65 64
   00A1 0A                 7955 	.db 0x0A
   00A2 00                 7956 	.db 0x00
   00A3                    7957 _unicast_callbacks:
   00A3r60s14              7958 	.byte _node_packet_received,(_node_packet_received >> 8)
   00A5rDFs1C              7959 	.byte _node_packet_sent,(_node_packet_sent >> 8)
   00A7                    7960 __str_6:
   00A7 23 41 20 72 74 3D  7961 	.ascii "#A rt=0,p=0"
        30 2C 70 3D 30
   00B2 0A                 7962 	.db 0x0A
   00B3 00                 7963 	.db 0x00
   00B4                    7964 __str_7:
   00B4 25 64 2E 25 64 3A  7965 	.ascii "%d.%d: drop originated packet: no queuebuf"
        20 64 72 6F 70 20
        6F 72 69 67 69 6E
        61 74 65 64 20 70
        61 63 6B 65 74 3A
        20 6E 6F 20 71 75
        65 75 65 62 75 66
   00DE 0A                 7966 	.db 0x0A
   00DF 00                 7967 	.db 0x00
                           7968 	.area XINIT   (CODE)
   0000                    7969 __xinit__send_queue_memb:
   0000 21 00              7970 	.byte #0x21,#0x00	; 33
   0002 06 00              7971 	.byte #0x06,#0x00	; 6
   0004r61s00 00           7972 	.byte _send_queue_memb_memb_count,(_send_queue_memb_memb_count >> 8),#0x00
   0007r67s00 00           7973 	.byte _send_queue_memb_memb_mem,(_send_queue_memb_memb_mem >> 8),#0x00
                           7974 	.area CABS    (ABS,CODE)
