;--------------------------------------------------------
; File Created by SDCC : free open source ANSI-C Compiler
; Version 3.1.1 #7100 (Apr  1 2013) (Linux)
; This file was generated Tue Apr 23 09:41:16 2013
;--------------------------------------------------------
	.module ipolite
	.optsdcc -mmcs51 --model-large
	
;--------------------------------------------------------
; Public variables in this module
;--------------------------------------------------------
	.globl _random_rand
	.globl _queuebuf_datalen
	.globl _queuebuf_dataptr
	.globl _queuebuf_free
	.globl _queuebuf_to_packetbuf
	.globl _queuebuf_new_from_packetbuf
	.globl _broadcast_send
	.globl _broadcast_close
	.globl _broadcast_open
	.globl _packetbuf_datalen
	.globl _packetbuf_dataptr
	.globl _ctimer_stop
	.globl _ctimer_set
	.globl _memcmp
	.globl _IRCON2_P2IF
	.globl _IRCON2_UTX0IF
	.globl _IRCON2_UTX1IF
	.globl _IRCON2_P1IF
	.globl _IRCON2_WDTIF
	.globl _CY
	.globl _AC
	.globl _F0
	.globl _RS1
	.globl _RS0
	.globl _OV
	.globl _F1
	.globl _P
	.globl _IRCON_DMAIF
	.globl _IRCON_T1IF
	.globl _IRCON_T2IF
	.globl _IRCON_T3IF
	.globl _IRCON_T4IF
	.globl _IRCON_P0IF
	.globl _IRCON_STIF
	.globl _IEN1_DMAIE
	.globl _IEN1_T1IE
	.globl _IEN1_T2IE
	.globl _IEN1_T3IE
	.globl _IEN1_T4IE
	.globl _IEN1_P0IE
	.globl _IEN0_RFERRIE
	.globl _IEN0_ADCIE
	.globl _IEN0_URX0IE
	.globl _IEN0_URX1IE
	.globl _IEN0_ENCIE
	.globl _IEN0_STIE
	.globl _IEN0_EA
	.globl _EA
	.globl _P2_4
	.globl _P2_3
	.globl _P2_2
	.globl _P2_1
	.globl _P2_0
	.globl _S0CON_ENCIF_0
	.globl _S0CON_ENCIF_1
	.globl _P1_7
	.globl _P1_6
	.globl _P1_5
	.globl _P1_4
	.globl _P1_3
	.globl _P1_2
	.globl _P1_1
	.globl _P1_0
	.globl _TCON_IT0
	.globl _TCON_RFERRIF
	.globl _TCON_IT1
	.globl _TCON_URX0IF
	.globl _TCON_ADCIF
	.globl _TCON_URX1IF
	.globl _P0_0
	.globl _P0_1
	.globl _P0_2
	.globl _P0_3
	.globl _P0_4
	.globl _P0_5
	.globl _P0_6
	.globl _P0_7
	.globl _P2DIR
	.globl _P1DIR
	.globl _P0DIR
	.globl _U1GCR
	.globl _U1UCR
	.globl _U1BAUD
	.globl _U1BUF
	.globl _U1CSR
	.globl _P2INP
	.globl _P1INP
	.globl _P2SEL
	.globl _P1SEL
	.globl _P0SEL
	.globl _ADCCFG
	.globl _PERCFG
	.globl _B
	.globl _T4CC1
	.globl _T4CCTL1
	.globl _T4CC0
	.globl _T4CCTL0
	.globl _T4CTL
	.globl _T4CNT
	.globl _RFIF
	.globl _IRCON2
	.globl _T1CCTL2
	.globl _T1CCTL1
	.globl _T1CCTL0
	.globl _T1CTL
	.globl _T1CNTH
	.globl _T1CNTL
	.globl _RFST
	.globl _ACC
	.globl _T1CC2H
	.globl _T1CC2L
	.globl _T1CC1H
	.globl _T1CC1L
	.globl _T1CC0H
	.globl _T1CC0L
	.globl _RFD
	.globl _TIMIF
	.globl _DMAREQ
	.globl _DMAARM
	.globl _DMA0CFGH
	.globl _DMA0CFGL
	.globl _DMA1CFGH
	.globl _DMA1CFGL
	.globl _DMAIRQ
	.globl _PSW
	.globl _T3CC1
	.globl _T3CCTL1
	.globl _T3CC0
	.globl _T3CCTL0
	.globl _T3CTL
	.globl _T3CNT
	.globl _WDCTL
	.globl _T2CON
	.globl _MEMCTR
	.globl _CLKCON
	.globl _U0GCR
	.globl _U0UCR
	.globl _T2CNF
	.globl _U0BAUD
	.globl _U0BUF
	.globl _IRCON
	.globl _SLEEP
	.globl _RNDH
	.globl _RNDL
	.globl _ADCH
	.globl _ADCL
	.globl _IP1
	.globl _IEN1
	.globl _RCCTL
	.globl _ADCCON3
	.globl _ADCCON2
	.globl _ADCCON1
	.globl _ENCCS
	.globl _ENCDO
	.globl _ENCDI
	.globl _FWDATA
	.globl _FCTL
	.globl _FADDRH
	.globl _FADDRL
	.globl _FWT
	.globl _IP0
	.globl _IEN0
	.globl _IE
	.globl _T2THD
	.globl _T2TLD
	.globl _T2CAPHPH
	.globl _T2CAPLPL
	.globl _T2OF2
	.globl _T2OF1
	.globl _T2OF0
	.globl _P2
	.globl _PSBANK
	.globl _FMAP
	.globl _T2PEROF2
	.globl _T2PEROF1
	.globl _T2PEROF0
	.globl _S1CON
	.globl _IEN2
	.globl _HSRC
	.globl _S0CON
	.globl _ST2
	.globl _ST1
	.globl _ST0
	.globl _T2CMP
	.globl __XPAGE
	.globl _DPS
	.globl _RFIM
	.globl _P1
	.globl _P0INP
	.globl _P1IEN
	.globl _PICTL
	.globl _P2IFG
	.globl _P1IFG
	.globl _P0IFG
	.globl _TCON
	.globl _PCON
	.globl _U0CSR
	.globl _DPH1
	.globl _DPL1
	.globl _DPH0
	.globl _DPL0
	.globl _SP
	.globl _P0
	.globl _ADC_SHADOW
	.globl _U1BUF_SHADOW
	.globl _RFD_SHADOW
	.globl _U0BUF_SHADOW
	.globl _RFSTATUS
	.globl _CHIPID
	.globl _CHVER
	.globl _FSMTC1
	.globl _RXFIFOCNT
	.globl _IOCFG3
	.globl _IOCFG2
	.globl _IOCFG1
	.globl _IOCFG0
	.globl _SHORTADDRL
	.globl _SHORTADDRH
	.globl _PANIDL
	.globl _PANIDH
	.globl _IEEE_ADDR7
	.globl _IEEE_ADDR6
	.globl _IEEE_ADDR5
	.globl _IEEE_ADDR4
	.globl _IEEE_ADDR3
	.globl _IEEE_ADDR2
	.globl _IEEE_ADDR1
	.globl _IEEE_ADDR0
	.globl _DACTSTL
	.globl _DACTSTH
	.globl _ADCTSTL
	.globl _ADCTSTH
	.globl _FSMSTATE
	.globl _AGCCTRLL
	.globl _AGCCTRLH
	.globl _MANORL
	.globl _MANORH
	.globl _MANANDL
	.globl _MANANDH
	.globl _FSMTCL
	.globl _FSMTCH
	.globl _RFPWR
	.globl _CSPT
	.globl _CSPCTRL
	.globl _CSPZ
	.globl _CSPY
	.globl _CSPX
	.globl _FSCTRLL
	.globl _FSCTRLH
	.globl _RXCTRL1L
	.globl _RXCTRL1H
	.globl _RXCTRL0L
	.globl _RXCTRL0H
	.globl _TXCTRLL
	.globl _TXCTRLH
	.globl _SYNCWORDL
	.globl _SYNCWORDH
	.globl _RSSIL
	.globl _RSSIH
	.globl _MDMCTRL1L
	.globl _MDMCTRL1H
	.globl _MDMCTRL0L
	.globl _MDMCTRL0H
	.globl _ipolite_open
	.globl _ipolite_close
	.globl _ipolite_send
	.globl _ipolite_cancel
;--------------------------------------------------------
; special function registers
;--------------------------------------------------------
	.area RSEG    (ABS,DATA)
	.org 0x0000
_P0	=	0x0080
_SP	=	0x0081
_DPL0	=	0x0082
_DPH0	=	0x0083
_DPL1	=	0x0084
_DPH1	=	0x0085
_U0CSR	=	0x0086
_PCON	=	0x0087
_TCON	=	0x0088
_P0IFG	=	0x0089
_P1IFG	=	0x008a
_P2IFG	=	0x008b
_PICTL	=	0x008c
_P1IEN	=	0x008d
_P0INP	=	0x008f
_P1	=	0x0090
_RFIM	=	0x0091
_DPS	=	0x0092
__XPAGE	=	0x0093
_T2CMP	=	0x0094
_ST0	=	0x0095
_ST1	=	0x0096
_ST2	=	0x0097
_S0CON	=	0x0098
_HSRC	=	0x0099
_IEN2	=	0x009a
_S1CON	=	0x009b
_T2PEROF0	=	0x009c
_T2PEROF1	=	0x009d
_T2PEROF2	=	0x009e
_FMAP	=	0x009f
_PSBANK	=	0x009f
_P2	=	0x00a0
_T2OF0	=	0x00a1
_T2OF1	=	0x00a2
_T2OF2	=	0x00a3
_T2CAPLPL	=	0x00a4
_T2CAPHPH	=	0x00a5
_T2TLD	=	0x00a6
_T2THD	=	0x00a7
_IE	=	0x00a8
_IEN0	=	0x00a8
_IP0	=	0x00a9
_FWT	=	0x00ab
_FADDRL	=	0x00ac
_FADDRH	=	0x00ad
_FCTL	=	0x00ae
_FWDATA	=	0x00af
_ENCDI	=	0x00b1
_ENCDO	=	0x00b2
_ENCCS	=	0x00b3
_ADCCON1	=	0x00b4
_ADCCON2	=	0x00b5
_ADCCON3	=	0x00b6
_RCCTL	=	0x00b7
_IEN1	=	0x00b8
_IP1	=	0x00b9
_ADCL	=	0x00ba
_ADCH	=	0x00bb
_RNDL	=	0x00bc
_RNDH	=	0x00bd
_SLEEP	=	0x00be
_IRCON	=	0x00c0
_U0BUF	=	0x00c1
_U0BAUD	=	0x00c2
_T2CNF	=	0x00c3
_U0UCR	=	0x00c4
_U0GCR	=	0x00c5
_CLKCON	=	0x00c6
_MEMCTR	=	0x00c7
_T2CON	=	0x00c8
_WDCTL	=	0x00c9
_T3CNT	=	0x00ca
_T3CTL	=	0x00cb
_T3CCTL0	=	0x00cc
_T3CC0	=	0x00cd
_T3CCTL1	=	0x00ce
_T3CC1	=	0x00cf
_PSW	=	0x00d0
_DMAIRQ	=	0x00d1
_DMA1CFGL	=	0x00d2
_DMA1CFGH	=	0x00d3
_DMA0CFGL	=	0x00d4
_DMA0CFGH	=	0x00d5
_DMAARM	=	0x00d6
_DMAREQ	=	0x00d7
_TIMIF	=	0x00d8
_RFD	=	0x00d9
_T1CC0L	=	0x00da
_T1CC0H	=	0x00db
_T1CC1L	=	0x00dc
_T1CC1H	=	0x00dd
_T1CC2L	=	0x00de
_T1CC2H	=	0x00df
_ACC	=	0x00e0
_RFST	=	0x00e1
_T1CNTL	=	0x00e2
_T1CNTH	=	0x00e3
_T1CTL	=	0x00e4
_T1CCTL0	=	0x00e5
_T1CCTL1	=	0x00e6
_T1CCTL2	=	0x00e7
_IRCON2	=	0x00e8
_RFIF	=	0x00e9
_T4CNT	=	0x00ea
_T4CTL	=	0x00eb
_T4CCTL0	=	0x00ec
_T4CC0	=	0x00ed
_T4CCTL1	=	0x00ee
_T4CC1	=	0x00ef
_B	=	0x00f0
_PERCFG	=	0x00f1
_ADCCFG	=	0x00f2
_P0SEL	=	0x00f3
_P1SEL	=	0x00f4
_P2SEL	=	0x00f5
_P1INP	=	0x00f6
_P2INP	=	0x00f7
_U1CSR	=	0x00f8
_U1BUF	=	0x00f9
_U1BAUD	=	0x00fa
_U1UCR	=	0x00fb
_U1GCR	=	0x00fc
_P0DIR	=	0x00fd
_P1DIR	=	0x00fe
_P2DIR	=	0x00ff
;--------------------------------------------------------
; special function bits
;--------------------------------------------------------
	.area RSEG    (ABS,DATA)
	.org 0x0000
_P0_7	=	0x0087
_P0_6	=	0x0086
_P0_5	=	0x0085
_P0_4	=	0x0084
_P0_3	=	0x0083
_P0_2	=	0x0082
_P0_1	=	0x0081
_P0_0	=	0x0080
_TCON_URX1IF	=	0x008f
_TCON_ADCIF	=	0x008d
_TCON_URX0IF	=	0x008b
_TCON_IT1	=	0x008a
_TCON_RFERRIF	=	0x0089
_TCON_IT0	=	0x0088
_P1_0	=	0x0090
_P1_1	=	0x0091
_P1_2	=	0x0092
_P1_3	=	0x0093
_P1_4	=	0x0094
_P1_5	=	0x0095
_P1_6	=	0x0096
_P1_7	=	0x0097
_S0CON_ENCIF_1	=	0x0099
_S0CON_ENCIF_0	=	0x0098
_P2_0	=	0x00a0
_P2_1	=	0x00a1
_P2_2	=	0x00a2
_P2_3	=	0x00a3
_P2_4	=	0x00a4
_EA	=	0x00af
_IEN0_EA	=	0x00af
_IEN0_STIE	=	0x00ad
_IEN0_ENCIE	=	0x00ac
_IEN0_URX1IE	=	0x00ab
_IEN0_URX0IE	=	0x00aa
_IEN0_ADCIE	=	0x00a9
_IEN0_RFERRIE	=	0x00a8
_IEN1_P0IE	=	0x00bd
_IEN1_T4IE	=	0x00bc
_IEN1_T3IE	=	0x00bb
_IEN1_T2IE	=	0x00ba
_IEN1_T1IE	=	0x00b9
_IEN1_DMAIE	=	0x00b8
_IRCON_STIF	=	0x00c7
_IRCON_P0IF	=	0x00c5
_IRCON_T4IF	=	0x00c4
_IRCON_T3IF	=	0x00c3
_IRCON_T2IF	=	0x00c2
_IRCON_T1IF	=	0x00c1
_IRCON_DMAIF	=	0x00c0
_P	=	0x00d0
_F1	=	0x00d1
_OV	=	0x00d2
_RS0	=	0x00d3
_RS1	=	0x00d4
_F0	=	0x00d5
_AC	=	0x00d6
_CY	=	0x00d7
_IRCON2_WDTIF	=	0x00ec
_IRCON2_P1IF	=	0x00eb
_IRCON2_UTX1IF	=	0x00ea
_IRCON2_UTX0IF	=	0x00e9
_IRCON2_P2IF	=	0x00e8
;--------------------------------------------------------
; overlayable register banks
;--------------------------------------------------------
	.area REG_BANK_0	(REL,OVR,DATA)
	.ds 8
;--------------------------------------------------------
; internal ram data
;--------------------------------------------------------
	.area DSEG    (DATA)
;--------------------------------------------------------
; overlayable items in internal ram 
;--------------------------------------------------------
	.area OSEG    (OVR,DATA)
;--------------------------------------------------------
; indirectly addressable internal ram data
;--------------------------------------------------------
	.area ISEG    (DATA)
;--------------------------------------------------------
; absolute internal ram data
;--------------------------------------------------------
	.area IABS    (ABS,DATA)
	.area IABS    (ABS,DATA)
;--------------------------------------------------------
; bit data
;--------------------------------------------------------
	.area BSEG    (BIT)
;--------------------------------------------------------
; paged external ram data
;--------------------------------------------------------
	.area PSEG    (PAG,XDATA)
;--------------------------------------------------------
; external ram data
;--------------------------------------------------------
	.area XSEG    (XDATA)
_MDMCTRL0H	=	0xdf02
_MDMCTRL0L	=	0xdf03
_MDMCTRL1H	=	0xdf04
_MDMCTRL1L	=	0xdf05
_RSSIH	=	0xdf06
_RSSIL	=	0xdf07
_SYNCWORDH	=	0xdf08
_SYNCWORDL	=	0xdf09
_TXCTRLH	=	0xdf0a
_TXCTRLL	=	0xdf0b
_RXCTRL0H	=	0xdf0c
_RXCTRL0L	=	0xdf0d
_RXCTRL1H	=	0xdf0e
_RXCTRL1L	=	0xdf0f
_FSCTRLH	=	0xdf10
_FSCTRLL	=	0xdf11
_CSPX	=	0xdf12
_CSPY	=	0xdf13
_CSPZ	=	0xdf14
_CSPCTRL	=	0xdf15
_CSPT	=	0xdf16
_RFPWR	=	0xdf17
_FSMTCH	=	0xdf20
_FSMTCL	=	0xdf21
_MANANDH	=	0xdf22
_MANANDL	=	0xdf23
_MANORH	=	0xdf24
_MANORL	=	0xdf25
_AGCCTRLH	=	0xdf26
_AGCCTRLL	=	0xdf27
_FSMSTATE	=	0xdf39
_ADCTSTH	=	0xdf3a
_ADCTSTL	=	0xdf3b
_DACTSTH	=	0xdf3c
_DACTSTL	=	0xdf3d
_IEEE_ADDR0	=	0xdf43
_IEEE_ADDR1	=	0xdf44
_IEEE_ADDR2	=	0xdf45
_IEEE_ADDR3	=	0xdf46
_IEEE_ADDR4	=	0xdf47
_IEEE_ADDR5	=	0xdf48
_IEEE_ADDR6	=	0xdf49
_IEEE_ADDR7	=	0xdf4a
_PANIDH	=	0xdf4b
_PANIDL	=	0xdf4c
_SHORTADDRH	=	0xdf4d
_SHORTADDRL	=	0xdf4e
_IOCFG0	=	0xdf4f
_IOCFG1	=	0xdf50
_IOCFG2	=	0xdf51
_IOCFG3	=	0xdf52
_RXFIFOCNT	=	0xdf53
_FSMTC1	=	0xdf54
_CHVER	=	0xdf60
_CHIPID	=	0xdf61
_RFSTATUS	=	0xdf62
_U0BUF_SHADOW	=	0xdfc1
_RFD_SHADOW	=	0xdfd9
_U1BUF_SHADOW	=	0xdff9
_ADC_SHADOW	=	0xdfba
;--------------------------------------------------------
; absolute external ram data
;--------------------------------------------------------
	.area XABS    (ABS,XDATA)
;--------------------------------------------------------
; external initialized ram data
;--------------------------------------------------------
	.area XISEG   (XDATA)
	.area HOME    (CODE)
	.area GSINIT0 (CODE)
	.area GSINIT1 (CODE)
	.area GSINIT2 (CODE)
	.area GSINIT3 (CODE)
	.area GSINIT4 (CODE)
	.area GSINIT5 (CODE)
	.area GSINIT  (CODE)
	.area GSFINAL (CODE)
	.area CSEG    (CODE)
;--------------------------------------------------------
; global & static initialisations
;--------------------------------------------------------
	.area HOME    (CODE)
	.area GSINIT  (CODE)
	.area GSFINAL (CODE)
	.area GSINIT  (CODE)
;--------------------------------------------------------
; Home
;--------------------------------------------------------
	.area HOME    (CODE)
	.area HOME    (CODE)
;--------------------------------------------------------
; code
;--------------------------------------------------------
	.area CSEG    (CODE)
;------------------------------------------------------------
;Allocation info for local variables in function 'recv'
;------------------------------------------------------------
;from                      Allocated to stack - _bp -5
;broadcast                 Allocated to registers r5 r6 r7 
;c                         Allocated to stack - _bp +1
;sloc0                     Allocated to stack - _bp +4
;------------------------------------------------------------
;	../../core/net/rime/ipolite.c:70: recv(struct broadcast_conn *broadcast, const rimeaddr_t *from)
;	-----------------------------------------
;	 function recv
;	-----------------------------------------
_recv:
	ar7 = 0x07
	ar6 = 0x06
	ar5 = 0x05
	ar4 = 0x04
	ar3 = 0x03
	ar2 = 0x02
	ar1 = 0x01
	ar0 = 0x00
	push	_bp
	mov	a,sp
	mov	_bp,a
	add	a,#0x05
	mov	sp,a
	mov	r5,dpl
	mov	r6,dph
	mov	r7,b
;	../../core/net/rime/ipolite.c:72: struct ipolite_conn *c = (struct ipolite_conn *)broadcast;
	mov	r0,_bp
	inc	r0
	mov	@r0,ar5
	inc	r0
	mov	@r0,ar6
	inc	r0
	mov	@r0,ar7
;	../../core/net/rime/ipolite.c:73: if(c->q != NULL &&
	mov	r0,_bp
	inc	r0
	mov	a,#0x27
	add	a,@r0
	mov	r2,a
	clr	a
	inc	r0
	addc	a,@r0
	mov	r3,a
	inc	r0
	mov	ar4,@r0
	mov	dpl,r2
	mov	dph,r3
	mov	b,r4
	lcall	__gptrget
	mov	r5,a
	inc	dptr
	lcall	__gptrget
	mov	r6,a
	inc	dptr
	lcall	__gptrget
	mov	r7,a
	mov	a,r5
	orl	a,r6
	jnz	00129$
	ljmp	00106$
00129$:
;	../../core/net/rime/ipolite.c:74: packetbuf_datalen() == queuebuf_datalen(c->q) &&
	push	ar4
	push	ar3
	push	ar2
	lcall	_packetbuf_datalen
	xch	a,r0
	mov	a,_bp
	add	a,#0x04
	xch	a,r0
	mov	@r0,dpl
	inc	r0
	mov	@r0,dph
	pop	ar2
	pop	ar3
	pop	ar4
	mov	dpl,r2
	mov	dph,r3
	mov	b,r4
	lcall	__gptrget
	mov	r5,a
	inc	dptr
	lcall	__gptrget
	mov	r6,a
	inc	dptr
	lcall	__gptrget
	mov	r7,a
	mov	dpl,r5
	mov	dph,r6
	mov	b,r7
	push	ar4
	push	ar3
	push	ar2
	lcall	_queuebuf_datalen
	mov	r6,dpl
	mov	r7,dph
	pop	ar2
	pop	ar3
	pop	ar4
	mov	a,_bp
	add	a,#0x04
	mov	r0,a
	mov	a,@r0
	cjne	a,ar6,00130$
	inc	r0
	mov	a,@r0
	cjne	a,ar7,00130$
	sjmp	00131$
00130$:
	ljmp	00106$
00131$:
;	../../core/net/rime/ipolite.c:76: MIN(c->hdrsize, packetbuf_datalen())) == 0) {
	push	ar2
	push	ar3
	push	ar4
	mov	r0,_bp
	inc	r0
	mov	a,#0x2A
	add	a,@r0
	mov	r5,a
	clr	a
	inc	r0
	addc	a,@r0
	mov	r6,a
	inc	r0
	mov	ar7,@r0
	mov	dpl,r5
	mov	dph,r6
	mov	b,r7
	lcall	__gptrget
	mov	r4,a
	push	ar7
	push	ar6
	push	ar5
	push	ar4
	push	ar3
	push	ar2
	lcall	_packetbuf_datalen
	xch	a,r0
	mov	a,_bp
	add	a,#0x04
	xch	a,r0
	mov	@r0,dpl
	inc	r0
	mov	@r0,dph
	pop	ar2
	pop	ar3
	pop	ar4
	pop	ar5
	pop	ar6
	pop	ar7
	mov	ar3,r4
	mov	r4,#0x00
	mov	a,_bp
	add	a,#0x04
	mov	r0,a
	clr	c
	mov	a,r3
	subb	a,@r0
	mov	a,r4
	inc	r0
	subb	a,@r0
	pop	ar4
	pop	ar3
	pop	ar2
	jnc	00113$
	mov	dpl,r5
	mov	dph,r6
	mov	b,r7
	lcall	__gptrget
	mov	r5,a
	mov	a,_bp
	add	a,#0x04
	mov	r0,a
	mov	@r0,ar5
	inc	r0
	mov	@r0,#0x00
	sjmp	00114$
00113$:
	push	ar4
	push	ar3
	push	ar2
	lcall	_packetbuf_datalen
	xch	a,r0
	mov	a,_bp
	add	a,#0x04
	xch	a,r0
	mov	@r0,dpl
	inc	r0
	mov	@r0,dph
	pop	ar2
	pop	ar3
	pop	ar4
00114$:
;	../../core/net/rime/ipolite.c:75: memcmp(packetbuf_dataptr(), queuebuf_dataptr(c->q),
	mov	dpl,r2
	mov	dph,r3
	mov	b,r4
	lcall	__gptrget
	mov	r5,a
	inc	dptr
	lcall	__gptrget
	mov	r6,a
	inc	dptr
	lcall	__gptrget
	mov	r7,a
	mov	dpl,r5
	mov	dph,r6
	mov	b,r7
	push	ar4
	push	ar3
	push	ar2
	lcall	_queuebuf_dataptr
	mov	r5,dpl
	mov	r6,dph
	mov	r7,b
	pop	ar2
	pop	ar3
	pop	ar4
	push	ar2
	push	ar3
	push	ar4
	push	ar7
	push	ar6
	push	ar5
	lcall	_packetbuf_dataptr
	mov	r2,dpl
	mov	r3,dph
	mov	r4,b
	pop	ar5
	pop	ar6
	pop	ar7
	push	ar4
	push	ar3
	push	ar2
	mov	a,_bp
	add	a,#0x04
	mov	r0,a
	mov	a,@r0
	push	acc
	inc	r0
	mov	a,@r0
	push	acc
	push	ar5
	push	ar6
	push	ar7
	mov	dpl,r2
	mov	dph,r3
	mov	b,r4
	lcall	_memcmp
	mov	r6,dpl
	mov	r7,dph
	mov	a,sp
	add	a,#0xfb
	mov	sp,a
	pop	ar2
	pop	ar3
	pop	ar4
	pop	ar4
	pop	ar3
	pop	ar2
	mov	a,r6
	orl	a,r7
	jz	00133$
	ljmp	00106$
00133$:
;	../../core/net/rime/ipolite.c:80: c->dups++;
	push	ar2
	push	ar3
	push	ar4
	mov	r0,_bp
	inc	r0
	mov	a,#0x2C
	add	a,@r0
	mov	r5,a
	clr	a
	inc	r0
	addc	a,@r0
	mov	r6,a
	inc	r0
	mov	ar7,@r0
	mov	dpl,r5
	mov	dph,r6
	mov	b,r7
	lcall	__gptrget
	mov	r4,a
	inc	r4
	mov	dpl,r5
	mov	dph,r6
	mov	b,r7
	mov	a,r4
	lcall	__gptrput
;	../../core/net/rime/ipolite.c:81: if(c->dups == c->maxdups) {
	mov	r0,_bp
	inc	r0
	mov	a,#0x2B
	add	a,@r0
	mov	r5,a
	clr	a
	inc	r0
	addc	a,@r0
	mov	r6,a
	inc	r0
	mov	ar7,@r0
	mov	dpl,r5
	mov	dph,r6
	mov	b,r7
	lcall	__gptrget
	mov	r5,a
	mov	a,r4
	cjne	a,ar5,00134$
	sjmp	00135$
00134$:
	pop	ar4
	pop	ar3
	pop	ar2
	ljmp	00106$
00135$:
	pop	ar4
	pop	ar3
	pop	ar2
;	../../core/net/rime/ipolite.c:82: queuebuf_free(c->q);
	mov	dpl,r2
	mov	dph,r3
	mov	b,r4
	lcall	__gptrget
	mov	r5,a
	inc	dptr
	lcall	__gptrget
	mov	r6,a
	inc	dptr
	lcall	__gptrget
	mov	r7,a
	mov	dpl,r5
	mov	dph,r6
	mov	b,r7
	push	ar4
	push	ar3
	push	ar2
	lcall	_queuebuf_free
	pop	ar2
	pop	ar3
	pop	ar4
;	../../core/net/rime/ipolite.c:83: c->q = NULL;
	mov	dpl,r2
	mov	dph,r3
	mov	b,r4
	clr	a
	lcall	__gptrput
	inc	dptr
	clr	a
	lcall	__gptrput
	inc	dptr
	clr	a
	lcall	__gptrput
;	../../core/net/rime/ipolite.c:84: ctimer_stop(&c->t);
	mov	r0,_bp
	inc	r0
	mov	a,#0x12
	add	a,@r0
	mov	r5,a
	clr	a
	inc	r0
	addc	a,@r0
	mov	r6,a
	inc	r0
	mov	ar7,@r0
	mov	dpl,r5
	mov	dph,r6
	mov	b,r7
	lcall	_ctimer_stop
;	../../core/net/rime/ipolite.c:85: if(c->cb->dropped) {
	mov	r0,_bp
	inc	r0
	mov	a,#0x0F
	add	a,@r0
	mov	r5,a
	clr	a
	inc	r0
	addc	a,@r0
	mov	r6,a
	inc	r0
	mov	ar7,@r0
	mov	dpl,r5
	mov	dph,r6
	mov	b,r7
	lcall	__gptrget
	mov	r5,a
	inc	dptr
	lcall	__gptrget
	mov	r6,a
	inc	dptr
	lcall	__gptrget
	mov	r7,a
	mov	a,#0x04
	add	a,r5
	mov	r5,a
	clr	a
	addc	a,r6
	mov	r6,a
	mov	dpl,r5
	mov	dph,r6
	mov	b,r7
	lcall	__gptrget
	mov	r6,a
	inc	dptr
	lcall	__gptrget
	mov	r7,a
	orl	a,r6
	jz	00106$
;	../../core/net/rime/ipolite.c:86: c->cb->dropped(c);
	push	ar7
	push	ar6
	mov	a,#00137$
	push	acc
	mov	a,#(00137$ >> 8)
	push	acc
	push	ar6
	push	ar7
	mov	r0,_bp
	inc	r0
	mov	dpl,@r0
	inc	r0
	mov	dph,@r0
	inc	r0
	mov	b,@r0
	ret
00137$:
	pop	ar6
	pop	ar7
00106$:
;	../../core/net/rime/ipolite.c:90: if(c->cb->recv) {
	mov	r0,_bp
	inc	r0
	mov	a,#0x0F
	add	a,@r0
	mov	r5,a
	clr	a
	inc	r0
	addc	a,@r0
	mov	r6,a
	inc	r0
	mov	ar7,@r0
	mov	dpl,r5
	mov	dph,r6
	mov	b,r7
	lcall	__gptrget
	mov	r5,a
	inc	dptr
	lcall	__gptrget
	mov	r6,a
	inc	dptr
	lcall	__gptrget
	mov	r7,a
	mov	dpl,r5
	mov	dph,r6
	mov	b,r7
	lcall	__gptrget
	mov	r6,a
	inc	dptr
	lcall	__gptrget
	mov	r7,a
	orl	a,r6
	jz	00111$
;	../../core/net/rime/ipolite.c:91: c->cb->recv(c, from);
	push	ar7
	push	ar6
	mov	a,_bp
	add	a,#0xfb
	mov	r0,a
	mov	a,@r0
	push	acc
	inc	r0
	mov	a,@r0
	push	acc
	inc	r0
	mov	a,@r0
	push	acc
	mov	a,#00139$
	push	acc
	mov	a,#(00139$ >> 8)
	push	acc
	push	ar6
	push	ar7
	mov	r0,_bp
	inc	r0
	mov	dpl,@r0
	inc	r0
	mov	dph,@r0
	inc	r0
	mov	b,@r0
	ret
00139$:
	dec	sp
	dec	sp
	dec	sp
	pop	ar6
	pop	ar7
00111$:
	mov	sp,_bp
	pop	_bp
	ret
;------------------------------------------------------------
;Allocation info for local variables in function 'sent'
;------------------------------------------------------------
;status                    Allocated to stack - _bp -4
;num_tx                    Allocated to stack - _bp -6
;bc                        Allocated to registers 
;------------------------------------------------------------
;	../../core/net/rime/ipolite.c:96: sent(struct broadcast_conn *bc, int status, int num_tx)
;	-----------------------------------------
;	 function sent
;	-----------------------------------------
_sent:
	push	_bp
	mov	_bp,sp
;	../../core/net/rime/ipolite.c:99: }
	pop	_bp
	ret
;------------------------------------------------------------
;Allocation info for local variables in function 'send'
;------------------------------------------------------------
;ptr                       Allocated to registers r5 r6 r7 
;c                         Allocated to stack - _bp +1
;sloc0                     Allocated to stack - _bp +7
;------------------------------------------------------------
;	../../core/net/rime/ipolite.c:102: send(void *ptr)
;	-----------------------------------------
;	 function send
;	-----------------------------------------
_send:
	push	_bp
	mov	_bp,sp
	inc	sp
	inc	sp
	inc	sp
	mov	r5,dpl
	mov	r6,dph
	mov	r7,b
;	../../core/net/rime/ipolite.c:104: struct ipolite_conn *c = ptr;
	mov	r0,_bp
	inc	r0
	mov	@r0,ar5
	inc	r0
	mov	@r0,ar6
	inc	r0
	mov	@r0,ar7
;	../../core/net/rime/ipolite.c:110: if(c->q != NULL) {
	mov	r0,_bp
	inc	r0
	mov	a,#0x27
	add	a,@r0
	mov	r2,a
	clr	a
	inc	r0
	addc	a,@r0
	mov	r3,a
	inc	r0
	mov	ar4,@r0
	mov	dpl,r2
	mov	dph,r3
	mov	b,r4
	lcall	__gptrget
	mov	r7,a
	inc	dptr
	lcall	__gptrget
	mov	r6,a
	inc	dptr
	lcall	__gptrget
	mov	r5,a
	mov	a,r7
	orl	a,r6
	jnz	00111$
	ljmp	00105$
00111$:
;	../../core/net/rime/ipolite.c:111: queuebuf_to_packetbuf(c->q);
	mov	dpl,r7
	mov	dph,r6
	mov	b,r5
	push	ar4
	push	ar3
	push	ar2
	lcall	_queuebuf_to_packetbuf
	pop	ar2
	pop	ar3
	pop	ar4
;	../../core/net/rime/ipolite.c:112: queuebuf_free(c->q);
	mov	dpl,r2
	mov	dph,r3
	mov	b,r4
	lcall	__gptrget
	mov	r5,a
	inc	dptr
	lcall	__gptrget
	mov	r6,a
	inc	dptr
	lcall	__gptrget
	mov	r7,a
	mov	dpl,r5
	mov	dph,r6
	mov	b,r7
	push	ar4
	push	ar3
	push	ar2
	lcall	_queuebuf_free
	pop	ar2
	pop	ar3
	pop	ar4
;	../../core/net/rime/ipolite.c:113: c->q = NULL;
	mov	dpl,r2
	mov	dph,r3
	mov	b,r4
	clr	a
	lcall	__gptrput
	inc	dptr
	clr	a
	lcall	__gptrput
	inc	dptr
	clr	a
	lcall	__gptrput
;	../../core/net/rime/ipolite.c:114: broadcast_send(&c->c);
	mov	r0,_bp
	inc	r0
	mov	dpl,@r0
	inc	r0
	mov	dph,@r0
	inc	r0
	mov	b,@r0
	lcall	_broadcast_send
;	../../core/net/rime/ipolite.c:115: if(c->cb->sent) {
	mov	r0,_bp
	inc	r0
	mov	a,#0x0F
	add	a,@r0
	mov	r5,a
	clr	a
	inc	r0
	addc	a,@r0
	mov	r6,a
	inc	r0
	mov	ar7,@r0
	mov	dpl,r5
	mov	dph,r6
	mov	b,r7
	lcall	__gptrget
	mov	r5,a
	inc	dptr
	lcall	__gptrget
	mov	r6,a
	inc	dptr
	lcall	__gptrget
	mov	r7,a
	mov	a,#0x02
	add	a,r5
	mov	r5,a
	clr	a
	addc	a,r6
	mov	r6,a
	mov	dpl,r5
	mov	dph,r6
	mov	b,r7
	lcall	__gptrget
	mov	r6,a
	inc	dptr
	lcall	__gptrget
	mov	r7,a
	orl	a,r6
	jz	00105$
;	../../core/net/rime/ipolite.c:116: c->cb->sent(c);
	push	ar7
	push	ar6
	mov	a,#00113$
	push	acc
	mov	a,#(00113$ >> 8)
	push	acc
	push	ar6
	push	ar7
	mov	r0,_bp
	inc	r0
	mov	dpl,@r0
	inc	r0
	mov	dph,@r0
	inc	r0
	mov	b,@r0
	ret
00113$:
	pop	ar6
	pop	ar7
00105$:
	mov	sp,_bp
	pop	_bp
	ret
;------------------------------------------------------------
;Allocation info for local variables in function 'ipolite_open'
;------------------------------------------------------------
;channel                   Allocated to stack - _bp -4
;dups                      Allocated to stack - _bp -5
;cb                        Allocated to stack - _bp -8
;c                         Allocated to registers r5 r6 r7 
;------------------------------------------------------------
;	../../core/net/rime/ipolite.c:124: ipolite_open(struct ipolite_conn *c, uint16_t channel, uint8_t dups,
;	-----------------------------------------
;	 function ipolite_open
;	-----------------------------------------
_ipolite_open:
	push	_bp
	mov	_bp,sp
	mov	r5,dpl
	mov	r6,dph
	mov	r7,b
;	../../core/net/rime/ipolite.c:127: broadcast_open(&c->c, channel, &broadcast);
	push	ar7
	push	ar6
	push	ar5
	mov	a,#_broadcast
	push	acc
	mov	a,#(_broadcast >> 8)
	push	acc
	mov	a,#0x80
	push	acc
	mov	a,_bp
	add	a,#0xfc
	mov	r0,a
	mov	a,@r0
	push	acc
	inc	r0
	mov	a,@r0
	push	acc
	mov	dpl,r5
	mov	dph,r6
	mov	b,r7
	lcall	_broadcast_open
	mov	a,sp
	add	a,#0xfb
	mov	sp,a
	pop	ar5
	pop	ar6
	pop	ar7
;	../../core/net/rime/ipolite.c:128: c->cb = cb;
	mov	a,#0x0F
	add	a,r5
	mov	r2,a
	clr	a
	addc	a,r6
	mov	r3,a
	mov	ar4,r7
	mov	dpl,r2
	mov	dph,r3
	mov	b,r4
	mov	a,_bp
	add	a,#0xf8
	mov	r0,a
	mov	a,@r0
	lcall	__gptrput
	inc	dptr
	inc	r0
	mov	a,@r0
	lcall	__gptrput
	inc	dptr
	inc	r0
	mov	a,@r0
	lcall	__gptrput
;	../../core/net/rime/ipolite.c:129: c->maxdups = dups;
	mov	a,#0x2B
	add	a,r5
	mov	r5,a
	clr	a
	addc	a,r6
	mov	r6,a
	mov	dpl,r5
	mov	dph,r6
	mov	b,r7
	mov	a,_bp
	add	a,#0xfb
	mov	r0,a
	mov	a,@r0
	lcall	__gptrput
	pop	_bp
	ret
;------------------------------------------------------------
;Allocation info for local variables in function 'ipolite_close'
;------------------------------------------------------------
;c                         Allocated to registers r5 r6 r7 
;------------------------------------------------------------
;	../../core/net/rime/ipolite.c:134: ipolite_close(struct ipolite_conn *c)
;	-----------------------------------------
;	 function ipolite_close
;	-----------------------------------------
_ipolite_close:
;	../../core/net/rime/ipolite.c:136: broadcast_close(&c->c);
	mov	r5,dpl
	mov	r6,dph
	mov	r7,b
	push	ar7
	push	ar6
	push	ar5
	lcall	_broadcast_close
	pop	ar5
	pop	ar6
	pop	ar7
;	../../core/net/rime/ipolite.c:137: ctimer_stop(&c->t);
	mov	a,#0x12
	add	a,r5
	mov	r2,a
	clr	a
	addc	a,r6
	mov	r3,a
	mov	ar4,r7
	mov	dpl,r2
	mov	dph,r3
	mov	b,r4
	push	ar7
	push	ar6
	push	ar5
	lcall	_ctimer_stop
	pop	ar5
	pop	ar6
	pop	ar7
;	../../core/net/rime/ipolite.c:138: if(c->q != NULL) {
	mov	a,#0x27
	add	a,r5
	mov	r5,a
	clr	a
	addc	a,r6
	mov	r6,a
	mov	dpl,r5
	mov	dph,r6
	mov	b,r7
	lcall	__gptrget
	mov	r2,a
	inc	dptr
	lcall	__gptrget
	mov	r3,a
	inc	dptr
	lcall	__gptrget
	mov	r4,a
	mov	a,r2
	orl	a,r3
	jz	00103$
;	../../core/net/rime/ipolite.c:139: queuebuf_free(c->q);
	mov	dpl,r2
	mov	dph,r3
	mov	b,r4
	push	ar7
	push	ar6
	push	ar5
	lcall	_queuebuf_free
	pop	ar5
	pop	ar6
	pop	ar7
;	../../core/net/rime/ipolite.c:140: c->q = NULL;
	mov	dpl,r5
	mov	dph,r6
	mov	b,r7
	clr	a
	lcall	__gptrput
	inc	dptr
	clr	a
	lcall	__gptrput
	inc	dptr
	clr	a
	ljmp	__gptrput
00103$:
	ret
;------------------------------------------------------------
;Allocation info for local variables in function 'ipolite_send'
;------------------------------------------------------------
;interval                  Allocated to stack - _bp -4
;hdrsize                   Allocated to stack - _bp -5
;c                         Allocated to stack - _bp +1
;sloc0                     Allocated to stack - _bp +4
;------------------------------------------------------------
;	../../core/net/rime/ipolite.c:145: ipolite_send(struct ipolite_conn *c, clock_time_t interval, uint8_t hdrsize)
;	-----------------------------------------
;	 function ipolite_send
;	-----------------------------------------
_ipolite_send:
	push	_bp
	mov	_bp,sp
	push	dpl
	push	dph
	push	b
	inc	sp
	inc	sp
	inc	sp
;	../../core/net/rime/ipolite.c:147: if(c->q != NULL) {
	mov	r0,_bp
	inc	r0
	mov	a,#0x27
	add	a,@r0
	mov	r2,a
	clr	a
	inc	r0
	addc	a,@r0
	mov	r3,a
	inc	r0
	mov	ar4,@r0
	mov	dpl,r2
	mov	dph,r3
	mov	b,r4
	lcall	__gptrget
	mov	r7,a
	inc	dptr
	lcall	__gptrget
	mov	r6,a
	inc	dptr
	lcall	__gptrget
	mov	r5,a
	mov	a,r7
	orl	a,r6
	jz	00102$
;	../../core/net/rime/ipolite.c:151: queuebuf_free(c->q);
	mov	dpl,r7
	mov	dph,r6
	mov	b,r5
	push	ar4
	push	ar3
	push	ar2
	lcall	_queuebuf_free
	pop	ar2
	pop	ar3
	pop	ar4
00102$:
;	../../core/net/rime/ipolite.c:153: c->dups = 0;
	push	ar2
	push	ar3
	push	ar4
	mov	r0,_bp
	inc	r0
	mov	a,#0x2C
	add	a,@r0
	mov	r2,a
	clr	a
	inc	r0
	addc	a,@r0
	mov	r3,a
	inc	r0
	mov	ar4,@r0
	mov	dpl,r2
	mov	dph,r3
	mov	b,r4
	clr	a
	lcall	__gptrput
;	../../core/net/rime/ipolite.c:154: c->hdrsize = hdrsize;
	mov	r0,_bp
	inc	r0
	mov	a,#0x2A
	add	a,@r0
	mov	r2,a
	clr	a
	inc	r0
	addc	a,@r0
	mov	r3,a
	inc	r0
	mov	ar4,@r0
	mov	dpl,r2
	mov	dph,r3
	mov	b,r4
	mov	a,_bp
	add	a,#0xfb
	mov	r0,a
	mov	a,@r0
	lcall	__gptrput
;	../../core/net/rime/ipolite.c:155: if(interval == 0) {
	pop	ar4
	pop	ar3
	pop	ar2
	mov	a,_bp
	add	a,#0xfc
	mov	r0,a
	mov	a,@r0
	inc	r0
	orl	a,@r0
	jz	00125$
	ljmp	00110$
00125$:
;	../../core/net/rime/ipolite.c:158: if(broadcast_send(&c->c)) {
	mov	r0,_bp
	inc	r0
	mov	dpl,@r0
	inc	r0
	mov	dph,@r0
	inc	r0
	mov	b,@r0
	lcall	_broadcast_send
	mov	a,dpl
	mov	b,dph
	orl	a,b
	jnz	00126$
	ljmp	00111$
00126$:
;	../../core/net/rime/ipolite.c:159: if(c->cb->sent) {
	mov	r0,_bp
	inc	r0
	mov	a,#0x0F
	add	a,@r0
	mov	r5,a
	clr	a
	inc	r0
	addc	a,@r0
	mov	r6,a
	inc	r0
	mov	ar7,@r0
	mov	dpl,r5
	mov	dph,r6
	mov	b,r7
	lcall	__gptrget
	mov	r5,a
	inc	dptr
	lcall	__gptrget
	mov	r6,a
	inc	dptr
	lcall	__gptrget
	mov	r7,a
	mov	a,#0x02
	add	a,r5
	mov	r5,a
	clr	a
	addc	a,r6
	mov	r6,a
	mov	dpl,r5
	mov	dph,r6
	mov	b,r7
	lcall	__gptrget
	mov	r6,a
	inc	dptr
	lcall	__gptrget
	mov	r7,a
	orl	a,r6
	jz	00104$
;	../../core/net/rime/ipolite.c:160: c->cb->sent(c);
	push	ar7
	push	ar6
	mov	a,#00128$
	push	acc
	mov	a,#(00128$ >> 8)
	push	acc
	push	ar6
	push	ar7
	mov	r0,_bp
	inc	r0
	mov	dpl,@r0
	inc	r0
	mov	dph,@r0
	inc	r0
	mov	b,@r0
	ret
00128$:
	pop	ar6
	pop	ar7
00104$:
;	../../core/net/rime/ipolite.c:162: return 1;
	mov	dptr,#0x0001
	ljmp	00112$
00110$:
;	../../core/net/rime/ipolite.c:166: c->q = queuebuf_new_from_packetbuf();
	push	ar4
	push	ar3
	push	ar2
	lcall	_queuebuf_new_from_packetbuf
	mov	r5,dpl
	mov	r6,dph
	mov	r7,b
	pop	ar2
	pop	ar3
	pop	ar4
	mov	dpl,r2
	mov	dph,r3
	mov	b,r4
	mov	a,r5
	lcall	__gptrput
	inc	dptr
	mov	a,r6
	lcall	__gptrput
	inc	dptr
	mov	a,r7
	lcall	__gptrput
;	../../core/net/rime/ipolite.c:167: if(c->q != NULL) {
	mov	a,r5
	orl	a,r6
	jnz	00129$
	ljmp	00111$
00129$:
;	../../core/net/rime/ipolite.c:170: send, c);
	mov	r0,_bp
	inc	r0
	mov	a,_bp
	add	a,#0x04
	mov	r1,a
	mov	a,@r0
	mov	@r1,a
	inc	r0
	inc	r1
	mov	a,@r0
	mov	@r1,a
	inc	r0
	inc	r1
	mov	a,@r0
	mov	@r1,a
;	../../core/net/rime/ipolite.c:169: interval / 2 + (random_rand() % (interval / 2)),
	mov	a,_bp
	add	a,#0xfc
	mov	r0,a
	mov	ar3,@r0
	inc	r0
	mov	a,@r0
	clr	c
	rrc	a
	xch	a,r3
	rrc	a
	xch	a,r3
	mov	r4,a
	push	ar4
	push	ar3
	lcall	_random_rand
	mov	r2,dpl
	mov	r7,dph
	pop	ar3
	pop	ar4
	push	ar4
	push	ar3
	push	ar3
	push	ar4
	mov	dpl,r2
	mov	dph,r7
	lcall	__moduint
	mov	r6,dpl
	mov	r7,dph
	dec	sp
	dec	sp
	pop	ar3
	pop	ar4
	mov	a,r6
	add	a,r3
	mov	r3,a
	mov	a,r7
	addc	a,r4
	mov	r4,a
;	../../core/net/rime/ipolite.c:168: ctimer_set(&c->t,
	mov	r0,_bp
	inc	r0
	mov	a,#0x12
	add	a,@r0
	mov	r5,a
	clr	a
	inc	r0
	addc	a,@r0
	mov	r6,a
	inc	r0
	mov	ar7,@r0
	mov	a,_bp
	add	a,#0x04
	mov	r0,a
	mov	a,@r0
	push	acc
	inc	r0
	mov	a,@r0
	push	acc
	inc	r0
	mov	a,@r0
	push	acc
	mov	a,#_send
	push	acc
	mov	a,#(_send >> 8)
	push	acc
	push	ar3
	push	ar4
	mov	dpl,r5
	mov	dph,r6
	mov	b,r7
	lcall	_ctimer_set
	mov	a,sp
	add	a,#0xf9
	mov	sp,a
;	../../core/net/rime/ipolite.c:171: return 1;
	mov	dptr,#0x0001
	sjmp	00112$
00111$:
;	../../core/net/rime/ipolite.c:176: return 0;
	mov	dptr,#0x0000
00112$:
	mov	sp,_bp
	pop	_bp
	ret
;------------------------------------------------------------
;Allocation info for local variables in function 'ipolite_cancel'
;------------------------------------------------------------
;c                         Allocated to registers r5 r6 r7 
;------------------------------------------------------------
;	../../core/net/rime/ipolite.c:180: ipolite_cancel(struct ipolite_conn *c)
;	-----------------------------------------
;	 function ipolite_cancel
;	-----------------------------------------
_ipolite_cancel:
	mov	r5,dpl
	mov	r6,dph
	mov	r7,b
;	../../core/net/rime/ipolite.c:182: ctimer_stop(&c->t);
	mov	a,#0x12
	add	a,r5
	mov	r2,a
	clr	a
	addc	a,r6
	mov	r3,a
	mov	ar4,r7
	mov	dpl,r2
	mov	dph,r3
	mov	b,r4
	push	ar7
	push	ar6
	push	ar5
	lcall	_ctimer_stop
	pop	ar5
	pop	ar6
	pop	ar7
;	../../core/net/rime/ipolite.c:183: if(c->q != NULL) {
	mov	a,#0x27
	add	a,r5
	mov	r5,a
	clr	a
	addc	a,r6
	mov	r6,a
	mov	dpl,r5
	mov	dph,r6
	mov	b,r7
	lcall	__gptrget
	mov	r2,a
	inc	dptr
	lcall	__gptrget
	mov	r3,a
	inc	dptr
	lcall	__gptrget
	mov	r4,a
	mov	a,r2
	orl	a,r3
	jz	00103$
;	../../core/net/rime/ipolite.c:184: queuebuf_free(c->q);
	mov	dpl,r2
	mov	dph,r3
	mov	b,r4
	push	ar7
	push	ar6
	push	ar5
	lcall	_queuebuf_free
	pop	ar5
	pop	ar6
	pop	ar7
;	../../core/net/rime/ipolite.c:185: c->q = NULL;
	mov	dpl,r5
	mov	dph,r6
	mov	b,r7
	clr	a
	lcall	__gptrput
	inc	dptr
	clr	a
	lcall	__gptrput
	inc	dptr
	clr	a
	ljmp	__gptrput
00103$:
	ret
	.area CSEG    (CODE)
	.area CONST   (CODE)
_broadcast:
	.byte _recv,(_recv >> 8)
	.byte _sent,(_sent >> 8)
	.area XINIT   (CODE)
	.area CABS    (ABS,CODE)
