                              1 ;--------------------------------------------------------
                              2 ; File Created by SDCC : free open source ANSI-C Compiler
                              3 ; Version 3.1.1 #7100 (Apr  1 2013) (Linux)
                              4 ; This file was generated Tue Apr 23 09:41:29 2013
                              5 ;--------------------------------------------------------
                              6 	.module psock
                              7 	.optsdcc -mmcs51 --model-large
                              8 	
                              9 ;--------------------------------------------------------
                             10 ; Public variables in this module
                             11 ;--------------------------------------------------------
                             12 	.globl _uip_send
                             13 	.globl _memcpy
                             14 	.globl _IRCON2_P2IF
                             15 	.globl _IRCON2_UTX0IF
                             16 	.globl _IRCON2_UTX1IF
                             17 	.globl _IRCON2_P1IF
                             18 	.globl _IRCON2_WDTIF
                             19 	.globl _CY
                             20 	.globl _AC
                             21 	.globl _F0
                             22 	.globl _RS1
                             23 	.globl _RS0
                             24 	.globl _OV
                             25 	.globl _F1
                             26 	.globl _P
                             27 	.globl _IRCON_DMAIF
                             28 	.globl _IRCON_T1IF
                             29 	.globl _IRCON_T2IF
                             30 	.globl _IRCON_T3IF
                             31 	.globl _IRCON_T4IF
                             32 	.globl _IRCON_P0IF
                             33 	.globl _IRCON_STIF
                             34 	.globl _IEN1_DMAIE
                             35 	.globl _IEN1_T1IE
                             36 	.globl _IEN1_T2IE
                             37 	.globl _IEN1_T3IE
                             38 	.globl _IEN1_T4IE
                             39 	.globl _IEN1_P0IE
                             40 	.globl _IEN0_RFERRIE
                             41 	.globl _IEN0_ADCIE
                             42 	.globl _IEN0_URX0IE
                             43 	.globl _IEN0_URX1IE
                             44 	.globl _IEN0_ENCIE
                             45 	.globl _IEN0_STIE
                             46 	.globl _IEN0_EA
                             47 	.globl _EA
                             48 	.globl _P2_4
                             49 	.globl _P2_3
                             50 	.globl _P2_2
                             51 	.globl _P2_1
                             52 	.globl _P2_0
                             53 	.globl _S0CON_ENCIF_0
                             54 	.globl _S0CON_ENCIF_1
                             55 	.globl _P1_7
                             56 	.globl _P1_6
                             57 	.globl _P1_5
                             58 	.globl _P1_4
                             59 	.globl _P1_3
                             60 	.globl _P1_2
                             61 	.globl _P1_1
                             62 	.globl _P1_0
                             63 	.globl _TCON_IT0
                             64 	.globl _TCON_RFERRIF
                             65 	.globl _TCON_IT1
                             66 	.globl _TCON_URX0IF
                             67 	.globl _TCON_ADCIF
                             68 	.globl _TCON_URX1IF
                             69 	.globl _P0_0
                             70 	.globl _P0_1
                             71 	.globl _P0_2
                             72 	.globl _P0_3
                             73 	.globl _P0_4
                             74 	.globl _P0_5
                             75 	.globl _P0_6
                             76 	.globl _P0_7
                             77 	.globl _P2DIR
                             78 	.globl _P1DIR
                             79 	.globl _P0DIR
                             80 	.globl _U1GCR
                             81 	.globl _U1UCR
                             82 	.globl _U1BAUD
                             83 	.globl _U1BUF
                             84 	.globl _U1CSR
                             85 	.globl _P2INP
                             86 	.globl _P1INP
                             87 	.globl _P2SEL
                             88 	.globl _P1SEL
                             89 	.globl _P0SEL
                             90 	.globl _ADCCFG
                             91 	.globl _PERCFG
                             92 	.globl _B
                             93 	.globl _T4CC1
                             94 	.globl _T4CCTL1
                             95 	.globl _T4CC0
                             96 	.globl _T4CCTL0
                             97 	.globl _T4CTL
                             98 	.globl _T4CNT
                             99 	.globl _RFIF
                            100 	.globl _IRCON2
                            101 	.globl _T1CCTL2
                            102 	.globl _T1CCTL1
                            103 	.globl _T1CCTL0
                            104 	.globl _T1CTL
                            105 	.globl _T1CNTH
                            106 	.globl _T1CNTL
                            107 	.globl _RFST
                            108 	.globl _ACC
                            109 	.globl _T1CC2H
                            110 	.globl _T1CC2L
                            111 	.globl _T1CC1H
                            112 	.globl _T1CC1L
                            113 	.globl _T1CC0H
                            114 	.globl _T1CC0L
                            115 	.globl _RFD
                            116 	.globl _TIMIF
                            117 	.globl _DMAREQ
                            118 	.globl _DMAARM
                            119 	.globl _DMA0CFGH
                            120 	.globl _DMA0CFGL
                            121 	.globl _DMA1CFGH
                            122 	.globl _DMA1CFGL
                            123 	.globl _DMAIRQ
                            124 	.globl _PSW
                            125 	.globl _T3CC1
                            126 	.globl _T3CCTL1
                            127 	.globl _T3CC0
                            128 	.globl _T3CCTL0
                            129 	.globl _T3CTL
                            130 	.globl _T3CNT
                            131 	.globl _WDCTL
                            132 	.globl _T2CON
                            133 	.globl _MEMCTR
                            134 	.globl _CLKCON
                            135 	.globl _U0GCR
                            136 	.globl _U0UCR
                            137 	.globl _T2CNF
                            138 	.globl _U0BAUD
                            139 	.globl _U0BUF
                            140 	.globl _IRCON
                            141 	.globl _SLEEP
                            142 	.globl _RNDH
                            143 	.globl _RNDL
                            144 	.globl _ADCH
                            145 	.globl _ADCL
                            146 	.globl _IP1
                            147 	.globl _IEN1
                            148 	.globl _RCCTL
                            149 	.globl _ADCCON3
                            150 	.globl _ADCCON2
                            151 	.globl _ADCCON1
                            152 	.globl _ENCCS
                            153 	.globl _ENCDO
                            154 	.globl _ENCDI
                            155 	.globl _FWDATA
                            156 	.globl _FCTL
                            157 	.globl _FADDRH
                            158 	.globl _FADDRL
                            159 	.globl _FWT
                            160 	.globl _IP0
                            161 	.globl _IEN0
                            162 	.globl _IE
                            163 	.globl _T2THD
                            164 	.globl _T2TLD
                            165 	.globl _T2CAPHPH
                            166 	.globl _T2CAPLPL
                            167 	.globl _T2OF2
                            168 	.globl _T2OF1
                            169 	.globl _T2OF0
                            170 	.globl _P2
                            171 	.globl _PSBANK
                            172 	.globl _FMAP
                            173 	.globl _T2PEROF2
                            174 	.globl _T2PEROF1
                            175 	.globl _T2PEROF0
                            176 	.globl _S1CON
                            177 	.globl _IEN2
                            178 	.globl _HSRC
                            179 	.globl _S0CON
                            180 	.globl _ST2
                            181 	.globl _ST1
                            182 	.globl _ST0
                            183 	.globl _T2CMP
                            184 	.globl __XPAGE
                            185 	.globl _DPS
                            186 	.globl _RFIM
                            187 	.globl _P1
                            188 	.globl _P0INP
                            189 	.globl _P1IEN
                            190 	.globl _PICTL
                            191 	.globl _P2IFG
                            192 	.globl _P1IFG
                            193 	.globl _P0IFG
                            194 	.globl _TCON
                            195 	.globl _PCON
                            196 	.globl _U0CSR
                            197 	.globl _DPH1
                            198 	.globl _DPL1
                            199 	.globl _DPH0
                            200 	.globl _DPL0
                            201 	.globl _SP
                            202 	.globl _P0
                            203 	.globl _ADC_SHADOW
                            204 	.globl _U1BUF_SHADOW
                            205 	.globl _RFD_SHADOW
                            206 	.globl _U0BUF_SHADOW
                            207 	.globl _RFSTATUS
                            208 	.globl _CHIPID
                            209 	.globl _CHVER
                            210 	.globl _FSMTC1
                            211 	.globl _RXFIFOCNT
                            212 	.globl _IOCFG3
                            213 	.globl _IOCFG2
                            214 	.globl _IOCFG1
                            215 	.globl _IOCFG0
                            216 	.globl _SHORTADDRL
                            217 	.globl _SHORTADDRH
                            218 	.globl _PANIDL
                            219 	.globl _PANIDH
                            220 	.globl _IEEE_ADDR7
                            221 	.globl _IEEE_ADDR6
                            222 	.globl _IEEE_ADDR5
                            223 	.globl _IEEE_ADDR4
                            224 	.globl _IEEE_ADDR3
                            225 	.globl _IEEE_ADDR2
                            226 	.globl _IEEE_ADDR1
                            227 	.globl _IEEE_ADDR0
                            228 	.globl _DACTSTL
                            229 	.globl _DACTSTH
                            230 	.globl _ADCTSTL
                            231 	.globl _ADCTSTH
                            232 	.globl _FSMSTATE
                            233 	.globl _AGCCTRLL
                            234 	.globl _AGCCTRLH
                            235 	.globl _MANORL
                            236 	.globl _MANORH
                            237 	.globl _MANANDL
                            238 	.globl _MANANDH
                            239 	.globl _FSMTCL
                            240 	.globl _FSMTCH
                            241 	.globl _RFPWR
                            242 	.globl _CSPT
                            243 	.globl _CSPCTRL
                            244 	.globl _CSPZ
                            245 	.globl _CSPY
                            246 	.globl _CSPX
                            247 	.globl _FSCTRLL
                            248 	.globl _FSCTRLH
                            249 	.globl _RXCTRL1L
                            250 	.globl _RXCTRL1H
                            251 	.globl _RXCTRL0L
                            252 	.globl _RXCTRL0H
                            253 	.globl _TXCTRLL
                            254 	.globl _TXCTRLH
                            255 	.globl _SYNCWORDL
                            256 	.globl _SYNCWORDH
                            257 	.globl _RSSIL
                            258 	.globl _RSSIH
                            259 	.globl _MDMCTRL1L
                            260 	.globl _MDMCTRL1H
                            261 	.globl _MDMCTRL0L
                            262 	.globl _MDMCTRL0H
                            263 	.globl _psock_send
                            264 	.globl _psock_generator_send
                            265 	.globl _psock_datalen
                            266 	.globl _psock_newdata
                            267 	.globl _psock_readto
                            268 	.globl _psock_readbuf_len
                            269 	.globl _psock_init
                            270 ;--------------------------------------------------------
                            271 ; special function registers
                            272 ;--------------------------------------------------------
                            273 	.area RSEG    (ABS,DATA)
   0000                     274 	.org 0x0000
                    0080    275 _P0	=	0x0080
                    0081    276 _SP	=	0x0081
                    0082    277 _DPL0	=	0x0082
                    0083    278 _DPH0	=	0x0083
                    0084    279 _DPL1	=	0x0084
                    0085    280 _DPH1	=	0x0085
                    0086    281 _U0CSR	=	0x0086
                    0087    282 _PCON	=	0x0087
                    0088    283 _TCON	=	0x0088
                    0089    284 _P0IFG	=	0x0089
                    008A    285 _P1IFG	=	0x008a
                    008B    286 _P2IFG	=	0x008b
                    008C    287 _PICTL	=	0x008c
                    008D    288 _P1IEN	=	0x008d
                    008F    289 _P0INP	=	0x008f
                    0090    290 _P1	=	0x0090
                    0091    291 _RFIM	=	0x0091
                    0092    292 _DPS	=	0x0092
                    0093    293 __XPAGE	=	0x0093
                    0094    294 _T2CMP	=	0x0094
                    0095    295 _ST0	=	0x0095
                    0096    296 _ST1	=	0x0096
                    0097    297 _ST2	=	0x0097
                    0098    298 _S0CON	=	0x0098
                    0099    299 _HSRC	=	0x0099
                    009A    300 _IEN2	=	0x009a
                    009B    301 _S1CON	=	0x009b
                    009C    302 _T2PEROF0	=	0x009c
                    009D    303 _T2PEROF1	=	0x009d
                    009E    304 _T2PEROF2	=	0x009e
                    009F    305 _FMAP	=	0x009f
                    009F    306 _PSBANK	=	0x009f
                    00A0    307 _P2	=	0x00a0
                    00A1    308 _T2OF0	=	0x00a1
                    00A2    309 _T2OF1	=	0x00a2
                    00A3    310 _T2OF2	=	0x00a3
                    00A4    311 _T2CAPLPL	=	0x00a4
                    00A5    312 _T2CAPHPH	=	0x00a5
                    00A6    313 _T2TLD	=	0x00a6
                    00A7    314 _T2THD	=	0x00a7
                    00A8    315 _IE	=	0x00a8
                    00A8    316 _IEN0	=	0x00a8
                    00A9    317 _IP0	=	0x00a9
                    00AB    318 _FWT	=	0x00ab
                    00AC    319 _FADDRL	=	0x00ac
                    00AD    320 _FADDRH	=	0x00ad
                    00AE    321 _FCTL	=	0x00ae
                    00AF    322 _FWDATA	=	0x00af
                    00B1    323 _ENCDI	=	0x00b1
                    00B2    324 _ENCDO	=	0x00b2
                    00B3    325 _ENCCS	=	0x00b3
                    00B4    326 _ADCCON1	=	0x00b4
                    00B5    327 _ADCCON2	=	0x00b5
                    00B6    328 _ADCCON3	=	0x00b6
                    00B7    329 _RCCTL	=	0x00b7
                    00B8    330 _IEN1	=	0x00b8
                    00B9    331 _IP1	=	0x00b9
                    00BA    332 _ADCL	=	0x00ba
                    00BB    333 _ADCH	=	0x00bb
                    00BC    334 _RNDL	=	0x00bc
                    00BD    335 _RNDH	=	0x00bd
                    00BE    336 _SLEEP	=	0x00be
                    00C0    337 _IRCON	=	0x00c0
                    00C1    338 _U0BUF	=	0x00c1
                    00C2    339 _U0BAUD	=	0x00c2
                    00C3    340 _T2CNF	=	0x00c3
                    00C4    341 _U0UCR	=	0x00c4
                    00C5    342 _U0GCR	=	0x00c5
                    00C6    343 _CLKCON	=	0x00c6
                    00C7    344 _MEMCTR	=	0x00c7
                    00C8    345 _T2CON	=	0x00c8
                    00C9    346 _WDCTL	=	0x00c9
                    00CA    347 _T3CNT	=	0x00ca
                    00CB    348 _T3CTL	=	0x00cb
                    00CC    349 _T3CCTL0	=	0x00cc
                    00CD    350 _T3CC0	=	0x00cd
                    00CE    351 _T3CCTL1	=	0x00ce
                    00CF    352 _T3CC1	=	0x00cf
                    00D0    353 _PSW	=	0x00d0
                    00D1    354 _DMAIRQ	=	0x00d1
                    00D2    355 _DMA1CFGL	=	0x00d2
                    00D3    356 _DMA1CFGH	=	0x00d3
                    00D4    357 _DMA0CFGL	=	0x00d4
                    00D5    358 _DMA0CFGH	=	0x00d5
                    00D6    359 _DMAARM	=	0x00d6
                    00D7    360 _DMAREQ	=	0x00d7
                    00D8    361 _TIMIF	=	0x00d8
                    00D9    362 _RFD	=	0x00d9
                    00DA    363 _T1CC0L	=	0x00da
                    00DB    364 _T1CC0H	=	0x00db
                    00DC    365 _T1CC1L	=	0x00dc
                    00DD    366 _T1CC1H	=	0x00dd
                    00DE    367 _T1CC2L	=	0x00de
                    00DF    368 _T1CC2H	=	0x00df
                    00E0    369 _ACC	=	0x00e0
                    00E1    370 _RFST	=	0x00e1
                    00E2    371 _T1CNTL	=	0x00e2
                    00E3    372 _T1CNTH	=	0x00e3
                    00E4    373 _T1CTL	=	0x00e4
                    00E5    374 _T1CCTL0	=	0x00e5
                    00E6    375 _T1CCTL1	=	0x00e6
                    00E7    376 _T1CCTL2	=	0x00e7
                    00E8    377 _IRCON2	=	0x00e8
                    00E9    378 _RFIF	=	0x00e9
                    00EA    379 _T4CNT	=	0x00ea
                    00EB    380 _T4CTL	=	0x00eb
                    00EC    381 _T4CCTL0	=	0x00ec
                    00ED    382 _T4CC0	=	0x00ed
                    00EE    383 _T4CCTL1	=	0x00ee
                    00EF    384 _T4CC1	=	0x00ef
                    00F0    385 _B	=	0x00f0
                    00F1    386 _PERCFG	=	0x00f1
                    00F2    387 _ADCCFG	=	0x00f2
                    00F3    388 _P0SEL	=	0x00f3
                    00F4    389 _P1SEL	=	0x00f4
                    00F5    390 _P2SEL	=	0x00f5
                    00F6    391 _P1INP	=	0x00f6
                    00F7    392 _P2INP	=	0x00f7
                    00F8    393 _U1CSR	=	0x00f8
                    00F9    394 _U1BUF	=	0x00f9
                    00FA    395 _U1BAUD	=	0x00fa
                    00FB    396 _U1UCR	=	0x00fb
                    00FC    397 _U1GCR	=	0x00fc
                    00FD    398 _P0DIR	=	0x00fd
                    00FE    399 _P1DIR	=	0x00fe
                    00FF    400 _P2DIR	=	0x00ff
                            401 ;--------------------------------------------------------
                            402 ; special function bits
                            403 ;--------------------------------------------------------
                            404 	.area RSEG    (ABS,DATA)
   0000                     405 	.org 0x0000
                    0087    406 _P0_7	=	0x0087
                    0086    407 _P0_6	=	0x0086
                    0085    408 _P0_5	=	0x0085
                    0084    409 _P0_4	=	0x0084
                    0083    410 _P0_3	=	0x0083
                    0082    411 _P0_2	=	0x0082
                    0081    412 _P0_1	=	0x0081
                    0080    413 _P0_0	=	0x0080
                    008F    414 _TCON_URX1IF	=	0x008f
                    008D    415 _TCON_ADCIF	=	0x008d
                    008B    416 _TCON_URX0IF	=	0x008b
                    008A    417 _TCON_IT1	=	0x008a
                    0089    418 _TCON_RFERRIF	=	0x0089
                    0088    419 _TCON_IT0	=	0x0088
                    0090    420 _P1_0	=	0x0090
                    0091    421 _P1_1	=	0x0091
                    0092    422 _P1_2	=	0x0092
                    0093    423 _P1_3	=	0x0093
                    0094    424 _P1_4	=	0x0094
                    0095    425 _P1_5	=	0x0095
                    0096    426 _P1_6	=	0x0096
                    0097    427 _P1_7	=	0x0097
                    0099    428 _S0CON_ENCIF_1	=	0x0099
                    0098    429 _S0CON_ENCIF_0	=	0x0098
                    00A0    430 _P2_0	=	0x00a0
                    00A1    431 _P2_1	=	0x00a1
                    00A2    432 _P2_2	=	0x00a2
                    00A3    433 _P2_3	=	0x00a3
                    00A4    434 _P2_4	=	0x00a4
                    00AF    435 _EA	=	0x00af
                    00AF    436 _IEN0_EA	=	0x00af
                    00AD    437 _IEN0_STIE	=	0x00ad
                    00AC    438 _IEN0_ENCIE	=	0x00ac
                    00AB    439 _IEN0_URX1IE	=	0x00ab
                    00AA    440 _IEN0_URX0IE	=	0x00aa
                    00A9    441 _IEN0_ADCIE	=	0x00a9
                    00A8    442 _IEN0_RFERRIE	=	0x00a8
                    00BD    443 _IEN1_P0IE	=	0x00bd
                    00BC    444 _IEN1_T4IE	=	0x00bc
                    00BB    445 _IEN1_T3IE	=	0x00bb
                    00BA    446 _IEN1_T2IE	=	0x00ba
                    00B9    447 _IEN1_T1IE	=	0x00b9
                    00B8    448 _IEN1_DMAIE	=	0x00b8
                    00C7    449 _IRCON_STIF	=	0x00c7
                    00C5    450 _IRCON_P0IF	=	0x00c5
                    00C4    451 _IRCON_T4IF	=	0x00c4
                    00C3    452 _IRCON_T3IF	=	0x00c3
                    00C2    453 _IRCON_T2IF	=	0x00c2
                    00C1    454 _IRCON_T1IF	=	0x00c1
                    00C0    455 _IRCON_DMAIF	=	0x00c0
                    00D0    456 _P	=	0x00d0
                    00D1    457 _F1	=	0x00d1
                    00D2    458 _OV	=	0x00d2
                    00D3    459 _RS0	=	0x00d3
                    00D4    460 _RS1	=	0x00d4
                    00D5    461 _F0	=	0x00d5
                    00D6    462 _AC	=	0x00d6
                    00D7    463 _CY	=	0x00d7
                    00EC    464 _IRCON2_WDTIF	=	0x00ec
                    00EB    465 _IRCON2_P1IF	=	0x00eb
                    00EA    466 _IRCON2_UTX1IF	=	0x00ea
                    00E9    467 _IRCON2_UTX0IF	=	0x00e9
                    00E8    468 _IRCON2_P2IF	=	0x00e8
                            469 ;--------------------------------------------------------
                            470 ; overlayable register banks
                            471 ;--------------------------------------------------------
                            472 	.area REG_BANK_0	(REL,OVR,DATA)
   0000                     473 	.ds 8
                            474 ;--------------------------------------------------------
                            475 ; internal ram data
                            476 ;--------------------------------------------------------
                            477 	.area DSEG    (DATA)
                            478 ;--------------------------------------------------------
                            479 ; overlayable items in internal ram 
                            480 ;--------------------------------------------------------
                            481 	.area OSEG    (OVR,DATA)
                            482 ;--------------------------------------------------------
                            483 ; indirectly addressable internal ram data
                            484 ;--------------------------------------------------------
                            485 	.area ISEG    (DATA)
                            486 ;--------------------------------------------------------
                            487 ; absolute internal ram data
                            488 ;--------------------------------------------------------
                            489 	.area IABS    (ABS,DATA)
                            490 	.area IABS    (ABS,DATA)
                            491 ;--------------------------------------------------------
                            492 ; bit data
                            493 ;--------------------------------------------------------
                            494 	.area BSEG    (BIT)
                            495 ;--------------------------------------------------------
                            496 ; paged external ram data
                            497 ;--------------------------------------------------------
                            498 	.area PSEG    (PAG,XDATA)
                            499 ;--------------------------------------------------------
                            500 ; external ram data
                            501 ;--------------------------------------------------------
                            502 	.area XSEG    (XDATA)
                    DF02    503 _MDMCTRL0H	=	0xdf02
                    DF03    504 _MDMCTRL0L	=	0xdf03
                    DF04    505 _MDMCTRL1H	=	0xdf04
                    DF05    506 _MDMCTRL1L	=	0xdf05
                    DF06    507 _RSSIH	=	0xdf06
                    DF07    508 _RSSIL	=	0xdf07
                    DF08    509 _SYNCWORDH	=	0xdf08
                    DF09    510 _SYNCWORDL	=	0xdf09
                    DF0A    511 _TXCTRLH	=	0xdf0a
                    DF0B    512 _TXCTRLL	=	0xdf0b
                    DF0C    513 _RXCTRL0H	=	0xdf0c
                    DF0D    514 _RXCTRL0L	=	0xdf0d
                    DF0E    515 _RXCTRL1H	=	0xdf0e
                    DF0F    516 _RXCTRL1L	=	0xdf0f
                    DF10    517 _FSCTRLH	=	0xdf10
                    DF11    518 _FSCTRLL	=	0xdf11
                    DF12    519 _CSPX	=	0xdf12
                    DF13    520 _CSPY	=	0xdf13
                    DF14    521 _CSPZ	=	0xdf14
                    DF15    522 _CSPCTRL	=	0xdf15
                    DF16    523 _CSPT	=	0xdf16
                    DF17    524 _RFPWR	=	0xdf17
                    DF20    525 _FSMTCH	=	0xdf20
                    DF21    526 _FSMTCL	=	0xdf21
                    DF22    527 _MANANDH	=	0xdf22
                    DF23    528 _MANANDL	=	0xdf23
                    DF24    529 _MANORH	=	0xdf24
                    DF25    530 _MANORL	=	0xdf25
                    DF26    531 _AGCCTRLH	=	0xdf26
                    DF27    532 _AGCCTRLL	=	0xdf27
                    DF39    533 _FSMSTATE	=	0xdf39
                    DF3A    534 _ADCTSTH	=	0xdf3a
                    DF3B    535 _ADCTSTL	=	0xdf3b
                    DF3C    536 _DACTSTH	=	0xdf3c
                    DF3D    537 _DACTSTL	=	0xdf3d
                    DF43    538 _IEEE_ADDR0	=	0xdf43
                    DF44    539 _IEEE_ADDR1	=	0xdf44
                    DF45    540 _IEEE_ADDR2	=	0xdf45
                    DF46    541 _IEEE_ADDR3	=	0xdf46
                    DF47    542 _IEEE_ADDR4	=	0xdf47
                    DF48    543 _IEEE_ADDR5	=	0xdf48
                    DF49    544 _IEEE_ADDR6	=	0xdf49
                    DF4A    545 _IEEE_ADDR7	=	0xdf4a
                    DF4B    546 _PANIDH	=	0xdf4b
                    DF4C    547 _PANIDL	=	0xdf4c
                    DF4D    548 _SHORTADDRH	=	0xdf4d
                    DF4E    549 _SHORTADDRL	=	0xdf4e
                    DF4F    550 _IOCFG0	=	0xdf4f
                    DF50    551 _IOCFG1	=	0xdf50
                    DF51    552 _IOCFG2	=	0xdf51
                    DF52    553 _IOCFG3	=	0xdf52
                    DF53    554 _RXFIFOCNT	=	0xdf53
                    DF54    555 _FSMTC1	=	0xdf54
                    DF60    556 _CHVER	=	0xdf60
                    DF61    557 _CHIPID	=	0xdf61
                    DF62    558 _RFSTATUS	=	0xdf62
                    DFC1    559 _U0BUF_SHADOW	=	0xdfc1
                    DFD9    560 _RFD_SHADOW	=	0xdfd9
                    DFF9    561 _U1BUF_SHADOW	=	0xdff9
                    DFBA    562 _ADC_SHADOW	=	0xdfba
                            563 ;--------------------------------------------------------
                            564 ; absolute external ram data
                            565 ;--------------------------------------------------------
                            566 	.area XABS    (ABS,XDATA)
                            567 ;--------------------------------------------------------
                            568 ; external initialized ram data
                            569 ;--------------------------------------------------------
                            570 	.area XISEG   (XDATA)
                            571 	.area HOME    (CODE)
                            572 	.area GSINIT0 (CODE)
                            573 	.area GSINIT1 (CODE)
                            574 	.area GSINIT2 (CODE)
                            575 	.area GSINIT3 (CODE)
                            576 	.area GSINIT4 (CODE)
                            577 	.area GSINIT5 (CODE)
                            578 	.area GSINIT  (CODE)
                            579 	.area GSFINAL (CODE)
                            580 	.area CSEG    (CODE)
                            581 ;--------------------------------------------------------
                            582 ; global & static initialisations
                            583 ;--------------------------------------------------------
                            584 	.area HOME    (CODE)
                            585 	.area GSINIT  (CODE)
                            586 	.area GSFINAL (CODE)
                            587 	.area GSINIT  (CODE)
                            588 ;--------------------------------------------------------
                            589 ; Home
                            590 ;--------------------------------------------------------
                            591 	.area HOME    (CODE)
                            592 	.area HOME    (CODE)
                            593 ;--------------------------------------------------------
                            594 ; code
                            595 ;--------------------------------------------------------
                            596 	.area CSEG    (CODE)
                            597 ;------------------------------------------------------------
                            598 ;Allocation info for local variables in function 'buf_setup'
                            599 ;------------------------------------------------------------
                            600 ;bufptr                    Allocated to stack - _bp -5
                            601 ;bufsize                   Allocated to stack - _bp -7
                            602 ;buf                       Allocated to registers r5 r6 r7 
                            603 ;------------------------------------------------------------
                            604 ;	../../core/net/psock.c:72: buf_setup(struct psock_buf *buf,
                            605 ;	-----------------------------------------
                            606 ;	 function buf_setup
                            607 ;	-----------------------------------------
   0000                     608 _buf_setup:
                    0007    609 	ar7 = 0x07
                    0006    610 	ar6 = 0x06
                    0005    611 	ar5 = 0x05
                    0004    612 	ar4 = 0x04
                    0003    613 	ar3 = 0x03
                    0002    614 	ar2 = 0x02
                    0001    615 	ar1 = 0x01
                    0000    616 	ar0 = 0x00
   0000 C0*00               617 	push	_bp
   0002 85 81*00            618 	mov	_bp,sp
                            619 ;	../../core/net/psock.c:75: buf->ptr = bufptr;
   0005 AD 82               620 	mov	r5,dpl
   0007 AE 83               621 	mov	r6,dph
   0009 AF F0               622 	mov	r7,b
   000B E5*00               623 	mov	a,_bp
   000D 24 FB               624 	add	a,#0xfb
   000F F8                  625 	mov	r0,a
   0010 E6                  626 	mov	a,@r0
   0011 12s00r00            627 	lcall	__gptrput
   0014 A3                  628 	inc	dptr
   0015 08                  629 	inc	r0
   0016 E6                  630 	mov	a,@r0
   0017 12s00r00            631 	lcall	__gptrput
   001A A3                  632 	inc	dptr
   001B 08                  633 	inc	r0
   001C E6                  634 	mov	a,@r0
   001D 12s00r00            635 	lcall	__gptrput
                            636 ;	../../core/net/psock.c:76: buf->left = bufsize;
   0020 74 03               637 	mov	a,#0x03
   0022 2D                  638 	add	a,r5
   0023 FD                  639 	mov	r5,a
   0024 E4                  640 	clr	a
   0025 3E                  641 	addc	a,r6
   0026 FE                  642 	mov	r6,a
   0027 8D 82               643 	mov	dpl,r5
   0029 8E 83               644 	mov	dph,r6
   002B 8F F0               645 	mov	b,r7
   002D E5*00               646 	mov	a,_bp
   002F 24 F9               647 	add	a,#0xf9
   0031 F8                  648 	mov	r0,a
   0032 E6                  649 	mov	a,@r0
   0033 12s00r00            650 	lcall	__gptrput
   0036 A3                  651 	inc	dptr
   0037 08                  652 	inc	r0
   0038 E6                  653 	mov	a,@r0
   0039 12s00r00            654 	lcall	__gptrput
   003C D0*00               655 	pop	_bp
   003E 22                  656 	ret
                            657 ;------------------------------------------------------------
                            658 ;Allocation info for local variables in function 'buf_bufdata'
                            659 ;------------------------------------------------------------
                            660 ;len                       Allocated to stack - _bp -4
                            661 ;dataptr                   Allocated to stack - _bp -7
                            662 ;datalen                   Allocated to stack - _bp -10
                            663 ;buf                       Allocated to stack - _bp +1
                            664 ;sloc0                     Allocated to stack - _bp +4
                            665 ;sloc1                     Allocated to stack - _bp +6
                            666 ;sloc2                     Allocated to stack - _bp +9
                            667 ;sloc3                     Allocated to stack - _bp +11
                            668 ;sloc4                     Allocated to stack - _bp +14
                            669 ;sloc5                     Allocated to stack - _bp +17
                            670 ;------------------------------------------------------------
                            671 ;	../../core/net/psock.c:80: buf_bufdata(struct psock_buf *buf, uint16_t len,
                            672 ;	-----------------------------------------
                            673 ;	 function buf_bufdata
                            674 ;	-----------------------------------------
   003F                     675 _buf_bufdata:
   003F C0*00               676 	push	_bp
   0041 85 81*00            677 	mov	_bp,sp
   0044 C0 82               678 	push	dpl
   0046 C0 83               679 	push	dph
   0048 C0 F0               680 	push	b
   004A E5 81               681 	mov	a,sp
   004C 24 0F               682 	add	a,#0x0F
   004E F5 81               683 	mov	sp,a
                            684 ;	../../core/net/psock.c:83: if(*datalen < buf->left) {
   0050 E5*00               685 	mov	a,_bp
   0052 24 F6               686 	add	a,#0xf6
   0054 F8                  687 	mov	r0,a
   0055 86 02               688 	mov	ar2,@r0
   0057 08                  689 	inc	r0
   0058 86 03               690 	mov	ar3,@r0
   005A 08                  691 	inc	r0
   005B 86 04               692 	mov	ar4,@r0
   005D 8A 82               693 	mov	dpl,r2
   005F 8B 83               694 	mov	dph,r3
   0061 8C F0               695 	mov	b,r4
   0063 E5*00               696 	mov	a,_bp
   0065 24 04               697 	add	a,#0x04
   0067 F8                  698 	mov	r0,a
   0068 12s00r00            699 	lcall	__gptrget
   006B F6                  700 	mov	@r0,a
   006C A3                  701 	inc	dptr
   006D 12s00r00            702 	lcall	__gptrget
   0070 08                  703 	inc	r0
   0071 F6                  704 	mov	@r0,a
   0072 A8*00               705 	mov	r0,_bp
   0074 08                  706 	inc	r0
   0075 E5*00               707 	mov	a,_bp
   0077 24 06               708 	add	a,#0x06
   0079 F9                  709 	mov	r1,a
   007A 74 03               710 	mov	a,#0x03
   007C 26                  711 	add	a,@r0
   007D F7                  712 	mov	@r1,a
   007E E4                  713 	clr	a
   007F 08                  714 	inc	r0
   0080 36                  715 	addc	a,@r0
   0081 09                  716 	inc	r1
   0082 F7                  717 	mov	@r1,a
   0083 08                  718 	inc	r0
   0084 09                  719 	inc	r1
   0085 E6                  720 	mov	a,@r0
   0086 F7                  721 	mov	@r1,a
   0087 E5*00               722 	mov	a,_bp
   0089 24 06               723 	add	a,#0x06
   008B F8                  724 	mov	r0,a
   008C 86 82               725 	mov	dpl,@r0
   008E 08                  726 	inc	r0
   008F 86 83               727 	mov	dph,@r0
   0091 08                  728 	inc	r0
   0092 86 F0               729 	mov	b,@r0
   0094 E5*00               730 	mov	a,_bp
   0096 24 09               731 	add	a,#0x09
   0098 F9                  732 	mov	r1,a
   0099 12s00r00            733 	lcall	__gptrget
   009C F7                  734 	mov	@r1,a
   009D A3                  735 	inc	dptr
   009E 12s00r00            736 	lcall	__gptrget
   00A1 09                  737 	inc	r1
   00A2 F7                  738 	mov	@r1,a
   00A3 E5*00               739 	mov	a,_bp
   00A5 24 04               740 	add	a,#0x04
   00A7 F8                  741 	mov	r0,a
   00A8 E5*00               742 	mov	a,_bp
   00AA 24 09               743 	add	a,#0x09
   00AC F9                  744 	mov	r1,a
   00AD C3                  745 	clr	c
   00AE E6                  746 	mov	a,@r0
   00AF 97                  747 	subb	a,@r1
   00B0 08                  748 	inc	r0
   00B1 E6                  749 	mov	a,@r0
   00B2 09                  750 	inc	r1
   00B3 97                  751 	subb	a,@r1
   00B4 40 03               752 	jc	00113$
   00B6 02s02r28            753 	ljmp	00105$
   00B9                     754 00113$:
                            755 ;	../../core/net/psock.c:84: memcpy(buf->ptr, *dataptr, *datalen);
   00B9 E5*00               756 	mov	a,_bp
   00BB 24 F9               757 	add	a,#0xf9
   00BD F8                  758 	mov	r0,a
   00BE E5*00               759 	mov	a,_bp
   00C0 24 0B               760 	add	a,#0x0b
   00C2 F9                  761 	mov	r1,a
   00C3 E6                  762 	mov	a,@r0
   00C4 F7                  763 	mov	@r1,a
   00C5 08                  764 	inc	r0
   00C6 09                  765 	inc	r1
   00C7 E6                  766 	mov	a,@r0
   00C8 F7                  767 	mov	@r1,a
   00C9 08                  768 	inc	r0
   00CA 09                  769 	inc	r1
   00CB E6                  770 	mov	a,@r0
   00CC F7                  771 	mov	@r1,a
   00CD E5*00               772 	mov	a,_bp
   00CF 24 0B               773 	add	a,#0x0b
   00D1 F8                  774 	mov	r0,a
   00D2 86 82               775 	mov	dpl,@r0
   00D4 08                  776 	inc	r0
   00D5 86 83               777 	mov	dph,@r0
   00D7 08                  778 	inc	r0
   00D8 86 F0               779 	mov	b,@r0
   00DA 12s00r00            780 	lcall	__gptrget
   00DD FD                  781 	mov	r5,a
   00DE A3                  782 	inc	dptr
   00DF 12s00r00            783 	lcall	__gptrget
   00E2 FE                  784 	mov	r6,a
   00E3 A3                  785 	inc	dptr
   00E4 12s00r00            786 	lcall	__gptrget
   00E7 FF                  787 	mov	r7,a
   00E8 E5*00               788 	mov	a,_bp
   00EA 24 0E               789 	add	a,#0x0e
   00EC F8                  790 	mov	r0,a
   00ED A6 05               791 	mov	@r0,ar5
   00EF 08                  792 	inc	r0
   00F0 A6 06               793 	mov	@r0,ar6
   00F2 08                  794 	inc	r0
   00F3 A6 07               795 	mov	@r0,ar7
   00F5 A8*00               796 	mov	r0,_bp
   00F7 08                  797 	inc	r0
   00F8 86 82               798 	mov	dpl,@r0
   00FA 08                  799 	inc	r0
   00FB 86 83               800 	mov	dph,@r0
   00FD 08                  801 	inc	r0
   00FE 86 F0               802 	mov	b,@r0
   0100 12s00r00            803 	lcall	__gptrget
   0103 FD                  804 	mov	r5,a
   0104 A3                  805 	inc	dptr
   0105 12s00r00            806 	lcall	__gptrget
   0108 FE                  807 	mov	r6,a
   0109 A3                  808 	inc	dptr
   010A 12s00r00            809 	lcall	__gptrget
   010D FF                  810 	mov	r7,a
   010E C0 04               811 	push	ar4
   0110 C0 03               812 	push	ar3
   0112 C0 02               813 	push	ar2
   0114 E5*00               814 	mov	a,_bp
   0116 24 04               815 	add	a,#0x04
   0118 F8                  816 	mov	r0,a
   0119 E6                  817 	mov	a,@r0
   011A C0 E0               818 	push	acc
   011C 08                  819 	inc	r0
   011D E6                  820 	mov	a,@r0
   011E C0 E0               821 	push	acc
   0120 E5*00               822 	mov	a,_bp
   0122 24 0E               823 	add	a,#0x0e
   0124 F8                  824 	mov	r0,a
   0125 E6                  825 	mov	a,@r0
   0126 C0 E0               826 	push	acc
   0128 08                  827 	inc	r0
   0129 E6                  828 	mov	a,@r0
   012A C0 E0               829 	push	acc
   012C 08                  830 	inc	r0
   012D E6                  831 	mov	a,@r0
   012E C0 E0               832 	push	acc
   0130 8D 82               833 	mov	dpl,r5
   0132 8E 83               834 	mov	dph,r6
   0134 8F F0               835 	mov	b,r7
   0136 12s00r00            836 	lcall	_memcpy
   0139 E5 81               837 	mov	a,sp
   013B 24 FB               838 	add	a,#0xfb
   013D F5 81               839 	mov	sp,a
   013F D0 02               840 	pop	ar2
   0141 D0 03               841 	pop	ar3
   0143 D0 04               842 	pop	ar4
                            843 ;	../../core/net/psock.c:85: buf->ptr += *datalen;
   0145 A8*00               844 	mov	r0,_bp
   0147 08                  845 	inc	r0
   0148 86 82               846 	mov	dpl,@r0
   014A 08                  847 	inc	r0
   014B 86 83               848 	mov	dph,@r0
   014D 08                  849 	inc	r0
   014E 86 F0               850 	mov	b,@r0
   0150 12s00r00            851 	lcall	__gptrget
   0153 FD                  852 	mov	r5,a
   0154 A3                  853 	inc	dptr
   0155 12s00r00            854 	lcall	__gptrget
   0158 FE                  855 	mov	r6,a
   0159 A3                  856 	inc	dptr
   015A 12s00r00            857 	lcall	__gptrget
   015D FF                  858 	mov	r7,a
   015E 8A 82               859 	mov	dpl,r2
   0160 8B 83               860 	mov	dph,r3
   0162 8C F0               861 	mov	b,r4
   0164 E5*00               862 	mov	a,_bp
   0166 24 11               863 	add	a,#0x11
   0168 F8                  864 	mov	r0,a
   0169 12s00r00            865 	lcall	__gptrget
   016C F6                  866 	mov	@r0,a
   016D A3                  867 	inc	dptr
   016E 12s00r00            868 	lcall	__gptrget
   0171 08                  869 	inc	r0
   0172 F6                  870 	mov	@r0,a
   0173 E5*00               871 	mov	a,_bp
   0175 24 11               872 	add	a,#0x11
   0177 F8                  873 	mov	r0,a
   0178 E6                  874 	mov	a,@r0
   0179 2D                  875 	add	a,r5
   017A FD                  876 	mov	r5,a
   017B 08                  877 	inc	r0
   017C E6                  878 	mov	a,@r0
   017D 3E                  879 	addc	a,r6
   017E FE                  880 	mov	r6,a
   017F A8*00               881 	mov	r0,_bp
   0181 08                  882 	inc	r0
   0182 86 82               883 	mov	dpl,@r0
   0184 08                  884 	inc	r0
   0185 86 83               885 	mov	dph,@r0
   0187 08                  886 	inc	r0
   0188 86 F0               887 	mov	b,@r0
   018A ED                  888 	mov	a,r5
   018B 12s00r00            889 	lcall	__gptrput
   018E A3                  890 	inc	dptr
   018F EE                  891 	mov	a,r6
   0190 12s00r00            892 	lcall	__gptrput
   0193 A3                  893 	inc	dptr
   0194 EF                  894 	mov	a,r7
   0195 12s00r00            895 	lcall	__gptrput
                            896 ;	../../core/net/psock.c:86: buf->left -= *datalen;
   0198 E5*00               897 	mov	a,_bp
   019A 24 06               898 	add	a,#0x06
   019C F8                  899 	mov	r0,a
   019D 86 82               900 	mov	dpl,@r0
   019F 08                  901 	inc	r0
   01A0 86 83               902 	mov	dph,@r0
   01A2 08                  903 	inc	r0
   01A3 86 F0               904 	mov	b,@r0
   01A5 12s00r00            905 	lcall	__gptrget
   01A8 FE                  906 	mov	r6,a
   01A9 A3                  907 	inc	dptr
   01AA 12s00r00            908 	lcall	__gptrget
   01AD FF                  909 	mov	r7,a
   01AE E5*00               910 	mov	a,_bp
   01B0 24 11               911 	add	a,#0x11
   01B2 F8                  912 	mov	r0,a
   01B3 EE                  913 	mov	a,r6
   01B4 C3                  914 	clr	c
   01B5 96                  915 	subb	a,@r0
   01B6 FE                  916 	mov	r6,a
   01B7 EF                  917 	mov	a,r7
   01B8 08                  918 	inc	r0
   01B9 96                  919 	subb	a,@r0
   01BA FF                  920 	mov	r7,a
   01BB E5*00               921 	mov	a,_bp
   01BD 24 06               922 	add	a,#0x06
   01BF F8                  923 	mov	r0,a
   01C0 86 82               924 	mov	dpl,@r0
   01C2 08                  925 	inc	r0
   01C3 86 83               926 	mov	dph,@r0
   01C5 08                  927 	inc	r0
   01C6 86 F0               928 	mov	b,@r0
   01C8 EE                  929 	mov	a,r6
   01C9 12s00r00            930 	lcall	__gptrput
   01CC A3                  931 	inc	dptr
   01CD EF                  932 	mov	a,r7
   01CE 12s00r00            933 	lcall	__gptrput
                            934 ;	../../core/net/psock.c:87: *dataptr += *datalen;
   01D1 E5*00               935 	mov	a,_bp
   01D3 24 0B               936 	add	a,#0x0b
   01D5 F8                  937 	mov	r0,a
   01D6 86 82               938 	mov	dpl,@r0
   01D8 08                  939 	inc	r0
   01D9 86 83               940 	mov	dph,@r0
   01DB 08                  941 	inc	r0
   01DC 86 F0               942 	mov	b,@r0
   01DE 12s00r00            943 	lcall	__gptrget
   01E1 FD                  944 	mov	r5,a
   01E2 A3                  945 	inc	dptr
   01E3 12s00r00            946 	lcall	__gptrget
   01E6 FE                  947 	mov	r6,a
   01E7 A3                  948 	inc	dptr
   01E8 12s00r00            949 	lcall	__gptrget
   01EB FF                  950 	mov	r7,a
   01EC E5*00               951 	mov	a,_bp
   01EE 24 11               952 	add	a,#0x11
   01F0 F8                  953 	mov	r0,a
   01F1 E6                  954 	mov	a,@r0
   01F2 2D                  955 	add	a,r5
   01F3 FD                  956 	mov	r5,a
   01F4 08                  957 	inc	r0
   01F5 E6                  958 	mov	a,@r0
   01F6 3E                  959 	addc	a,r6
   01F7 FE                  960 	mov	r6,a
   01F8 E5*00               961 	mov	a,_bp
   01FA 24 0B               962 	add	a,#0x0b
   01FC F8                  963 	mov	r0,a
   01FD 86 82               964 	mov	dpl,@r0
   01FF 08                  965 	inc	r0
   0200 86 83               966 	mov	dph,@r0
   0202 08                  967 	inc	r0
   0203 86 F0               968 	mov	b,@r0
   0205 ED                  969 	mov	a,r5
   0206 12s00r00            970 	lcall	__gptrput
   0209 A3                  971 	inc	dptr
   020A EE                  972 	mov	a,r6
   020B 12s00r00            973 	lcall	__gptrput
   020E A3                  974 	inc	dptr
   020F EF                  975 	mov	a,r7
   0210 12s00r00            976 	lcall	__gptrput
                            977 ;	../../core/net/psock.c:88: *datalen = 0;
   0213 8A 82               978 	mov	dpl,r2
   0215 8B 83               979 	mov	dph,r3
   0217 8C F0               980 	mov	b,r4
   0219 E4                  981 	clr	a
   021A 12s00r00            982 	lcall	__gptrput
   021D A3                  983 	inc	dptr
   021E E4                  984 	clr	a
   021F 12s00r00            985 	lcall	__gptrput
                            986 ;	../../core/net/psock.c:89: return BUF_NOT_FULL;
   0222 75 82 00            987 	mov	dpl,#0x00
   0225 02s04rFD            988 	ljmp	00107$
   0228                     989 00105$:
                            990 ;	../../core/net/psock.c:90: } else if(*datalen == buf->left) {
   0228 E5*00               991 	mov	a,_bp
   022A 24 04               992 	add	a,#0x04
   022C F8                  993 	mov	r0,a
   022D E5*00               994 	mov	a,_bp
   022F 24 09               995 	add	a,#0x09
   0231 F9                  996 	mov	r1,a
   0232 86 F0               997 	mov	b,@r0
   0234 E7                  998 	mov	a,@r1
   0235 B5 F0 0A            999 	cjne	a,b,00114$
   0238 08                 1000 	inc	r0
   0239 86 F0              1001 	mov	b,@r0
   023B 09                 1002 	inc	r1
   023C E7                 1003 	mov	a,@r1
   023D B5 F0 02           1004 	cjne	a,b,00114$
   0240 80 03              1005 	sjmp	00115$
   0242                    1006 00114$:
   0242 02s03r91           1007 	ljmp	00102$
   0245                    1008 00115$:
                           1009 ;	../../core/net/psock.c:91: memcpy(buf->ptr, *dataptr, *datalen);
   0245 E5*00              1010 	mov	a,_bp
   0247 24 F9              1011 	add	a,#0xf9
   0249 F8                 1012 	mov	r0,a
   024A E5*00              1013 	mov	a,_bp
   024C 24 0E              1014 	add	a,#0x0e
   024E F9                 1015 	mov	r1,a
   024F E6                 1016 	mov	a,@r0
   0250 F7                 1017 	mov	@r1,a
   0251 08                 1018 	inc	r0
   0252 09                 1019 	inc	r1
   0253 E6                 1020 	mov	a,@r0
   0254 F7                 1021 	mov	@r1,a
   0255 08                 1022 	inc	r0
   0256 09                 1023 	inc	r1
   0257 E6                 1024 	mov	a,@r0
   0258 F7                 1025 	mov	@r1,a
   0259 E5*00              1026 	mov	a,_bp
   025B 24 0E              1027 	add	a,#0x0e
   025D F8                 1028 	mov	r0,a
   025E 86 82              1029 	mov	dpl,@r0
   0260 08                 1030 	inc	r0
   0261 86 83              1031 	mov	dph,@r0
   0263 08                 1032 	inc	r0
   0264 86 F0              1033 	mov	b,@r0
   0266 12s00r00           1034 	lcall	__gptrget
   0269 FD                 1035 	mov	r5,a
   026A A3                 1036 	inc	dptr
   026B 12s00r00           1037 	lcall	__gptrget
   026E FE                 1038 	mov	r6,a
   026F A3                 1039 	inc	dptr
   0270 12s00r00           1040 	lcall	__gptrget
   0273 FF                 1041 	mov	r7,a
   0274 E5*00              1042 	mov	a,_bp
   0276 24 0B              1043 	add	a,#0x0b
   0278 F8                 1044 	mov	r0,a
   0279 A6 05              1045 	mov	@r0,ar5
   027B 08                 1046 	inc	r0
   027C A6 06              1047 	mov	@r0,ar6
   027E 08                 1048 	inc	r0
   027F A6 07              1049 	mov	@r0,ar7
   0281 A8*00              1050 	mov	r0,_bp
   0283 08                 1051 	inc	r0
   0284 86 82              1052 	mov	dpl,@r0
   0286 08                 1053 	inc	r0
   0287 86 83              1054 	mov	dph,@r0
   0289 08                 1055 	inc	r0
   028A 86 F0              1056 	mov	b,@r0
   028C 12s00r00           1057 	lcall	__gptrget
   028F FD                 1058 	mov	r5,a
   0290 A3                 1059 	inc	dptr
   0291 12s00r00           1060 	lcall	__gptrget
   0294 FE                 1061 	mov	r6,a
   0295 A3                 1062 	inc	dptr
   0296 12s00r00           1063 	lcall	__gptrget
   0299 FF                 1064 	mov	r7,a
   029A C0 04              1065 	push	ar4
   029C C0 03              1066 	push	ar3
   029E C0 02              1067 	push	ar2
   02A0 E5*00              1068 	mov	a,_bp
   02A2 24 04              1069 	add	a,#0x04
   02A4 F8                 1070 	mov	r0,a
   02A5 E6                 1071 	mov	a,@r0
   02A6 C0 E0              1072 	push	acc
   02A8 08                 1073 	inc	r0
   02A9 E6                 1074 	mov	a,@r0
   02AA C0 E0              1075 	push	acc
   02AC E5*00              1076 	mov	a,_bp
   02AE 24 0B              1077 	add	a,#0x0b
   02B0 F8                 1078 	mov	r0,a
   02B1 E6                 1079 	mov	a,@r0
   02B2 C0 E0              1080 	push	acc
   02B4 08                 1081 	inc	r0
   02B5 E6                 1082 	mov	a,@r0
   02B6 C0 E0              1083 	push	acc
   02B8 08                 1084 	inc	r0
   02B9 E6                 1085 	mov	a,@r0
   02BA C0 E0              1086 	push	acc
   02BC 8D 82              1087 	mov	dpl,r5
   02BE 8E 83              1088 	mov	dph,r6
   02C0 8F F0              1089 	mov	b,r7
   02C2 12s00r00           1090 	lcall	_memcpy
   02C5 E5 81              1091 	mov	a,sp
   02C7 24 FB              1092 	add	a,#0xfb
   02C9 F5 81              1093 	mov	sp,a
   02CB D0 02              1094 	pop	ar2
   02CD D0 03              1095 	pop	ar3
   02CF D0 04              1096 	pop	ar4
                           1097 ;	../../core/net/psock.c:92: buf->ptr += *datalen;
   02D1 A8*00              1098 	mov	r0,_bp
   02D3 08                 1099 	inc	r0
   02D4 86 82              1100 	mov	dpl,@r0
   02D6 08                 1101 	inc	r0
   02D7 86 83              1102 	mov	dph,@r0
   02D9 08                 1103 	inc	r0
   02DA 86 F0              1104 	mov	b,@r0
   02DC 12s00r00           1105 	lcall	__gptrget
   02DF FD                 1106 	mov	r5,a
   02E0 A3                 1107 	inc	dptr
   02E1 12s00r00           1108 	lcall	__gptrget
   02E4 FE                 1109 	mov	r6,a
   02E5 A3                 1110 	inc	dptr
   02E6 12s00r00           1111 	lcall	__gptrget
   02E9 FF                 1112 	mov	r7,a
   02EA 8A 82              1113 	mov	dpl,r2
   02EC 8B 83              1114 	mov	dph,r3
   02EE 8C F0              1115 	mov	b,r4
   02F0 E5*00              1116 	mov	a,_bp
   02F2 24 11              1117 	add	a,#0x11
   02F4 F8                 1118 	mov	r0,a
   02F5 12s00r00           1119 	lcall	__gptrget
   02F8 F6                 1120 	mov	@r0,a
   02F9 A3                 1121 	inc	dptr
   02FA 12s00r00           1122 	lcall	__gptrget
   02FD 08                 1123 	inc	r0
   02FE F6                 1124 	mov	@r0,a
   02FF E5*00              1125 	mov	a,_bp
   0301 24 11              1126 	add	a,#0x11
   0303 F8                 1127 	mov	r0,a
   0304 E6                 1128 	mov	a,@r0
   0305 2D                 1129 	add	a,r5
   0306 FD                 1130 	mov	r5,a
   0307 08                 1131 	inc	r0
   0308 E6                 1132 	mov	a,@r0
   0309 3E                 1133 	addc	a,r6
   030A FE                 1134 	mov	r6,a
   030B A8*00              1135 	mov	r0,_bp
   030D 08                 1136 	inc	r0
   030E 86 82              1137 	mov	dpl,@r0
   0310 08                 1138 	inc	r0
   0311 86 83              1139 	mov	dph,@r0
   0313 08                 1140 	inc	r0
   0314 86 F0              1141 	mov	b,@r0
   0316 ED                 1142 	mov	a,r5
   0317 12s00r00           1143 	lcall	__gptrput
   031A A3                 1144 	inc	dptr
   031B EE                 1145 	mov	a,r6
   031C 12s00r00           1146 	lcall	__gptrput
   031F A3                 1147 	inc	dptr
   0320 EF                 1148 	mov	a,r7
   0321 12s00r00           1149 	lcall	__gptrput
                           1150 ;	../../core/net/psock.c:93: buf->left = 0;
   0324 E5*00              1151 	mov	a,_bp
   0326 24 06              1152 	add	a,#0x06
   0328 F8                 1153 	mov	r0,a
   0329 86 82              1154 	mov	dpl,@r0
   032B 08                 1155 	inc	r0
   032C 86 83              1156 	mov	dph,@r0
   032E 08                 1157 	inc	r0
   032F 86 F0              1158 	mov	b,@r0
   0331 E4                 1159 	clr	a
   0332 12s00r00           1160 	lcall	__gptrput
   0335 A3                 1161 	inc	dptr
   0336 E4                 1162 	clr	a
   0337 12s00r00           1163 	lcall	__gptrput
                           1164 ;	../../core/net/psock.c:94: *dataptr += *datalen;
   033A E5*00              1165 	mov	a,_bp
   033C 24 0E              1166 	add	a,#0x0e
   033E F8                 1167 	mov	r0,a
   033F 86 82              1168 	mov	dpl,@r0
   0341 08                 1169 	inc	r0
   0342 86 83              1170 	mov	dph,@r0
   0344 08                 1171 	inc	r0
   0345 86 F0              1172 	mov	b,@r0
   0347 12s00r00           1173 	lcall	__gptrget
   034A FD                 1174 	mov	r5,a
   034B A3                 1175 	inc	dptr
   034C 12s00r00           1176 	lcall	__gptrget
   034F FE                 1177 	mov	r6,a
   0350 A3                 1178 	inc	dptr
   0351 12s00r00           1179 	lcall	__gptrget
   0354 FF                 1180 	mov	r7,a
   0355 E5*00              1181 	mov	a,_bp
   0357 24 11              1182 	add	a,#0x11
   0359 F8                 1183 	mov	r0,a
   035A E6                 1184 	mov	a,@r0
   035B 2D                 1185 	add	a,r5
   035C FD                 1186 	mov	r5,a
   035D 08                 1187 	inc	r0
   035E E6                 1188 	mov	a,@r0
   035F 3E                 1189 	addc	a,r6
   0360 FE                 1190 	mov	r6,a
   0361 E5*00              1191 	mov	a,_bp
   0363 24 0E              1192 	add	a,#0x0e
   0365 F8                 1193 	mov	r0,a
   0366 86 82              1194 	mov	dpl,@r0
   0368 08                 1195 	inc	r0
   0369 86 83              1196 	mov	dph,@r0
   036B 08                 1197 	inc	r0
   036C 86 F0              1198 	mov	b,@r0
   036E ED                 1199 	mov	a,r5
   036F 12s00r00           1200 	lcall	__gptrput
   0372 A3                 1201 	inc	dptr
   0373 EE                 1202 	mov	a,r6
   0374 12s00r00           1203 	lcall	__gptrput
   0377 A3                 1204 	inc	dptr
   0378 EF                 1205 	mov	a,r7
   0379 12s00r00           1206 	lcall	__gptrput
                           1207 ;	../../core/net/psock.c:95: *datalen = 0;
   037C 8A 82              1208 	mov	dpl,r2
   037E 8B 83              1209 	mov	dph,r3
   0380 8C F0              1210 	mov	b,r4
   0382 E4                 1211 	clr	a
   0383 12s00r00           1212 	lcall	__gptrput
   0386 A3                 1213 	inc	dptr
   0387 E4                 1214 	clr	a
   0388 12s00r00           1215 	lcall	__gptrput
                           1216 ;	../../core/net/psock.c:96: return BUF_FULL;
   038B 75 82 01           1217 	mov	dpl,#0x01
   038E 02s04rFD           1218 	ljmp	00107$
   0391                    1219 00102$:
                           1220 ;	../../core/net/psock.c:98: memcpy(buf->ptr, *dataptr, buf->left);
   0391 E5*00              1221 	mov	a,_bp
   0393 24 F9              1222 	add	a,#0xf9
   0395 F8                 1223 	mov	r0,a
   0396 E5*00              1224 	mov	a,_bp
   0398 24 0E              1225 	add	a,#0x0e
   039A F9                 1226 	mov	r1,a
   039B E6                 1227 	mov	a,@r0
   039C F7                 1228 	mov	@r1,a
   039D 08                 1229 	inc	r0
   039E 09                 1230 	inc	r1
   039F E6                 1231 	mov	a,@r0
   03A0 F7                 1232 	mov	@r1,a
   03A1 08                 1233 	inc	r0
   03A2 09                 1234 	inc	r1
   03A3 E6                 1235 	mov	a,@r0
   03A4 F7                 1236 	mov	@r1,a
   03A5 E5*00              1237 	mov	a,_bp
   03A7 24 0E              1238 	add	a,#0x0e
   03A9 F8                 1239 	mov	r0,a
   03AA 86 82              1240 	mov	dpl,@r0
   03AC 08                 1241 	inc	r0
   03AD 86 83              1242 	mov	dph,@r0
   03AF 08                 1243 	inc	r0
   03B0 86 F0              1244 	mov	b,@r0
   03B2 12s00r00           1245 	lcall	__gptrget
   03B5 FD                 1246 	mov	r5,a
   03B6 A3                 1247 	inc	dptr
   03B7 12s00r00           1248 	lcall	__gptrget
   03BA FE                 1249 	mov	r6,a
   03BB A3                 1250 	inc	dptr
   03BC 12s00r00           1251 	lcall	__gptrget
   03BF FF                 1252 	mov	r7,a
   03C0 E5*00              1253 	mov	a,_bp
   03C2 24 0B              1254 	add	a,#0x0b
   03C4 F8                 1255 	mov	r0,a
   03C5 A6 05              1256 	mov	@r0,ar5
   03C7 08                 1257 	inc	r0
   03C8 A6 06              1258 	mov	@r0,ar6
   03CA 08                 1259 	inc	r0
   03CB A6 07              1260 	mov	@r0,ar7
   03CD A8*00              1261 	mov	r0,_bp
   03CF 08                 1262 	inc	r0
   03D0 86 82              1263 	mov	dpl,@r0
   03D2 08                 1264 	inc	r0
   03D3 86 83              1265 	mov	dph,@r0
   03D5 08                 1266 	inc	r0
   03D6 86 F0              1267 	mov	b,@r0
   03D8 12s00r00           1268 	lcall	__gptrget
   03DB FD                 1269 	mov	r5,a
   03DC A3                 1270 	inc	dptr
   03DD 12s00r00           1271 	lcall	__gptrget
   03E0 FE                 1272 	mov	r6,a
   03E1 A3                 1273 	inc	dptr
   03E2 12s00r00           1274 	lcall	__gptrget
   03E5 FF                 1275 	mov	r7,a
   03E6 C0 04              1276 	push	ar4
   03E8 C0 03              1277 	push	ar3
   03EA C0 02              1278 	push	ar2
   03EC E5*00              1279 	mov	a,_bp
   03EE 24 09              1280 	add	a,#0x09
   03F0 F8                 1281 	mov	r0,a
   03F1 E6                 1282 	mov	a,@r0
   03F2 C0 E0              1283 	push	acc
   03F4 08                 1284 	inc	r0
   03F5 E6                 1285 	mov	a,@r0
   03F6 C0 E0              1286 	push	acc
   03F8 E5*00              1287 	mov	a,_bp
   03FA 24 0B              1288 	add	a,#0x0b
   03FC F8                 1289 	mov	r0,a
   03FD E6                 1290 	mov	a,@r0
   03FE C0 E0              1291 	push	acc
   0400 08                 1292 	inc	r0
   0401 E6                 1293 	mov	a,@r0
   0402 C0 E0              1294 	push	acc
   0404 08                 1295 	inc	r0
   0405 E6                 1296 	mov	a,@r0
   0406 C0 E0              1297 	push	acc
   0408 8D 82              1298 	mov	dpl,r5
   040A 8E 83              1299 	mov	dph,r6
   040C 8F F0              1300 	mov	b,r7
   040E 12s00r00           1301 	lcall	_memcpy
   0411 E5 81              1302 	mov	a,sp
   0413 24 FB              1303 	add	a,#0xfb
   0415 F5 81              1304 	mov	sp,a
   0417 D0 02              1305 	pop	ar2
   0419 D0 03              1306 	pop	ar3
   041B D0 04              1307 	pop	ar4
                           1308 ;	../../core/net/psock.c:99: buf->ptr += buf->left;
   041D A8*00              1309 	mov	r0,_bp
   041F 08                 1310 	inc	r0
   0420 86 82              1311 	mov	dpl,@r0
   0422 08                 1312 	inc	r0
   0423 86 83              1313 	mov	dph,@r0
   0425 08                 1314 	inc	r0
   0426 86 F0              1315 	mov	b,@r0
   0428 12s00r00           1316 	lcall	__gptrget
   042B FD                 1317 	mov	r5,a
   042C A3                 1318 	inc	dptr
   042D 12s00r00           1319 	lcall	__gptrget
   0430 FE                 1320 	mov	r6,a
   0431 A3                 1321 	inc	dptr
   0432 12s00r00           1322 	lcall	__gptrget
   0435 FF                 1323 	mov	r7,a
   0436 E5*00              1324 	mov	a,_bp
   0438 24 06              1325 	add	a,#0x06
   043A F8                 1326 	mov	r0,a
   043B 86 82              1327 	mov	dpl,@r0
   043D 08                 1328 	inc	r0
   043E 86 83              1329 	mov	dph,@r0
   0440 08                 1330 	inc	r0
   0441 86 F0              1331 	mov	b,@r0
   0443 E5*00              1332 	mov	a,_bp
   0445 24 11              1333 	add	a,#0x11
   0447 F9                 1334 	mov	r1,a
   0448 12s00r00           1335 	lcall	__gptrget
   044B F7                 1336 	mov	@r1,a
   044C A3                 1337 	inc	dptr
   044D 12s00r00           1338 	lcall	__gptrget
   0450 09                 1339 	inc	r1
   0451 F7                 1340 	mov	@r1,a
   0452 E5*00              1341 	mov	a,_bp
   0454 24 11              1342 	add	a,#0x11
   0456 F8                 1343 	mov	r0,a
   0457 E6                 1344 	mov	a,@r0
   0458 2D                 1345 	add	a,r5
   0459 FD                 1346 	mov	r5,a
   045A 08                 1347 	inc	r0
   045B E6                 1348 	mov	a,@r0
   045C 3E                 1349 	addc	a,r6
   045D FE                 1350 	mov	r6,a
   045E A8*00              1351 	mov	r0,_bp
   0460 08                 1352 	inc	r0
   0461 86 82              1353 	mov	dpl,@r0
   0463 08                 1354 	inc	r0
   0464 86 83              1355 	mov	dph,@r0
   0466 08                 1356 	inc	r0
   0467 86 F0              1357 	mov	b,@r0
   0469 ED                 1358 	mov	a,r5
   046A 12s00r00           1359 	lcall	__gptrput
   046D A3                 1360 	inc	dptr
   046E EE                 1361 	mov	a,r6
   046F 12s00r00           1362 	lcall	__gptrput
   0472 A3                 1363 	inc	dptr
   0473 EF                 1364 	mov	a,r7
   0474 12s00r00           1365 	lcall	__gptrput
                           1366 ;	../../core/net/psock.c:100: *datalen -= buf->left;
   0477 8A 82              1367 	mov	dpl,r2
   0479 8B 83              1368 	mov	dph,r3
   047B 8C F0              1369 	mov	b,r4
   047D 12s00r00           1370 	lcall	__gptrget
   0480 FE                 1371 	mov	r6,a
   0481 A3                 1372 	inc	dptr
   0482 12s00r00           1373 	lcall	__gptrget
   0485 FF                 1374 	mov	r7,a
   0486 E5*00              1375 	mov	a,_bp
   0488 24 11              1376 	add	a,#0x11
   048A F8                 1377 	mov	r0,a
   048B EE                 1378 	mov	a,r6
   048C C3                 1379 	clr	c
   048D 96                 1380 	subb	a,@r0
   048E FE                 1381 	mov	r6,a
   048F EF                 1382 	mov	a,r7
   0490 08                 1383 	inc	r0
   0491 96                 1384 	subb	a,@r0
   0492 FF                 1385 	mov	r7,a
   0493 8A 82              1386 	mov	dpl,r2
   0495 8B 83              1387 	mov	dph,r3
   0497 8C F0              1388 	mov	b,r4
   0499 EE                 1389 	mov	a,r6
   049A 12s00r00           1390 	lcall	__gptrput
   049D A3                 1391 	inc	dptr
   049E EF                 1392 	mov	a,r7
   049F 12s00r00           1393 	lcall	__gptrput
                           1394 ;	../../core/net/psock.c:101: *dataptr += buf->left;
   04A2 E5*00              1395 	mov	a,_bp
   04A4 24 0E              1396 	add	a,#0x0e
   04A6 F8                 1397 	mov	r0,a
   04A7 86 82              1398 	mov	dpl,@r0
   04A9 08                 1399 	inc	r0
   04AA 86 83              1400 	mov	dph,@r0
   04AC 08                 1401 	inc	r0
   04AD 86 F0              1402 	mov	b,@r0
   04AF 12s00r00           1403 	lcall	__gptrget
   04B2 FD                 1404 	mov	r5,a
   04B3 A3                 1405 	inc	dptr
   04B4 12s00r00           1406 	lcall	__gptrget
   04B7 FE                 1407 	mov	r6,a
   04B8 A3                 1408 	inc	dptr
   04B9 12s00r00           1409 	lcall	__gptrget
   04BC FF                 1410 	mov	r7,a
   04BD E5*00              1411 	mov	a,_bp
   04BF 24 11              1412 	add	a,#0x11
   04C1 F8                 1413 	mov	r0,a
   04C2 E6                 1414 	mov	a,@r0
   04C3 2D                 1415 	add	a,r5
   04C4 FD                 1416 	mov	r5,a
   04C5 08                 1417 	inc	r0
   04C6 E6                 1418 	mov	a,@r0
   04C7 3E                 1419 	addc	a,r6
   04C8 FE                 1420 	mov	r6,a
   04C9 E5*00              1421 	mov	a,_bp
   04CB 24 0E              1422 	add	a,#0x0e
   04CD F8                 1423 	mov	r0,a
   04CE 86 82              1424 	mov	dpl,@r0
   04D0 08                 1425 	inc	r0
   04D1 86 83              1426 	mov	dph,@r0
   04D3 08                 1427 	inc	r0
   04D4 86 F0              1428 	mov	b,@r0
   04D6 ED                 1429 	mov	a,r5
   04D7 12s00r00           1430 	lcall	__gptrput
   04DA A3                 1431 	inc	dptr
   04DB EE                 1432 	mov	a,r6
   04DC 12s00r00           1433 	lcall	__gptrput
   04DF A3                 1434 	inc	dptr
   04E0 EF                 1435 	mov	a,r7
   04E1 12s00r00           1436 	lcall	__gptrput
                           1437 ;	../../core/net/psock.c:102: buf->left = 0;
   04E4 E5*00              1438 	mov	a,_bp
   04E6 24 06              1439 	add	a,#0x06
   04E8 F8                 1440 	mov	r0,a
   04E9 86 82              1441 	mov	dpl,@r0
   04EB 08                 1442 	inc	r0
   04EC 86 83              1443 	mov	dph,@r0
   04EE 08                 1444 	inc	r0
   04EF 86 F0              1445 	mov	b,@r0
   04F1 E4                 1446 	clr	a
   04F2 12s00r00           1447 	lcall	__gptrput
   04F5 A3                 1448 	inc	dptr
   04F6 E4                 1449 	clr	a
   04F7 12s00r00           1450 	lcall	__gptrput
                           1451 ;	../../core/net/psock.c:103: return BUF_FULL;
   04FA 75 82 01           1452 	mov	dpl,#0x01
   04FD                    1453 00107$:
   04FD 85*00 81           1454 	mov	sp,_bp
   0500 D0*00              1455 	pop	_bp
   0502 22                 1456 	ret
                           1457 ;------------------------------------------------------------
                           1458 ;Allocation info for local variables in function 'buf_bufto'
                           1459 ;------------------------------------------------------------
                           1460 ;endmarker                 Allocated to stack - _bp -3
                           1461 ;dataptr                   Allocated to stack - _bp -6
                           1462 ;datalen                   Allocated to stack - _bp -9
                           1463 ;buf                       Allocated to stack - _bp +1
                           1464 ;c                         Allocated to stack - _bp +4
                           1465 ;sloc0                     Allocated to stack - _bp +5
                           1466 ;sloc1                     Allocated to stack - _bp +8
                           1467 ;sloc2                     Allocated to stack - _bp +11
                           1468 ;------------------------------------------------------------
                           1469 ;	../../core/net/psock.c:108: buf_bufto(CC_REGISTER_ARG struct psock_buf *buf, uint8_t endmarker,
                           1470 ;	-----------------------------------------
                           1471 ;	 function buf_bufto
                           1472 ;	-----------------------------------------
   0503                    1473 _buf_bufto:
   0503 C0*00              1474 	push	_bp
   0505 85 81*00           1475 	mov	_bp,sp
   0508 C0 82              1476 	push	dpl
   050A C0 83              1477 	push	dph
   050C C0 F0              1478 	push	b
   050E E5 81              1479 	mov	a,sp
   0510 24 0A              1480 	add	a,#0x0A
   0512 F5 81              1481 	mov	sp,a
                           1482 ;	../../core/net/psock.c:112: while(buf->left > 0 && *datalen > 0) {
   0514                    1483 00104$:
   0514 A8*00              1484 	mov	r0,_bp
   0516 08                 1485 	inc	r0
   0517 74 03              1486 	mov	a,#0x03
   0519 26                 1487 	add	a,@r0
   051A FA                 1488 	mov	r2,a
   051B E4                 1489 	clr	a
   051C 08                 1490 	inc	r0
   051D 36                 1491 	addc	a,@r0
   051E FB                 1492 	mov	r3,a
   051F 08                 1493 	inc	r0
   0520 86 04              1494 	mov	ar4,@r0
   0522 8A 82              1495 	mov	dpl,r2
   0524 8B 83              1496 	mov	dph,r3
   0526 8C F0              1497 	mov	b,r4
   0528 12s00r00           1498 	lcall	__gptrget
   052B FE                 1499 	mov	r6,a
   052C A3                 1500 	inc	dptr
   052D 12s00r00           1501 	lcall	__gptrget
   0530 FF                 1502 	mov	r7,a
   0531 4E                 1503 	orl	a,r6
   0532 70 03              1504 	jnz	00132$
   0534 02s06rB9           1505 	ljmp	00106$
   0537                    1506 00132$:
   0537 E5*00              1507 	mov	a,_bp
   0539 24 F7              1508 	add	a,#0xf7
   053B F8                 1509 	mov	r0,a
   053C E5*00              1510 	mov	a,_bp
   053E 24 05              1511 	add	a,#0x05
   0540 F9                 1512 	mov	r1,a
   0541 E6                 1513 	mov	a,@r0
   0542 F7                 1514 	mov	@r1,a
   0543 08                 1515 	inc	r0
   0544 09                 1516 	inc	r1
   0545 E6                 1517 	mov	a,@r0
   0546 F7                 1518 	mov	@r1,a
   0547 08                 1519 	inc	r0
   0548 09                 1520 	inc	r1
   0549 E6                 1521 	mov	a,@r0
   054A F7                 1522 	mov	@r1,a
   054B E5*00              1523 	mov	a,_bp
   054D 24 05              1524 	add	a,#0x05
   054F F8                 1525 	mov	r0,a
   0550 86 82              1526 	mov	dpl,@r0
   0552 08                 1527 	inc	r0
   0553 86 83              1528 	mov	dph,@r0
   0555 08                 1529 	inc	r0
   0556 86 F0              1530 	mov	b,@r0
   0558 12s00r00           1531 	lcall	__gptrget
   055B FE                 1532 	mov	r6,a
   055C A3                 1533 	inc	dptr
   055D 12s00r00           1534 	lcall	__gptrget
   0560 FF                 1535 	mov	r7,a
   0561 4E                 1536 	orl	a,r6
   0562 70 03              1537 	jnz	00133$
   0564 02s06rB9           1538 	ljmp	00106$
   0567                    1539 00133$:
                           1540 ;	../../core/net/psock.c:113: c = *buf->ptr = **dataptr;
   0567 A8*00              1541 	mov	r0,_bp
   0569 08                 1542 	inc	r0
   056A 86 82              1543 	mov	dpl,@r0
   056C 08                 1544 	inc	r0
   056D 86 83              1545 	mov	dph,@r0
   056F 08                 1546 	inc	r0
   0570 86 F0              1547 	mov	b,@r0
   0572 E5*00              1548 	mov	a,_bp
   0574 24 08              1549 	add	a,#0x08
   0576 F9                 1550 	mov	r1,a
   0577 12s00r00           1551 	lcall	__gptrget
   057A F7                 1552 	mov	@r1,a
   057B A3                 1553 	inc	dptr
   057C 12s00r00           1554 	lcall	__gptrget
   057F 09                 1555 	inc	r1
   0580 F7                 1556 	mov	@r1,a
   0581 A3                 1557 	inc	dptr
   0582 12s00r00           1558 	lcall	__gptrget
   0585 09                 1559 	inc	r1
   0586 F7                 1560 	mov	@r1,a
   0587 E5*00              1561 	mov	a,_bp
   0589 24 FA              1562 	add	a,#0xfa
   058B F8                 1563 	mov	r0,a
   058C E5*00              1564 	mov	a,_bp
   058E 24 0B              1565 	add	a,#0x0b
   0590 F9                 1566 	mov	r1,a
   0591 E6                 1567 	mov	a,@r0
   0592 F7                 1568 	mov	@r1,a
   0593 08                 1569 	inc	r0
   0594 09                 1570 	inc	r1
   0595 E6                 1571 	mov	a,@r0
   0596 F7                 1572 	mov	@r1,a
   0597 08                 1573 	inc	r0
   0598 09                 1574 	inc	r1
   0599 E6                 1575 	mov	a,@r0
   059A F7                 1576 	mov	@r1,a
   059B E5*00              1577 	mov	a,_bp
   059D 24 0B              1578 	add	a,#0x0b
   059F F8                 1579 	mov	r0,a
   05A0 86 82              1580 	mov	dpl,@r0
   05A2 08                 1581 	inc	r0
   05A3 86 83              1582 	mov	dph,@r0
   05A5 08                 1583 	inc	r0
   05A6 86 F0              1584 	mov	b,@r0
   05A8 12s00r00           1585 	lcall	__gptrget
   05AB FD                 1586 	mov	r5,a
   05AC A3                 1587 	inc	dptr
   05AD 12s00r00           1588 	lcall	__gptrget
   05B0 FE                 1589 	mov	r6,a
   05B1 A3                 1590 	inc	dptr
   05B2 12s00r00           1591 	lcall	__gptrget
   05B5 FF                 1592 	mov	r7,a
   05B6 8D 82              1593 	mov	dpl,r5
   05B8 8E 83              1594 	mov	dph,r6
   05BA 8F F0              1595 	mov	b,r7
   05BC 12s00r00           1596 	lcall	__gptrget
   05BF FD                 1597 	mov	r5,a
   05C0 E5*00              1598 	mov	a,_bp
   05C2 24 08              1599 	add	a,#0x08
   05C4 F8                 1600 	mov	r0,a
   05C5 86 82              1601 	mov	dpl,@r0
   05C7 08                 1602 	inc	r0
   05C8 86 83              1603 	mov	dph,@r0
   05CA 08                 1604 	inc	r0
   05CB 86 F0              1605 	mov	b,@r0
   05CD ED                 1606 	mov	a,r5
   05CE 12s00r00           1607 	lcall	__gptrput
   05D1 E5*00              1608 	mov	a,_bp
   05D3 24 04              1609 	add	a,#0x04
   05D5 F8                 1610 	mov	r0,a
   05D6 A6 05              1611 	mov	@r0,ar5
                           1612 ;	../../core/net/psock.c:114: ++*dataptr;
   05D8 E5*00              1613 	mov	a,_bp
   05DA 24 0B              1614 	add	a,#0x0b
   05DC F8                 1615 	mov	r0,a
   05DD 86 82              1616 	mov	dpl,@r0
   05DF 08                 1617 	inc	r0
   05E0 86 83              1618 	mov	dph,@r0
   05E2 08                 1619 	inc	r0
   05E3 86 F0              1620 	mov	b,@r0
   05E5 12s00r00           1621 	lcall	__gptrget
   05E8 FD                 1622 	mov	r5,a
   05E9 A3                 1623 	inc	dptr
   05EA 12s00r00           1624 	lcall	__gptrget
   05ED FE                 1625 	mov	r6,a
   05EE A3                 1626 	inc	dptr
   05EF 12s00r00           1627 	lcall	__gptrget
   05F2 FF                 1628 	mov	r7,a
   05F3 0D                 1629 	inc	r5
   05F4 BD 00 01           1630 	cjne	r5,#0x00,00134$
   05F7 0E                 1631 	inc	r6
   05F8                    1632 00134$:
   05F8 E5*00              1633 	mov	a,_bp
   05FA 24 0B              1634 	add	a,#0x0b
   05FC F8                 1635 	mov	r0,a
   05FD 86 82              1636 	mov	dpl,@r0
   05FF 08                 1637 	inc	r0
   0600 86 83              1638 	mov	dph,@r0
   0602 08                 1639 	inc	r0
   0603 86 F0              1640 	mov	b,@r0
   0605 ED                 1641 	mov	a,r5
   0606 12s00r00           1642 	lcall	__gptrput
   0609 A3                 1643 	inc	dptr
   060A EE                 1644 	mov	a,r6
   060B 12s00r00           1645 	lcall	__gptrput
   060E A3                 1646 	inc	dptr
   060F EF                 1647 	mov	a,r7
   0610 12s00r00           1648 	lcall	__gptrput
                           1649 ;	../../core/net/psock.c:115: ++buf->ptr;
   0613 A8*00              1650 	mov	r0,_bp
   0615 08                 1651 	inc	r0
   0616 86 82              1652 	mov	dpl,@r0
   0618 08                 1653 	inc	r0
   0619 86 83              1654 	mov	dph,@r0
   061B 08                 1655 	inc	r0
   061C 86 F0              1656 	mov	b,@r0
   061E 12s00r00           1657 	lcall	__gptrget
   0621 FD                 1658 	mov	r5,a
   0622 A3                 1659 	inc	dptr
   0623 12s00r00           1660 	lcall	__gptrget
   0626 FE                 1661 	mov	r6,a
   0627 A3                 1662 	inc	dptr
   0628 12s00r00           1663 	lcall	__gptrget
   062B FF                 1664 	mov	r7,a
   062C 0D                 1665 	inc	r5
   062D BD 00 01           1666 	cjne	r5,#0x00,00135$
   0630 0E                 1667 	inc	r6
   0631                    1668 00135$:
   0631 A8*00              1669 	mov	r0,_bp
   0633 08                 1670 	inc	r0
   0634 86 82              1671 	mov	dpl,@r0
   0636 08                 1672 	inc	r0
   0637 86 83              1673 	mov	dph,@r0
   0639 08                 1674 	inc	r0
   063A 86 F0              1675 	mov	b,@r0
   063C ED                 1676 	mov	a,r5
   063D 12s00r00           1677 	lcall	__gptrput
   0640 A3                 1678 	inc	dptr
   0641 EE                 1679 	mov	a,r6
   0642 12s00r00           1680 	lcall	__gptrput
   0645 A3                 1681 	inc	dptr
   0646 EF                 1682 	mov	a,r7
   0647 12s00r00           1683 	lcall	__gptrput
                           1684 ;	../../core/net/psock.c:116: --*datalen;
   064A E5*00              1685 	mov	a,_bp
   064C 24 05              1686 	add	a,#0x05
   064E F8                 1687 	mov	r0,a
   064F 86 82              1688 	mov	dpl,@r0
   0651 08                 1689 	inc	r0
   0652 86 83              1690 	mov	dph,@r0
   0654 08                 1691 	inc	r0
   0655 86 F0              1692 	mov	b,@r0
   0657 12s00r00           1693 	lcall	__gptrget
   065A FE                 1694 	mov	r6,a
   065B A3                 1695 	inc	dptr
   065C 12s00r00           1696 	lcall	__gptrget
   065F FF                 1697 	mov	r7,a
   0660 1E                 1698 	dec	r6
   0661 BE FF 01           1699 	cjne	r6,#0xFF,00136$
   0664 1F                 1700 	dec	r7
   0665                    1701 00136$:
   0665 E5*00              1702 	mov	a,_bp
   0667 24 05              1703 	add	a,#0x05
   0669 F8                 1704 	mov	r0,a
   066A 86 82              1705 	mov	dpl,@r0
   066C 08                 1706 	inc	r0
   066D 86 83              1707 	mov	dph,@r0
   066F 08                 1708 	inc	r0
   0670 86 F0              1709 	mov	b,@r0
   0672 EE                 1710 	mov	a,r6
   0673 12s00r00           1711 	lcall	__gptrput
   0676 A3                 1712 	inc	dptr
   0677 EF                 1713 	mov	a,r7
   0678 12s00r00           1714 	lcall	__gptrput
                           1715 ;	../../core/net/psock.c:117: --buf->left;
   067B 8A 82              1716 	mov	dpl,r2
   067D 8B 83              1717 	mov	dph,r3
   067F 8C F0              1718 	mov	b,r4
   0681 12s00r00           1719 	lcall	__gptrget
   0684 FE                 1720 	mov	r6,a
   0685 A3                 1721 	inc	dptr
   0686 12s00r00           1722 	lcall	__gptrget
   0689 FF                 1723 	mov	r7,a
   068A 1E                 1724 	dec	r6
   068B BE FF 01           1725 	cjne	r6,#0xFF,00137$
   068E 1F                 1726 	dec	r7
   068F                    1727 00137$:
   068F 8A 82              1728 	mov	dpl,r2
   0691 8B 83              1729 	mov	dph,r3
   0693 8C F0              1730 	mov	b,r4
   0695 EE                 1731 	mov	a,r6
   0696 12s00r00           1732 	lcall	__gptrput
   0699 A3                 1733 	inc	dptr
   069A EF                 1734 	mov	a,r7
   069B 12s00r00           1735 	lcall	__gptrput
                           1736 ;	../../core/net/psock.c:119: if(c == endmarker) {
   069E E5*00              1737 	mov	a,_bp
   06A0 24 04              1738 	add	a,#0x04
   06A2 F8                 1739 	mov	r0,a
   06A3 E5*00              1740 	mov	a,_bp
   06A5 24 FD              1741 	add	a,#0xfd
   06A7 F9                 1742 	mov	r1,a
   06A8 86 F0              1743 	mov	b,@r0
   06AA E7                 1744 	mov	a,@r1
   06AB B5 F0 02           1745 	cjne	a,b,00138$
   06AE 80 03              1746 	sjmp	00139$
   06B0                    1747 00138$:
   06B0 02s05r14           1748 	ljmp	00104$
   06B3                    1749 00139$:
                           1750 ;	../../core/net/psock.c:120: return BUF_FOUND;
   06B3 75 82 02           1751 	mov	dpl,#0x02
   06B6 02s07rAB           1752 	ljmp	00114$
   06B9                    1753 00106$:
                           1754 ;	../../core/net/psock.c:124: if(*datalen == 0) {
   06B9 E5*00              1755 	mov	a,_bp
   06BB 24 F7              1756 	add	a,#0xf7
   06BD F8                 1757 	mov	r0,a
   06BE E5*00              1758 	mov	a,_bp
   06C0 24 0B              1759 	add	a,#0x0b
   06C2 F9                 1760 	mov	r1,a
   06C3 E6                 1761 	mov	a,@r0
   06C4 F7                 1762 	mov	@r1,a
   06C5 08                 1763 	inc	r0
   06C6 09                 1764 	inc	r1
   06C7 E6                 1765 	mov	a,@r0
   06C8 F7                 1766 	mov	@r1,a
   06C9 08                 1767 	inc	r0
   06CA 09                 1768 	inc	r1
   06CB E6                 1769 	mov	a,@r0
   06CC F7                 1770 	mov	@r1,a
   06CD E5*00              1771 	mov	a,_bp
   06CF 24 0B              1772 	add	a,#0x0b
   06D1 F8                 1773 	mov	r0,a
   06D2 86 82              1774 	mov	dpl,@r0
   06D4 08                 1775 	inc	r0
   06D5 86 83              1776 	mov	dph,@r0
   06D7 08                 1777 	inc	r0
   06D8 86 F0              1778 	mov	b,@r0
   06DA 12s00r00           1779 	lcall	__gptrget
   06DD FB                 1780 	mov	r3,a
   06DE A3                 1781 	inc	dptr
   06DF 12s00r00           1782 	lcall	__gptrget
   06E2 FC                 1783 	mov	r4,a
   06E3 4B                 1784 	orl	a,r3
                           1785 ;	../../core/net/psock.c:125: return BUF_NOT_FOUND;
   06E4 70 05              1786 	jnz	00111$
   06E6 F5 82              1787 	mov	dpl,a
   06E8 02s07rAB           1788 	ljmp	00114$
                           1789 ;	../../core/net/psock.c:128: while(*datalen > 0) {
   06EB                    1790 00111$:
   06EB EB                 1791 	mov	a,r3
   06EC 4C                 1792 	orl	a,r4
   06ED 70 03              1793 	jnz	00141$
   06EF 02s07rA8           1794 	ljmp	00113$
   06F2                    1795 00141$:
                           1796 ;	../../core/net/psock.c:129: c = **dataptr;
   06F2 C0 03              1797 	push	ar3
   06F4 C0 04              1798 	push	ar4
   06F6 E5*00              1799 	mov	a,_bp
   06F8 24 FA              1800 	add	a,#0xfa
   06FA F8                 1801 	mov	r0,a
   06FB 86 02              1802 	mov	ar2,@r0
   06FD 08                 1803 	inc	r0
   06FE 86 03              1804 	mov	ar3,@r0
   0700 08                 1805 	inc	r0
   0701 86 04              1806 	mov	ar4,@r0
   0703 8A 82              1807 	mov	dpl,r2
   0705 8B 83              1808 	mov	dph,r3
   0707 8C F0              1809 	mov	b,r4
   0709 12s00r00           1810 	lcall	__gptrget
   070C FD                 1811 	mov	r5,a
   070D A3                 1812 	inc	dptr
   070E 12s00r00           1813 	lcall	__gptrget
   0711 FE                 1814 	mov	r6,a
   0712 A3                 1815 	inc	dptr
   0713 12s00r00           1816 	lcall	__gptrget
   0716 FF                 1817 	mov	r7,a
   0717 8D 82              1818 	mov	dpl,r5
   0719 8E 83              1819 	mov	dph,r6
   071B 8F F0              1820 	mov	b,r7
   071D 12s00r00           1821 	lcall	__gptrget
   0720 FD                 1822 	mov	r5,a
   0721 E5*00              1823 	mov	a,_bp
   0723 24 04              1824 	add	a,#0x04
   0725 F8                 1825 	mov	r0,a
   0726 A6 05              1826 	mov	@r0,ar5
                           1827 ;	../../core/net/psock.c:130: --*datalen;
   0728 E5*00              1828 	mov	a,_bp
   072A 24 0B              1829 	add	a,#0x0b
   072C F8                 1830 	mov	r0,a
   072D 86 82              1831 	mov	dpl,@r0
   072F 08                 1832 	inc	r0
   0730 86 83              1833 	mov	dph,@r0
   0732 08                 1834 	inc	r0
   0733 86 F0              1835 	mov	b,@r0
   0735 12s00r00           1836 	lcall	__gptrget
   0738 FE                 1837 	mov	r6,a
   0739 A3                 1838 	inc	dptr
   073A 12s00r00           1839 	lcall	__gptrget
   073D FF                 1840 	mov	r7,a
   073E 1E                 1841 	dec	r6
   073F BE FF 01           1842 	cjne	r6,#0xFF,00142$
   0742 1F                 1843 	dec	r7
   0743                    1844 00142$:
   0743 E5*00              1845 	mov	a,_bp
   0745 24 0B              1846 	add	a,#0x0b
   0747 F8                 1847 	mov	r0,a
   0748 86 82              1848 	mov	dpl,@r0
   074A 08                 1849 	inc	r0
   074B 86 83              1850 	mov	dph,@r0
   074D 08                 1851 	inc	r0
   074E 86 F0              1852 	mov	b,@r0
   0750 EE                 1853 	mov	a,r6
   0751 12s00r00           1854 	lcall	__gptrput
   0754 A3                 1855 	inc	dptr
   0755 EF                 1856 	mov	a,r7
   0756 12s00r00           1857 	lcall	__gptrput
                           1858 ;	../../core/net/psock.c:131: ++*dataptr;
   0759 8A 82              1859 	mov	dpl,r2
   075B 8B 83              1860 	mov	dph,r3
   075D 8C F0              1861 	mov	b,r4
   075F 12s00r00           1862 	lcall	__gptrget
   0762 FD                 1863 	mov	r5,a
   0763 A3                 1864 	inc	dptr
   0764 12s00r00           1865 	lcall	__gptrget
   0767 FE                 1866 	mov	r6,a
   0768 A3                 1867 	inc	dptr
   0769 12s00r00           1868 	lcall	__gptrget
   076C FF                 1869 	mov	r7,a
   076D 0D                 1870 	inc	r5
   076E BD 00 01           1871 	cjne	r5,#0x00,00143$
   0771 0E                 1872 	inc	r6
   0772                    1873 00143$:
   0772 8A 82              1874 	mov	dpl,r2
   0774 8B 83              1875 	mov	dph,r3
   0776 8C F0              1876 	mov	b,r4
   0778 ED                 1877 	mov	a,r5
   0779 12s00r00           1878 	lcall	__gptrput
   077C A3                 1879 	inc	dptr
   077D EE                 1880 	mov	a,r6
   077E 12s00r00           1881 	lcall	__gptrput
   0781 A3                 1882 	inc	dptr
   0782 EF                 1883 	mov	a,r7
   0783 12s00r00           1884 	lcall	__gptrput
                           1885 ;	../../core/net/psock.c:133: if(c == endmarker) {
   0786 E5*00              1886 	mov	a,_bp
   0788 24 04              1887 	add	a,#0x04
   078A F8                 1888 	mov	r0,a
   078B E5*00              1889 	mov	a,_bp
   078D 24 FD              1890 	add	a,#0xfd
   078F F9                 1891 	mov	r1,a
   0790 86 F0              1892 	mov	b,@r0
   0792 E7                 1893 	mov	a,@r1
   0793 B5 F0 02           1894 	cjne	a,b,00144$
   0796 80 07              1895 	sjmp	00145$
   0798                    1896 00144$:
   0798 D0 04              1897 	pop	ar4
   079A D0 03              1898 	pop	ar3
   079C 02s06rEB           1899 	ljmp	00111$
   079F                    1900 00145$:
   079F D0 04              1901 	pop	ar4
   07A1 D0 03              1902 	pop	ar3
                           1903 ;	../../core/net/psock.c:134: return BUF_FOUND | BUF_FULL;
   07A3 75 82 03           1904 	mov	dpl,#0x03
   07A6 80 03              1905 	sjmp	00114$
   07A8                    1906 00113$:
                           1907 ;	../../core/net/psock.c:138: return BUF_FULL;
   07A8 75 82 01           1908 	mov	dpl,#0x01
   07AB                    1909 00114$:
   07AB 85*00 81           1910 	mov	sp,_bp
   07AE D0*00              1911 	pop	_bp
   07B0 22                 1912 	ret
                           1913 ;------------------------------------------------------------
                           1914 ;Allocation info for local variables in function 'data_is_sent_and_acked'
                           1915 ;------------------------------------------------------------
                           1916 ;s                         Allocated to stack - _bp +1
                           1917 ;sloc0                     Allocated to stack - _bp +4
                           1918 ;sloc1                     Allocated to stack - _bp +6
                           1919 ;sloc2                     Allocated to stack - _bp +7
                           1920 ;sloc3                     Allocated to stack - _bp +8
                           1921 ;sloc4                     Allocated to stack - _bp +6
                           1922 ;sloc5                     Allocated to stack - _bp +8
                           1923 ;------------------------------------------------------------
                           1924 ;	../../core/net/psock.c:142: data_is_sent_and_acked(CC_REGISTER_ARG struct psock *s)
                           1925 ;	-----------------------------------------
                           1926 ;	 function data_is_sent_and_acked
                           1927 ;	-----------------------------------------
   07B1                    1928 _data_is_sent_and_acked:
   07B1 C0*00              1929 	push	_bp
   07B3 85 81*00           1930 	mov	_bp,sp
   07B6 C0 82              1931 	push	dpl
   07B8 C0 83              1932 	push	dph
   07BA C0 F0              1933 	push	b
   07BC E5 81              1934 	mov	a,sp
   07BE 24 07              1935 	add	a,#0x07
   07C0 F5 81              1936 	mov	sp,a
                           1937 ;	../../core/net/psock.c:147: if(s->state != STATE_DATA_SENT || uip_rexmit()) {
   07C2 A8*00              1938 	mov	r0,_bp
   07C4 08                 1939 	inc	r0
   07C5 74 18              1940 	mov	a,#0x18
   07C7 26                 1941 	add	a,@r0
   07C8 FA                 1942 	mov	r2,a
   07C9 E4                 1943 	clr	a
   07CA 08                 1944 	inc	r0
   07CB 36                 1945 	addc	a,@r0
   07CC FB                 1946 	mov	r3,a
   07CD 08                 1947 	inc	r0
   07CE 86 04              1948 	mov	ar4,@r0
   07D0 8A 82              1949 	mov	dpl,r2
   07D2 8B 83              1950 	mov	dph,r3
   07D4 8C F0              1951 	mov	b,r4
   07D6 12s00r00           1952 	lcall	__gptrget
   07D9 FF                 1953 	mov	r7,a
   07DA E4                 1954 	clr	a
   07DB BF 06 01           1955 	cjne	r7,#0x06,00126$
   07DE 04                 1956 	inc	a
   07DF                    1957 00126$:
   07DF FF                 1958 	mov	r7,a
   07E0 60 0B              1959 	jz	00110$
   07E2 90s00r00           1960 	mov	dptr,#_uip_flags
   07E5 E0                 1961 	movx	a,@dptr
   07E6 FE                 1962 	mov	r6,a
   07E7 20 E2 03           1963 	jb	acc.2,00129$
   07EA 02s08rFD           1964 	ljmp	00111$
   07ED                    1965 00129$:
   07ED                    1966 00110$:
                           1967 ;	../../core/net/psock.c:148: if(s->sendlen > uip_mss()) {
   07ED C0 02              1968 	push	ar2
   07EF C0 03              1969 	push	ar3
   07F1 C0 04              1970 	push	ar4
   07F3 A8*00              1971 	mov	r0,_bp
   07F5 08                 1972 	inc	r0
   07F6 74 0D              1973 	mov	a,#0x0D
   07F8 26                 1974 	add	a,@r0
   07F9 FA                 1975 	mov	r2,a
   07FA E4                 1976 	clr	a
   07FB 08                 1977 	inc	r0
   07FC 36                 1978 	addc	a,@r0
   07FD FB                 1979 	mov	r3,a
   07FE 08                 1980 	inc	r0
   07FF 86 04              1981 	mov	ar4,@r0
   0801 8A 82              1982 	mov	dpl,r2
   0803 8B 83              1983 	mov	dph,r3
   0805 8C F0              1984 	mov	b,r4
   0807 12s00r00           1985 	lcall	__gptrget
   080A FE                 1986 	mov	r6,a
   080B A3                 1987 	inc	dptr
   080C 12s00r00           1988 	lcall	__gptrget
   080F FF                 1989 	mov	r7,a
   0810 90s00r00           1990 	mov	dptr,#_uip_conn
   0813 E0                 1991 	movx	a,@dptr
   0814 FA                 1992 	mov	r2,a
   0815 A3                 1993 	inc	dptr
   0816 E0                 1994 	movx	a,@dptr
   0817 FB                 1995 	mov	r3,a
   0818 A3                 1996 	inc	dptr
   0819 E0                 1997 	movx	a,@dptr
   081A FC                 1998 	mov	r4,a
   081B 74 12              1999 	mov	a,#0x12
   081D 2A                 2000 	add	a,r2
   081E FA                 2001 	mov	r2,a
   081F E4                 2002 	clr	a
   0820 3B                 2003 	addc	a,r3
   0821 FB                 2004 	mov	r3,a
   0822 8A 82              2005 	mov	dpl,r2
   0824 8B 83              2006 	mov	dph,r3
   0826 8C F0              2007 	mov	b,r4
   0828 E5*00              2008 	mov	a,_bp
   082A 24 06              2009 	add	a,#0x06
   082C F8                 2010 	mov	r0,a
   082D 12s00r00           2011 	lcall	__gptrget
   0830 F6                 2012 	mov	@r0,a
   0831 A3                 2013 	inc	dptr
   0832 12s00r00           2014 	lcall	__gptrget
   0835 08                 2015 	inc	r0
   0836 F6                 2016 	mov	@r0,a
   0837 E5*00              2017 	mov	a,_bp
   0839 24 06              2018 	add	a,#0x06
   083B F8                 2019 	mov	r0,a
   083C C3                 2020 	clr	c
   083D E6                 2021 	mov	a,@r0
   083E 9E                 2022 	subb	a,r6
   083F 08                 2023 	inc	r0
   0840 E6                 2024 	mov	a,@r0
   0841 9F                 2025 	subb	a,r7
   0842 D0 04              2026 	pop	ar4
   0844 D0 03              2027 	pop	ar3
   0846 D0 02              2028 	pop	ar2
   0848 50 57              2029 	jnc	00102$
                           2030 ;	../../core/net/psock.c:149: uip_send(s->sendptr, uip_mss());
   084A C0 02              2031 	push	ar2
   084C C0 03              2032 	push	ar3
   084E C0 04              2033 	push	ar4
   0850 E5*00              2034 	mov	a,_bp
   0852 24 06              2035 	add	a,#0x06
   0854 F8                 2036 	mov	r0,a
   0855 86 03              2037 	mov	ar3,@r0
   0857 08                 2038 	inc	r0
   0858 86 04              2039 	mov	ar4,@r0
   085A A8*00              2040 	mov	r0,_bp
   085C 08                 2041 	inc	r0
   085D 74 04              2042 	mov	a,#0x04
   085F 26                 2043 	add	a,@r0
   0860 FA                 2044 	mov	r2,a
   0861 E4                 2045 	clr	a
   0862 08                 2046 	inc	r0
   0863 36                 2047 	addc	a,@r0
   0864 FE                 2048 	mov	r6,a
   0865 08                 2049 	inc	r0
   0866 86 07              2050 	mov	ar7,@r0
   0868 8A 82              2051 	mov	dpl,r2
   086A 8E 83              2052 	mov	dph,r6
   086C 8F F0              2053 	mov	b,r7
   086E 12s00r00           2054 	lcall	__gptrget
   0871 FA                 2055 	mov	r2,a
   0872 A3                 2056 	inc	dptr
   0873 12s00r00           2057 	lcall	__gptrget
   0876 FE                 2058 	mov	r6,a
   0877 A3                 2059 	inc	dptr
   0878 12s00r00           2060 	lcall	__gptrget
   087B FF                 2061 	mov	r7,a
   087C C0 04              2062 	push	ar4
   087E C0 03              2063 	push	ar3
   0880 C0 02              2064 	push	ar2
   0882 C0 03              2065 	push	ar3
   0884 C0 04              2066 	push	ar4
   0886 8A 82              2067 	mov	dpl,r2
   0888 8E 83              2068 	mov	dph,r6
   088A 8F F0              2069 	mov	b,r7
   088C 12s00r00           2070 	lcall	_uip_send
   088F 15 81              2071 	dec	sp
   0891 15 81              2072 	dec	sp
   0893 D0 02              2073 	pop	ar2
   0895 D0 03              2074 	pop	ar3
   0897 D0 04              2075 	pop	ar4
   0899 D0 04              2076 	pop	ar4
   089B D0 03              2077 	pop	ar3
   089D D0 02              2078 	pop	ar2
   089F 80 4B              2079 	sjmp	00103$
   08A1                    2080 00102$:
                           2081 ;	../../core/net/psock.c:151: uip_send(s->sendptr, s->sendlen);
   08A1 C0 02              2082 	push	ar2
   08A3 C0 03              2083 	push	ar3
   08A5 C0 04              2084 	push	ar4
   08A7 A8*00              2085 	mov	r0,_bp
   08A9 08                 2086 	inc	r0
   08AA 74 04              2087 	mov	a,#0x04
   08AC 26                 2088 	add	a,@r0
   08AD FB                 2089 	mov	r3,a
   08AE E4                 2090 	clr	a
   08AF 08                 2091 	inc	r0
   08B0 36                 2092 	addc	a,@r0
   08B1 FC                 2093 	mov	r4,a
   08B2 08                 2094 	inc	r0
   08B3 86 05              2095 	mov	ar5,@r0
   08B5 8B 82              2096 	mov	dpl,r3
   08B7 8C 83              2097 	mov	dph,r4
   08B9 8D F0              2098 	mov	b,r5
   08BB 12s00r00           2099 	lcall	__gptrget
   08BE FB                 2100 	mov	r3,a
   08BF A3                 2101 	inc	dptr
   08C0 12s00r00           2102 	lcall	__gptrget
   08C3 FC                 2103 	mov	r4,a
   08C4 A3                 2104 	inc	dptr
   08C5 12s00r00           2105 	lcall	__gptrget
   08C8 FD                 2106 	mov	r5,a
   08C9 C0 04              2107 	push	ar4
   08CB C0 03              2108 	push	ar3
   08CD C0 02              2109 	push	ar2
   08CF C0 06              2110 	push	ar6
   08D1 C0 07              2111 	push	ar7
   08D3 8B 82              2112 	mov	dpl,r3
   08D5 8C 83              2113 	mov	dph,r4
   08D7 8D F0              2114 	mov	b,r5
   08D9 12s00r00           2115 	lcall	_uip_send
   08DC 15 81              2116 	dec	sp
   08DE 15 81              2117 	dec	sp
   08E0 D0 02              2118 	pop	ar2
   08E2 D0 03              2119 	pop	ar3
   08E4 D0 04              2120 	pop	ar4
                           2121 ;	../../core/net/psock.c:166: return 0;
   08E6 D0 04              2122 	pop	ar4
   08E8 D0 03              2123 	pop	ar3
   08EA D0 02              2124 	pop	ar2
                           2125 ;	../../core/net/psock.c:151: uip_send(s->sendptr, s->sendlen);
   08EC                    2126 00103$:
                           2127 ;	../../core/net/psock.c:153: s->state = STATE_DATA_SENT;
   08EC 8A 82              2128 	mov	dpl,r2
   08EE 8B 83              2129 	mov	dph,r3
   08F0 8C F0              2130 	mov	b,r4
   08F2 74 06              2131 	mov	a,#0x06
   08F4 12s00r00           2132 	lcall	__gptrput
                           2133 ;	../../core/net/psock.c:154: return 0;
   08F7 75 82 00           2134 	mov	dpl,#0x00
   08FA 02s0Ar6A           2135 	ljmp	00114$
   08FD                    2136 00111$:
                           2137 ;	../../core/net/psock.c:155: } else if(s->state == STATE_DATA_SENT && uip_acked()) {
   08FD EF                 2138 	mov	a,r7
   08FE 70 03              2139 	jnz	00131$
   0900 02s0Ar67           2140 	ljmp	00112$
   0903                    2141 00131$:
   0903 EE                 2142 	mov	a,r6
   0904 20 E0 03           2143 	jb	acc.0,00132$
   0907 02s0Ar67           2144 	ljmp	00112$
   090A                    2145 00132$:
                           2146 ;	../../core/net/psock.c:156: if(s->sendlen > uip_mss()) {
   090A C0 02              2147 	push	ar2
   090C C0 03              2148 	push	ar3
   090E C0 04              2149 	push	ar4
   0910 A8*00              2150 	mov	r0,_bp
   0912 08                 2151 	inc	r0
   0913 74 0D              2152 	mov	a,#0x0D
   0915 26                 2153 	add	a,@r0
   0916 FD                 2154 	mov	r5,a
   0917 E4                 2155 	clr	a
   0918 08                 2156 	inc	r0
   0919 36                 2157 	addc	a,@r0
   091A FE                 2158 	mov	r6,a
   091B 08                 2159 	inc	r0
   091C 86 07              2160 	mov	ar7,@r0
   091E 8D 82              2161 	mov	dpl,r5
   0920 8E 83              2162 	mov	dph,r6
   0922 8F F0              2163 	mov	b,r7
   0924 E5*00              2164 	mov	a,_bp
   0926 24 06              2165 	add	a,#0x06
   0928 F8                 2166 	mov	r0,a
   0929 12s00r00           2167 	lcall	__gptrget
   092C F6                 2168 	mov	@r0,a
   092D A3                 2169 	inc	dptr
   092E 12s00r00           2170 	lcall	__gptrget
   0931 08                 2171 	inc	r0
   0932 F6                 2172 	mov	@r0,a
   0933 90s00r00           2173 	mov	dptr,#_uip_conn
   0936 E0                 2174 	movx	a,@dptr
   0937 FA                 2175 	mov	r2,a
   0938 A3                 2176 	inc	dptr
   0939 E0                 2177 	movx	a,@dptr
   093A FB                 2178 	mov	r3,a
   093B A3                 2179 	inc	dptr
   093C E0                 2180 	movx	a,@dptr
   093D FC                 2181 	mov	r4,a
   093E 74 12              2182 	mov	a,#0x12
   0940 2A                 2183 	add	a,r2
   0941 FA                 2184 	mov	r2,a
   0942 E4                 2185 	clr	a
   0943 3B                 2186 	addc	a,r3
   0944 FB                 2187 	mov	r3,a
   0945 8A 82              2188 	mov	dpl,r2
   0947 8B 83              2189 	mov	dph,r3
   0949 8C F0              2190 	mov	b,r4
   094B E5*00              2191 	mov	a,_bp
   094D 24 04              2192 	add	a,#0x04
   094F F8                 2193 	mov	r0,a
   0950 12s00r00           2194 	lcall	__gptrget
   0953 F6                 2195 	mov	@r0,a
   0954 A3                 2196 	inc	dptr
   0955 12s00r00           2197 	lcall	__gptrget
   0958 08                 2198 	inc	r0
   0959 F6                 2199 	mov	@r0,a
   095A E5*00              2200 	mov	a,_bp
   095C 24 06              2201 	add	a,#0x06
   095E F8                 2202 	mov	r0,a
   095F E5*00              2203 	mov	a,_bp
   0961 24 04              2204 	add	a,#0x04
   0963 F9                 2205 	mov	r1,a
   0964 C3                 2206 	clr	c
   0965 E7                 2207 	mov	a,@r1
   0966 96                 2208 	subb	a,@r0
   0967 09                 2209 	inc	r1
   0968 E7                 2210 	mov	a,@r1
   0969 08                 2211 	inc	r0
   096A 96                 2212 	subb	a,@r0
   096B D0 04              2213 	pop	ar4
   096D D0 03              2214 	pop	ar3
   096F D0 02              2215 	pop	ar2
   0971 50 72              2216 	jnc	00105$
                           2217 ;	../../core/net/psock.c:157: s->sendlen -= uip_mss();
   0973 C0 02              2218 	push	ar2
   0975 C0 03              2219 	push	ar3
   0977 C0 04              2220 	push	ar4
   0979 E5*00              2221 	mov	a,_bp
   097B 24 06              2222 	add	a,#0x06
   097D F8                 2223 	mov	r0,a
   097E E5*00              2224 	mov	a,_bp
   0980 24 04              2225 	add	a,#0x04
   0982 F9                 2226 	mov	r1,a
   0983 E6                 2227 	mov	a,@r0
   0984 C3                 2228 	clr	c
   0985 97                 2229 	subb	a,@r1
   0986 FB                 2230 	mov	r3,a
   0987 08                 2231 	inc	r0
   0988 E6                 2232 	mov	a,@r0
   0989 09                 2233 	inc	r1
   098A 97                 2234 	subb	a,@r1
   098B FC                 2235 	mov	r4,a
   098C 8D 82              2236 	mov	dpl,r5
   098E 8E 83              2237 	mov	dph,r6
   0990 8F F0              2238 	mov	b,r7
   0992 EB                 2239 	mov	a,r3
   0993 12s00r00           2240 	lcall	__gptrput
   0996 A3                 2241 	inc	dptr
   0997 EC                 2242 	mov	a,r4
   0998 12s00r00           2243 	lcall	__gptrput
                           2244 ;	../../core/net/psock.c:158: s->sendptr += uip_mss();
   099B A8*00              2245 	mov	r0,_bp
   099D 08                 2246 	inc	r0
   099E 74 04              2247 	mov	a,#0x04
   09A0 26                 2248 	add	a,@r0
   09A1 FF                 2249 	mov	r7,a
   09A2 E4                 2250 	clr	a
   09A3 08                 2251 	inc	r0
   09A4 36                 2252 	addc	a,@r0
   09A5 FE                 2253 	mov	r6,a
   09A6 08                 2254 	inc	r0
   09A7 86 05              2255 	mov	ar5,@r0
   09A9 8F 82              2256 	mov	dpl,r7
   09AB 8E 83              2257 	mov	dph,r6
   09AD 8D F0              2258 	mov	b,r5
   09AF 12s00r00           2259 	lcall	__gptrget
   09B2 FA                 2260 	mov	r2,a
   09B3 A3                 2261 	inc	dptr
   09B4 12s00r00           2262 	lcall	__gptrget
   09B7 FB                 2263 	mov	r3,a
   09B8 A3                 2264 	inc	dptr
   09B9 12s00r00           2265 	lcall	__gptrget
   09BC FC                 2266 	mov	r4,a
   09BD E5*00              2267 	mov	a,_bp
   09BF 24 04              2268 	add	a,#0x04
   09C1 F8                 2269 	mov	r0,a
   09C2 E6                 2270 	mov	a,@r0
   09C3 2A                 2271 	add	a,r2
   09C4 FA                 2272 	mov	r2,a
   09C5 08                 2273 	inc	r0
   09C6 E6                 2274 	mov	a,@r0
   09C7 3B                 2275 	addc	a,r3
   09C8 FB                 2276 	mov	r3,a
   09C9 8F 82              2277 	mov	dpl,r7
   09CB 8E 83              2278 	mov	dph,r6
   09CD 8D F0              2279 	mov	b,r5
   09CF EA                 2280 	mov	a,r2
   09D0 12s00r00           2281 	lcall	__gptrput
   09D3 A3                 2282 	inc	dptr
   09D4 EB                 2283 	mov	a,r3
   09D5 12s00r00           2284 	lcall	__gptrput
   09D8 A3                 2285 	inc	dptr
   09D9 EC                 2286 	mov	a,r4
   09DA 12s00r00           2287 	lcall	__gptrput
   09DD D0 04              2288 	pop	ar4
   09DF D0 03              2289 	pop	ar3
   09E1 D0 02              2290 	pop	ar2
   09E3 80 72              2291 	sjmp	00106$
   09E5                    2292 00105$:
                           2293 ;	../../core/net/psock.c:160: s->sendptr += s->sendlen;
   09E5 C0 02              2294 	push	ar2
   09E7 C0 03              2295 	push	ar3
   09E9 C0 04              2296 	push	ar4
   09EB A8*00              2297 	mov	r0,_bp
   09ED 08                 2298 	inc	r0
   09EE E5*00              2299 	mov	a,_bp
   09F0 24 08              2300 	add	a,#0x08
   09F2 F9                 2301 	mov	r1,a
   09F3 74 04              2302 	mov	a,#0x04
   09F5 26                 2303 	add	a,@r0
   09F6 F7                 2304 	mov	@r1,a
   09F7 E4                 2305 	clr	a
   09F8 08                 2306 	inc	r0
   09F9 36                 2307 	addc	a,@r0
   09FA 09                 2308 	inc	r1
   09FB F7                 2309 	mov	@r1,a
   09FC 08                 2310 	inc	r0
   09FD 09                 2311 	inc	r1
   09FE E6                 2312 	mov	a,@r0
   09FF F7                 2313 	mov	@r1,a
   0A00 E5*00              2314 	mov	a,_bp
   0A02 24 08              2315 	add	a,#0x08
   0A04 F8                 2316 	mov	r0,a
   0A05 86 82              2317 	mov	dpl,@r0
   0A07 08                 2318 	inc	r0
   0A08 86 83              2319 	mov	dph,@r0
   0A0A 08                 2320 	inc	r0
   0A0B 86 F0              2321 	mov	b,@r0
   0A0D 12s00r00           2322 	lcall	__gptrget
   0A10 FA                 2323 	mov	r2,a
   0A11 A3                 2324 	inc	dptr
   0A12 12s00r00           2325 	lcall	__gptrget
   0A15 FB                 2326 	mov	r3,a
   0A16 A3                 2327 	inc	dptr
   0A17 12s00r00           2328 	lcall	__gptrget
   0A1A FC                 2329 	mov	r4,a
   0A1B E5*00              2330 	mov	a,_bp
   0A1D 24 06              2331 	add	a,#0x06
   0A1F F8                 2332 	mov	r0,a
   0A20 E6                 2333 	mov	a,@r0
   0A21 2A                 2334 	add	a,r2
   0A22 FA                 2335 	mov	r2,a
   0A23 08                 2336 	inc	r0
   0A24 E6                 2337 	mov	a,@r0
   0A25 3B                 2338 	addc	a,r3
   0A26 FB                 2339 	mov	r3,a
   0A27 E5*00              2340 	mov	a,_bp
   0A29 24 08              2341 	add	a,#0x08
   0A2B F8                 2342 	mov	r0,a
   0A2C 86 82              2343 	mov	dpl,@r0
   0A2E 08                 2344 	inc	r0
   0A2F 86 83              2345 	mov	dph,@r0
   0A31 08                 2346 	inc	r0
   0A32 86 F0              2347 	mov	b,@r0
   0A34 EA                 2348 	mov	a,r2
   0A35 12s00r00           2349 	lcall	__gptrput
   0A38 A3                 2350 	inc	dptr
   0A39 EB                 2351 	mov	a,r3
   0A3A 12s00r00           2352 	lcall	__gptrput
   0A3D A3                 2353 	inc	dptr
   0A3E EC                 2354 	mov	a,r4
   0A3F 12s00r00           2355 	lcall	__gptrput
                           2356 ;	../../core/net/psock.c:161: s->sendlen = 0;
   0A42 8D 82              2357 	mov	dpl,r5
   0A44 8E 83              2358 	mov	dph,r6
   0A46 8F F0              2359 	mov	b,r7
   0A48 E4                 2360 	clr	a
   0A49 12s00r00           2361 	lcall	__gptrput
   0A4C A3                 2362 	inc	dptr
   0A4D E4                 2363 	clr	a
   0A4E 12s00r00           2364 	lcall	__gptrput
                           2365 ;	../../core/net/psock.c:166: return 0;
   0A51 D0 04              2366 	pop	ar4
   0A53 D0 03              2367 	pop	ar3
   0A55 D0 02              2368 	pop	ar2
                           2369 ;	../../core/net/psock.c:161: s->sendlen = 0;
   0A57                    2370 00106$:
                           2371 ;	../../core/net/psock.c:163: s->state = STATE_ACKED;
   0A57 8A 82              2372 	mov	dpl,r2
   0A59 8B 83              2373 	mov	dph,r3
   0A5B 8C F0              2374 	mov	b,r4
   0A5D 74 01              2375 	mov	a,#0x01
   0A5F 12s00r00           2376 	lcall	__gptrput
                           2377 ;	../../core/net/psock.c:164: return 1;
   0A62 75 82 01           2378 	mov	dpl,#0x01
   0A65 80 03              2379 	sjmp	00114$
   0A67                    2380 00112$:
                           2381 ;	../../core/net/psock.c:166: return 0;
   0A67 75 82 00           2382 	mov	dpl,#0x00
   0A6A                    2383 00114$:
   0A6A 85*00 81           2384 	mov	sp,_bp
   0A6D D0*00              2385 	pop	_bp
   0A6F 22                 2386 	ret
                           2387 ;------------------------------------------------------------
                           2388 ;Allocation info for local variables in function 'psock_send'
                           2389 ;------------------------------------------------------------
                           2390 ;buf                       Allocated to stack - _bp -5
                           2391 ;len                       Allocated to stack - _bp -7
                           2392 ;s                         Allocated to stack - _bp +1
                           2393 ;PT_YIELD_FLAG             Allocated to registers 
                           2394 ;sloc0                     Allocated to stack - _bp +5
                           2395 ;sloc1                     Allocated to stack - _bp +4
                           2396 ;------------------------------------------------------------
                           2397 ;	../../core/net/psock.c:169: PT_THREAD(psock_send(CC_REGISTER_ARG struct psock *s, const uint8_t *buf,
                           2398 ;	-----------------------------------------
                           2399 ;	 function psock_send
                           2400 ;	-----------------------------------------
   0A70                    2401 _psock_send:
   0A70 C0*00              2402 	push	_bp
   0A72 85 81*00           2403 	mov	_bp,sp
   0A75 C0 82              2404 	push	dpl
   0A77 C0 83              2405 	push	dph
   0A79 C0 F0              2406 	push	b
   0A7B 05 81              2407 	inc	sp
   0A7D 05 81              2408 	inc	sp
   0A7F 05 81              2409 	inc	sp
                           2410 ;	../../core/net/psock.c:172: PT_BEGIN(&s->psockpt);
   0A81 A8*00              2411 	mov	r0,_bp
   0A83 08                 2412 	inc	r0
   0A84 74 02              2413 	mov	a,#0x02
   0A86 26                 2414 	add	a,@r0
   0A87 FA                 2415 	mov	r2,a
   0A88 E4                 2416 	clr	a
   0A89 08                 2417 	inc	r0
   0A8A 36                 2418 	addc	a,@r0
   0A8B FB                 2419 	mov	r3,a
   0A8C 08                 2420 	inc	r0
   0A8D 86 04              2421 	mov	ar4,@r0
   0A8F 8A 82              2422 	mov	dpl,r2
   0A91 8B 83              2423 	mov	dph,r3
   0A93 8C F0              2424 	mov	b,r4
   0A95 12s00r00           2425 	lcall	__gptrget
   0A98 FF                 2426 	mov	r7,a
   0A99 A3                 2427 	inc	dptr
   0A9A 12s00r00           2428 	lcall	__gptrget
   0A9D FE                 2429 	mov	r6,a
   0A9E BF 00 05           2430 	cjne	r7,#0x00,00131$
   0AA1 BE 00 02           2431 	cjne	r6,#0x00,00131$
   0AA4 80 0C              2432 	sjmp	00101$
   0AA6                    2433 00131$:
   0AA6 BF C2 06           2434 	cjne	r7,#0xC2,00132$
   0AA9 BE 00 03           2435 	cjne	r6,#0x00,00132$
   0AAC 02s0Br73           2436 	ljmp	00107$
   0AAF                    2437 00132$:
   0AAF 02s0BrA6           2438 	ljmp	00116$
   0AB2                    2439 00101$:
                           2440 ;	../../core/net/psock.c:175: if(len == 0) {
   0AB2 E5*00              2441 	mov	a,_bp
   0AB4 24 F9              2442 	add	a,#0xf9
   0AB6 F8                 2443 	mov	r0,a
   0AB7 E6                 2444 	mov	a,@r0
   0AB8 08                 2445 	inc	r0
   0AB9 46                 2446 	orl	a,@r0
   0ABA 70 15              2447 	jnz	00106$
                           2448 ;	../../core/net/psock.c:176: PT_EXIT(&s->psockpt);
   0ABC 8A 82              2449 	mov	dpl,r2
   0ABE 8B 83              2450 	mov	dph,r3
   0AC0 8C F0              2451 	mov	b,r4
   0AC2 E4                 2452 	clr	a
   0AC3 12s00r00           2453 	lcall	__gptrput
   0AC6 A3                 2454 	inc	dptr
   0AC7 E4                 2455 	clr	a
   0AC8 12s00r00           2456 	lcall	__gptrput
   0ACB 75 82 02           2457 	mov	dpl,#0x02
   0ACE 02s0BrC6           2458 	ljmp	00117$
   0AD1                    2459 00106$:
                           2460 ;	../../core/net/psock.c:181: s->sendptr = buf;
   0AD1 A8*00              2461 	mov	r0,_bp
   0AD3 08                 2462 	inc	r0
   0AD4 74 04              2463 	mov	a,#0x04
   0AD6 26                 2464 	add	a,@r0
   0AD7 FA                 2465 	mov	r2,a
   0AD8 E4                 2466 	clr	a
   0AD9 08                 2467 	inc	r0
   0ADA 36                 2468 	addc	a,@r0
   0ADB FB                 2469 	mov	r3,a
   0ADC 08                 2470 	inc	r0
   0ADD 86 04              2471 	mov	ar4,@r0
   0ADF 8A 82              2472 	mov	dpl,r2
   0AE1 8B 83              2473 	mov	dph,r3
   0AE3 8C F0              2474 	mov	b,r4
   0AE5 E5*00              2475 	mov	a,_bp
   0AE7 24 FB              2476 	add	a,#0xfb
   0AE9 F8                 2477 	mov	r0,a
   0AEA E6                 2478 	mov	a,@r0
   0AEB 12s00r00           2479 	lcall	__gptrput
   0AEE A3                 2480 	inc	dptr
   0AEF 08                 2481 	inc	r0
   0AF0 E6                 2482 	mov	a,@r0
   0AF1 12s00r00           2483 	lcall	__gptrput
   0AF4 A3                 2484 	inc	dptr
   0AF5 08                 2485 	inc	r0
   0AF6 E6                 2486 	mov	a,@r0
   0AF7 12s00r00           2487 	lcall	__gptrput
                           2488 ;	../../core/net/psock.c:182: s->sendlen = len;
   0AFA A8*00              2489 	mov	r0,_bp
   0AFC 08                 2490 	inc	r0
   0AFD 74 0D              2491 	mov	a,#0x0D
   0AFF 26                 2492 	add	a,@r0
   0B00 FA                 2493 	mov	r2,a
   0B01 E4                 2494 	clr	a
   0B02 08                 2495 	inc	r0
   0B03 36                 2496 	addc	a,@r0
   0B04 FB                 2497 	mov	r3,a
   0B05 08                 2498 	inc	r0
   0B06 86 04              2499 	mov	ar4,@r0
   0B08 8A 82              2500 	mov	dpl,r2
   0B0A 8B 83              2501 	mov	dph,r3
   0B0C 8C F0              2502 	mov	b,r4
   0B0E E5*00              2503 	mov	a,_bp
   0B10 24 F9              2504 	add	a,#0xf9
   0B12 F8                 2505 	mov	r0,a
   0B13 E6                 2506 	mov	a,@r0
   0B14 12s00r00           2507 	lcall	__gptrput
   0B17 A3                 2508 	inc	dptr
   0B18 08                 2509 	inc	r0
   0B19 E6                 2510 	mov	a,@r0
   0B1A 12s00r00           2511 	lcall	__gptrput
                           2512 ;	../../core/net/psock.c:184: s->state = STATE_NONE;
   0B1D A8*00              2513 	mov	r0,_bp
   0B1F 08                 2514 	inc	r0
   0B20 E5*00              2515 	mov	a,_bp
   0B22 24 04              2516 	add	a,#0x04
   0B24 F9                 2517 	mov	r1,a
   0B25 74 18              2518 	mov	a,#0x18
   0B27 26                 2519 	add	a,@r0
   0B28 F7                 2520 	mov	@r1,a
   0B29 E4                 2521 	clr	a
   0B2A 08                 2522 	inc	r0
   0B2B 36                 2523 	addc	a,@r0
   0B2C 09                 2524 	inc	r1
   0B2D F7                 2525 	mov	@r1,a
   0B2E 08                 2526 	inc	r0
   0B2F 09                 2527 	inc	r1
   0B30 E6                 2528 	mov	a,@r0
   0B31 F7                 2529 	mov	@r1,a
   0B32 E5*00              2530 	mov	a,_bp
   0B34 24 04              2531 	add	a,#0x04
   0B36 F8                 2532 	mov	r0,a
   0B37 86 82              2533 	mov	dpl,@r0
   0B39 08                 2534 	inc	r0
   0B3A 86 83              2535 	mov	dph,@r0
   0B3C 08                 2536 	inc	r0
   0B3D 86 F0              2537 	mov	b,@r0
   0B3F E4                 2538 	clr	a
   0B40 12s00r00           2539 	lcall	__gptrput
                           2540 ;	../../core/net/psock.c:188: while(s->sendlen > 0) {
   0B43                    2541 00113$:
   0B43 8A 82              2542 	mov	dpl,r2
   0B45 8B 83              2543 	mov	dph,r3
   0B47 8C F0              2544 	mov	b,r4
   0B49 12s00r00           2545 	lcall	__gptrget
   0B4C FE                 2546 	mov	r6,a
   0B4D A3                 2547 	inc	dptr
   0B4E 12s00r00           2548 	lcall	__gptrget
   0B51 FF                 2549 	mov	r7,a
   0B52 4E                 2550 	orl	a,r6
   0B53 60 40              2551 	jz	00115$
                           2552 ;	../../core/net/psock.c:194: PT_WAIT_UNTIL(&s->psockpt, data_is_sent_and_acked(s));
   0B55 A8*00              2553 	mov	r0,_bp
   0B57 08                 2554 	inc	r0
   0B58 74 02              2555 	mov	a,#0x02
   0B5A 26                 2556 	add	a,@r0
   0B5B FD                 2557 	mov	r5,a
   0B5C E4                 2558 	clr	a
   0B5D 08                 2559 	inc	r0
   0B5E 36                 2560 	addc	a,@r0
   0B5F FE                 2561 	mov	r6,a
   0B60 08                 2562 	inc	r0
   0B61 86 07              2563 	mov	ar7,@r0
   0B63 8D 82              2564 	mov	dpl,r5
   0B65 8E 83              2565 	mov	dph,r6
   0B67 8F F0              2566 	mov	b,r7
   0B69 74 C2              2567 	mov	a,#0xC2
   0B6B 12s00r00           2568 	lcall	__gptrput
   0B6E A3                 2569 	inc	dptr
   0B6F E4                 2570 	clr	a
   0B70 12s00r00           2571 	lcall	__gptrput
   0B73                    2572 00107$:
   0B73 A8*00              2573 	mov	r0,_bp
   0B75 08                 2574 	inc	r0
   0B76 86 82              2575 	mov	dpl,@r0
   0B78 08                 2576 	inc	r0
   0B79 86 83              2577 	mov	dph,@r0
   0B7B 08                 2578 	inc	r0
   0B7C 86 F0              2579 	mov	b,@r0
   0B7E C0 04              2580 	push	ar4
   0B80 C0 03              2581 	push	ar3
   0B82 C0 02              2582 	push	ar2
   0B84 12s07rB1           2583 	lcall	_data_is_sent_and_acked
   0B87 E5 82              2584 	mov	a,dpl
   0B89 D0 02              2585 	pop	ar2
   0B8B D0 03              2586 	pop	ar3
   0B8D D0 04              2587 	pop	ar4
   0B8F 70 B2              2588 	jnz	00113$
   0B91 F5 82              2589 	mov	dpl,a
   0B93 80 31              2590 	sjmp	00117$
   0B95                    2591 00115$:
                           2592 ;	../../core/net/psock.c:197: s->state = STATE_NONE;
   0B95 E5*00              2593 	mov	a,_bp
   0B97 24 04              2594 	add	a,#0x04
   0B99 F8                 2595 	mov	r0,a
   0B9A 86 82              2596 	mov	dpl,@r0
   0B9C 08                 2597 	inc	r0
   0B9D 86 83              2598 	mov	dph,@r0
   0B9F 08                 2599 	inc	r0
   0BA0 86 F0              2600 	mov	b,@r0
   0BA2 E4                 2601 	clr	a
   0BA3 12s00r00           2602 	lcall	__gptrput
                           2603 ;	../../core/net/psock.c:199: PT_END(&s->psockpt);
   0BA6                    2604 00116$:
   0BA6 A8*00              2605 	mov	r0,_bp
   0BA8 08                 2606 	inc	r0
   0BA9 74 02              2607 	mov	a,#0x02
   0BAB 26                 2608 	add	a,@r0
   0BAC FD                 2609 	mov	r5,a
   0BAD E4                 2610 	clr	a
   0BAE 08                 2611 	inc	r0
   0BAF 36                 2612 	addc	a,@r0
   0BB0 FE                 2613 	mov	r6,a
   0BB1 08                 2614 	inc	r0
   0BB2 86 07              2615 	mov	ar7,@r0
   0BB4 8D 82              2616 	mov	dpl,r5
   0BB6 8E 83              2617 	mov	dph,r6
   0BB8 8F F0              2618 	mov	b,r7
   0BBA E4                 2619 	clr	a
   0BBB 12s00r00           2620 	lcall	__gptrput
   0BBE A3                 2621 	inc	dptr
   0BBF E4                 2622 	clr	a
   0BC0 12s00r00           2623 	lcall	__gptrput
   0BC3 75 82 03           2624 	mov	dpl,#0x03
   0BC6                    2625 00117$:
   0BC6 85*00 81           2626 	mov	sp,_bp
   0BC9 D0*00              2627 	pop	_bp
   0BCB 22                 2628 	ret
                           2629 ;------------------------------------------------------------
                           2630 ;Allocation info for local variables in function 'psock_generator_send'
                           2631 ;------------------------------------------------------------
                           2632 ;generate                  Allocated to stack - _bp -4
                           2633 ;arg                       Allocated to stack - _bp -7
                           2634 ;s                         Allocated to stack - _bp +1
                           2635 ;PT_YIELD_FLAG             Allocated to registers r7 
                           2636 ;sloc0                     Allocated to stack - _bp +4
                           2637 ;sloc1                     Allocated to stack - _bp +6
                           2638 ;sloc2                     Allocated to stack - _bp +9
                           2639 ;sloc3                     Allocated to stack - _bp +12
                           2640 ;sloc4                     Allocated to stack - _bp +14
                           2641 ;------------------------------------------------------------
                           2642 ;	../../core/net/psock.c:202: PT_THREAD(psock_generator_send(CC_REGISTER_ARG struct psock *s,
                           2643 ;	-----------------------------------------
                           2644 ;	 function psock_generator_send
                           2645 ;	-----------------------------------------
   0BCC                    2646 _psock_generator_send:
   0BCC C0*00              2647 	push	_bp
   0BCE 85 81*00           2648 	mov	_bp,sp
   0BD1 C0 82              2649 	push	dpl
   0BD3 C0 83              2650 	push	dph
   0BD5 C0 F0              2651 	push	b
   0BD7 E5 81              2652 	mov	a,sp
   0BD9 24 0C              2653 	add	a,#0x0C
   0BDB F5 81              2654 	mov	sp,a
                           2655 ;	../../core/net/psock.c:205: PT_BEGIN(&s->psockpt);
   0BDD 7F 01              2656 	mov	r7,#0x01
   0BDF A8*00              2657 	mov	r0,_bp
   0BE1 08                 2658 	inc	r0
   0BE2 74 02              2659 	mov	a,#0x02
   0BE4 26                 2660 	add	a,@r0
   0BE5 FA                 2661 	mov	r2,a
   0BE6 E4                 2662 	clr	a
   0BE7 08                 2663 	inc	r0
   0BE8 36                 2664 	addc	a,@r0
   0BE9 FB                 2665 	mov	r3,a
   0BEA 08                 2666 	inc	r0
   0BEB 86 04              2667 	mov	ar4,@r0
   0BED 8A 82              2668 	mov	dpl,r2
   0BEF 8B 83              2669 	mov	dph,r3
   0BF1 8C F0              2670 	mov	b,r4
   0BF3 12s00r00           2671 	lcall	__gptrget
   0BF6 FE                 2672 	mov	r6,a
   0BF7 A3                 2673 	inc	dptr
   0BF8 12s00r00           2674 	lcall	__gptrget
   0BFB FD                 2675 	mov	r5,a
   0BFC BE 00 05           2676 	cjne	r6,#0x00,00140$
   0BFF BD 00 02           2677 	cjne	r5,#0x00,00140$
   0C02 80 0C              2678 	sjmp	00101$
   0C04                    2679 00140$:
   0C04 BE E4 06           2680 	cjne	r6,#0xE4,00141$
   0C07 BD 00 03           2681 	cjne	r5,#0x00,00141$
   0C0A 02s0Er09           2682 	ljmp	00110$
   0C0D                    2683 00141$:
   0C0D 02s0Er3C           2684 	ljmp	00121$
   0C10                    2685 00101$:
                           2686 ;	../../core/net/psock.c:208: if(generate == NULL) {
   0C10 E5*00              2687 	mov	a,_bp
   0C12 24 FC              2688 	add	a,#0xfc
   0C14 F8                 2689 	mov	r0,a
   0C15 E6                 2690 	mov	a,@r0
   0C16 08                 2691 	inc	r0
   0C17 46                 2692 	orl	a,@r0
   0C18 70 15              2693 	jnz	00106$
                           2694 ;	../../core/net/psock.c:209: PT_EXIT(&s->psockpt);
   0C1A 8A 82              2695 	mov	dpl,r2
   0C1C 8B 83              2696 	mov	dph,r3
   0C1E 8C F0              2697 	mov	b,r4
   0C20 E4                 2698 	clr	a
   0C21 12s00r00           2699 	lcall	__gptrput
   0C24 A3                 2700 	inc	dptr
   0C25 E4                 2701 	clr	a
   0C26 12s00r00           2702 	lcall	__gptrput
   0C29 75 82 02           2703 	mov	dpl,#0x02
   0C2C 02s0Er4E           2704 	ljmp	00122$
   0C2F                    2705 00106$:
                           2706 ;	../../core/net/psock.c:212: s->state = STATE_NONE;
   0C2F A8*00              2707 	mov	r0,_bp
   0C31 08                 2708 	inc	r0
   0C32 E5*00              2709 	mov	a,_bp
   0C34 24 06              2710 	add	a,#0x06
   0C36 F9                 2711 	mov	r1,a
   0C37 74 18              2712 	mov	a,#0x18
   0C39 26                 2713 	add	a,@r0
   0C3A F7                 2714 	mov	@r1,a
   0C3B E4                 2715 	clr	a
   0C3C 08                 2716 	inc	r0
   0C3D 36                 2717 	addc	a,@r0
   0C3E 09                 2718 	inc	r1
   0C3F F7                 2719 	mov	@r1,a
   0C40 08                 2720 	inc	r0
   0C41 09                 2721 	inc	r1
   0C42 E6                 2722 	mov	a,@r0
   0C43 F7                 2723 	mov	@r1,a
   0C44 E5*00              2724 	mov	a,_bp
   0C46 24 06              2725 	add	a,#0x06
   0C48 F8                 2726 	mov	r0,a
   0C49 86 82              2727 	mov	dpl,@r0
   0C4B 08                 2728 	inc	r0
   0C4C 86 83              2729 	mov	dph,@r0
   0C4E 08                 2730 	inc	r0
   0C4F 86 F0              2731 	mov	b,@r0
   0C51 E4                 2732 	clr	a
   0C52 12s00r00           2733 	lcall	__gptrput
                           2734 ;	../../core/net/psock.c:213: do {
   0C55                    2735 00118$:
                           2736 ;	../../core/net/psock.c:216: s->sendlen = generate(arg);
   0C55 C0 02              2737 	push	ar2
   0C57 C0 03              2738 	push	ar3
   0C59 C0 04              2739 	push	ar4
   0C5B A8*00              2740 	mov	r0,_bp
   0C5D 08                 2741 	inc	r0
   0C5E 74 0D              2742 	mov	a,#0x0D
   0C60 26                 2743 	add	a,@r0
   0C61 FA                 2744 	mov	r2,a
   0C62 E4                 2745 	clr	a
   0C63 08                 2746 	inc	r0
   0C64 36                 2747 	addc	a,@r0
   0C65 FB                 2748 	mov	r3,a
   0C66 08                 2749 	inc	r0
   0C67 86 04              2750 	mov	ar4,@r0
   0C69 C0 04              2751 	push	ar4
   0C6B C0 03              2752 	push	ar3
   0C6D C0 02              2753 	push	ar2
   0C6F 74r91              2754 	mov	a,#00143$
   0C71 C0 E0              2755 	push	acc
   0C73 74s0C              2756 	mov	a,#(00143$ >> 8)
   0C75 C0 E0              2757 	push	acc
   0C77 E5*00              2758 	mov	a,_bp
   0C79 24 FC              2759 	add	a,#0xfc
   0C7B F8                 2760 	mov	r0,a
   0C7C E6                 2761 	mov	a,@r0
   0C7D C0 E0              2762 	push	acc
   0C7F 08                 2763 	inc	r0
   0C80 E6                 2764 	mov	a,@r0
   0C81 C0 E0              2765 	push	acc
   0C83 E5*00              2766 	mov	a,_bp
   0C85 24 F9              2767 	add	a,#0xf9
   0C87 F8                 2768 	mov	r0,a
   0C88 86 82              2769 	mov	dpl,@r0
   0C8A 08                 2770 	inc	r0
   0C8B 86 83              2771 	mov	dph,@r0
   0C8D 08                 2772 	inc	r0
   0C8E 86 F0              2773 	mov	b,@r0
   0C90 22                 2774 	ret
   0C91                    2775 00143$:
   0C91 C8                 2776 	xch	a,r0
   0C92 E5*00              2777 	mov	a,_bp
   0C94 24 04              2778 	add	a,#0x04
   0C96 C8                 2779 	xch	a,r0
   0C97 A6 82              2780 	mov	@r0,dpl
   0C99 08                 2781 	inc	r0
   0C9A A6 83              2782 	mov	@r0,dph
   0C9C D0 02              2783 	pop	ar2
   0C9E D0 03              2784 	pop	ar3
   0CA0 D0 04              2785 	pop	ar4
   0CA2 8A 82              2786 	mov	dpl,r2
   0CA4 8B 83              2787 	mov	dph,r3
   0CA6 8C F0              2788 	mov	b,r4
   0CA8 E5*00              2789 	mov	a,_bp
   0CAA 24 04              2790 	add	a,#0x04
   0CAC F8                 2791 	mov	r0,a
   0CAD E6                 2792 	mov	a,@r0
   0CAE 12s00r00           2793 	lcall	__gptrput
   0CB1 A3                 2794 	inc	dptr
   0CB2 08                 2795 	inc	r0
   0CB3 E6                 2796 	mov	a,@r0
   0CB4 12s00r00           2797 	lcall	__gptrput
                           2798 ;	../../core/net/psock.c:217: s->sendptr = uip_appdata;
   0CB7 A8*00              2799 	mov	r0,_bp
   0CB9 08                 2800 	inc	r0
   0CBA E5*00              2801 	mov	a,_bp
   0CBC 24 09              2802 	add	a,#0x09
   0CBE F9                 2803 	mov	r1,a
   0CBF 74 04              2804 	mov	a,#0x04
   0CC1 26                 2805 	add	a,@r0
   0CC2 F7                 2806 	mov	@r1,a
   0CC3 E4                 2807 	clr	a
   0CC4 08                 2808 	inc	r0
   0CC5 36                 2809 	addc	a,@r0
   0CC6 09                 2810 	inc	r1
   0CC7 F7                 2811 	mov	@r1,a
   0CC8 08                 2812 	inc	r0
   0CC9 09                 2813 	inc	r1
   0CCA E6                 2814 	mov	a,@r0
   0CCB F7                 2815 	mov	@r1,a
   0CCC 90s00r00           2816 	mov	dptr,#_uip_appdata
   0CCF E0                 2817 	movx	a,@dptr
   0CD0 FD                 2818 	mov	r5,a
   0CD1 A3                 2819 	inc	dptr
   0CD2 E0                 2820 	movx	a,@dptr
   0CD3 FE                 2821 	mov	r6,a
   0CD4 A3                 2822 	inc	dptr
   0CD5 E0                 2823 	movx	a,@dptr
   0CD6 FF                 2824 	mov	r7,a
   0CD7 E5*00              2825 	mov	a,_bp
   0CD9 24 09              2826 	add	a,#0x09
   0CDB F8                 2827 	mov	r0,a
   0CDC 86 82              2828 	mov	dpl,@r0
   0CDE 08                 2829 	inc	r0
   0CDF 86 83              2830 	mov	dph,@r0
   0CE1 08                 2831 	inc	r0
   0CE2 86 F0              2832 	mov	b,@r0
   0CE4 ED                 2833 	mov	a,r5
   0CE5 12s00r00           2834 	lcall	__gptrput
   0CE8 A3                 2835 	inc	dptr
   0CE9 EE                 2836 	mov	a,r6
   0CEA 12s00r00           2837 	lcall	__gptrput
   0CED A3                 2838 	inc	dptr
   0CEE EF                 2839 	mov	a,r7
   0CEF 12s00r00           2840 	lcall	__gptrput
                           2841 ;	../../core/net/psock.c:219: if(s->sendlen > uip_mss()) {
   0CF2 8A 82              2842 	mov	dpl,r2
   0CF4 8B 83              2843 	mov	dph,r3
   0CF6 8C F0              2844 	mov	b,r4
   0CF8 E5*00              2845 	mov	a,_bp
   0CFA 24 0C              2846 	add	a,#0x0c
   0CFC F8                 2847 	mov	r0,a
   0CFD 12s00r00           2848 	lcall	__gptrget
   0D00 F6                 2849 	mov	@r0,a
   0D01 A3                 2850 	inc	dptr
   0D02 12s00r00           2851 	lcall	__gptrget
   0D05 08                 2852 	inc	r0
   0D06 F6                 2853 	mov	@r0,a
   0D07 90s00r00           2854 	mov	dptr,#_uip_conn
   0D0A E0                 2855 	movx	a,@dptr
   0D0B FD                 2856 	mov	r5,a
   0D0C A3                 2857 	inc	dptr
   0D0D E0                 2858 	movx	a,@dptr
   0D0E FE                 2859 	mov	r6,a
   0D0F A3                 2860 	inc	dptr
   0D10 E0                 2861 	movx	a,@dptr
   0D11 FF                 2862 	mov	r7,a
   0D12 74 12              2863 	mov	a,#0x12
   0D14 2D                 2864 	add	a,r5
   0D15 FD                 2865 	mov	r5,a
   0D16 E4                 2866 	clr	a
   0D17 3E                 2867 	addc	a,r6
   0D18 FE                 2868 	mov	r6,a
   0D19 8D 82              2869 	mov	dpl,r5
   0D1B 8E 83              2870 	mov	dph,r6
   0D1D 8F F0              2871 	mov	b,r7
   0D1F E5*00              2872 	mov	a,_bp
   0D21 24 0E              2873 	add	a,#0x0e
   0D23 F8                 2874 	mov	r0,a
   0D24 12s00r00           2875 	lcall	__gptrget
   0D27 F6                 2876 	mov	@r0,a
   0D28 A3                 2877 	inc	dptr
   0D29 12s00r00           2878 	lcall	__gptrget
   0D2C 08                 2879 	inc	r0
   0D2D F6                 2880 	mov	@r0,a
   0D2E E5*00              2881 	mov	a,_bp
   0D30 24 04              2882 	add	a,#0x04
   0D32 F8                 2883 	mov	r0,a
   0D33 E5*00              2884 	mov	a,_bp
   0D35 24 0E              2885 	add	a,#0x0e
   0D37 F9                 2886 	mov	r1,a
   0D38 C3                 2887 	clr	c
   0D39 E7                 2888 	mov	a,@r1
   0D3A 96                 2889 	subb	a,@r0
   0D3B 09                 2890 	inc	r1
   0D3C E7                 2891 	mov	a,@r1
   0D3D 08                 2892 	inc	r0
   0D3E 96                 2893 	subb	a,@r0
   0D3F D0 04              2894 	pop	ar4
   0D41 D0 03              2895 	pop	ar3
   0D43 D0 02              2896 	pop	ar2
   0D45 50 50              2897 	jnc	00108$
                           2898 ;	../../core/net/psock.c:220: uip_send(s->sendptr, uip_mss());
   0D47 C0 02              2899 	push	ar2
   0D49 C0 03              2900 	push	ar3
   0D4B C0 04              2901 	push	ar4
   0D4D E5*00              2902 	mov	a,_bp
   0D4F 24 0E              2903 	add	a,#0x0e
   0D51 F8                 2904 	mov	r0,a
   0D52 86 06              2905 	mov	ar6,@r0
   0D54 08                 2906 	inc	r0
   0D55 86 07              2907 	mov	ar7,@r0
   0D57 E5*00              2908 	mov	a,_bp
   0D59 24 09              2909 	add	a,#0x09
   0D5B F8                 2910 	mov	r0,a
   0D5C 86 82              2911 	mov	dpl,@r0
   0D5E 08                 2912 	inc	r0
   0D5F 86 83              2913 	mov	dph,@r0
   0D61 08                 2914 	inc	r0
   0D62 86 F0              2915 	mov	b,@r0
   0D64 12s00r00           2916 	lcall	__gptrget
   0D67 FB                 2917 	mov	r3,a
   0D68 A3                 2918 	inc	dptr
   0D69 12s00r00           2919 	lcall	__gptrget
   0D6C FC                 2920 	mov	r4,a
   0D6D A3                 2921 	inc	dptr
   0D6E 12s00r00           2922 	lcall	__gptrget
   0D71 FD                 2923 	mov	r5,a
   0D72 C0 04              2924 	push	ar4
   0D74 C0 03              2925 	push	ar3
   0D76 C0 02              2926 	push	ar2
   0D78 C0 06              2927 	push	ar6
   0D7A C0 07              2928 	push	ar7
   0D7C 8B 82              2929 	mov	dpl,r3
   0D7E 8C 83              2930 	mov	dph,r4
   0D80 8D F0              2931 	mov	b,r5
   0D82 12s00r00           2932 	lcall	_uip_send
   0D85 15 81              2933 	dec	sp
   0D87 15 81              2934 	dec	sp
   0D89 D0 02              2935 	pop	ar2
   0D8B D0 03              2936 	pop	ar3
   0D8D D0 04              2937 	pop	ar4
   0D8F D0 04              2938 	pop	ar4
   0D91 D0 03              2939 	pop	ar3
   0D93 D0 02              2940 	pop	ar2
   0D95 80 4E              2941 	sjmp	00109$
   0D97                    2942 00108$:
                           2943 ;	../../core/net/psock.c:222: uip_send(s->sendptr, s->sendlen);
   0D97 C0 02              2944 	push	ar2
   0D99 C0 03              2945 	push	ar3
   0D9B C0 04              2946 	push	ar4
   0D9D E5*00              2947 	mov	a,_bp
   0D9F 24 0C              2948 	add	a,#0x0c
   0DA1 F8                 2949 	mov	r0,a
   0DA2 86 06              2950 	mov	ar6,@r0
   0DA4 08                 2951 	inc	r0
   0DA5 86 07              2952 	mov	ar7,@r0
   0DA7 E5*00              2953 	mov	a,_bp
   0DA9 24 09              2954 	add	a,#0x09
   0DAB F8                 2955 	mov	r0,a
   0DAC 86 82              2956 	mov	dpl,@r0
   0DAE 08                 2957 	inc	r0
   0DAF 86 83              2958 	mov	dph,@r0
   0DB1 08                 2959 	inc	r0
   0DB2 86 F0              2960 	mov	b,@r0
   0DB4 12s00r00           2961 	lcall	__gptrget
   0DB7 FB                 2962 	mov	r3,a
   0DB8 A3                 2963 	inc	dptr
   0DB9 12s00r00           2964 	lcall	__gptrget
   0DBC FC                 2965 	mov	r4,a
   0DBD A3                 2966 	inc	dptr
   0DBE 12s00r00           2967 	lcall	__gptrget
   0DC1 FD                 2968 	mov	r5,a
   0DC2 C0 04              2969 	push	ar4
   0DC4 C0 03              2970 	push	ar3
   0DC6 C0 02              2971 	push	ar2
   0DC8 C0 06              2972 	push	ar6
   0DCA C0 07              2973 	push	ar7
   0DCC 8B 82              2974 	mov	dpl,r3
   0DCE 8C 83              2975 	mov	dph,r4
   0DD0 8D F0              2976 	mov	b,r5
   0DD2 12s00r00           2977 	lcall	_uip_send
   0DD5 15 81              2978 	dec	sp
   0DD7 15 81              2979 	dec	sp
   0DD9 D0 02              2980 	pop	ar2
   0DDB D0 03              2981 	pop	ar3
   0DDD D0 04              2982 	pop	ar4
                           2983 ;	../../core/net/psock.c:233: PT_END(&s->psockpt);
   0DDF D0 04              2984 	pop	ar4
   0DE1 D0 03              2985 	pop	ar3
   0DE3 D0 02              2986 	pop	ar2
                           2987 ;	../../core/net/psock.c:222: uip_send(s->sendptr, s->sendlen);
   0DE5                    2988 00109$:
                           2989 ;	../../core/net/psock.c:224: s->state = STATE_DATA_SENT;
   0DE5 E5*00              2990 	mov	a,_bp
   0DE7 24 06              2991 	add	a,#0x06
   0DE9 F8                 2992 	mov	r0,a
   0DEA 86 82              2993 	mov	dpl,@r0
   0DEC 08                 2994 	inc	r0
   0DED 86 83              2995 	mov	dph,@r0
   0DEF 08                 2996 	inc	r0
   0DF0 86 F0              2997 	mov	b,@r0
   0DF2 74 06              2998 	mov	a,#0x06
   0DF4 12s00r00           2999 	lcall	__gptrput
                           3000 ;	../../core/net/psock.c:228: PT_YIELD_UNTIL(&s->psockpt, uip_acked() || uip_rexmit());
   0DF7 7F 00              3001 	mov	r7,#0x00
   0DF9 8A 82              3002 	mov	dpl,r2
   0DFB 8B 83              3003 	mov	dph,r3
   0DFD 8C F0              3004 	mov	b,r4
   0DFF 74 E4              3005 	mov	a,#0xE4
   0E01 12s00r00           3006 	lcall	__gptrput
   0E04 A3                 3007 	inc	dptr
   0E05 E4                 3008 	clr	a
   0E06 12s00r00           3009 	lcall	__gptrput
   0E09                    3010 00110$:
   0E09 EF                 3011 	mov	a,r7
   0E0A 60 0C              3012 	jz	00111$
   0E0C 90s00r00           3013 	mov	dptr,#_uip_flags
   0E0F E0                 3014 	movx	a,@dptr
   0E10 FF                 3015 	mov	r7,a
   0E11 20 E0 09           3016 	jb	acc.0,00116$
   0E14 EF                 3017 	mov	a,r7
   0E15 20 E2 05           3018 	jb	acc.2,00116$
   0E18                    3019 00111$:
   0E18 75 82 01           3020 	mov	dpl,#0x01
   0E1B 80 31              3021 	sjmp	00122$
   0E1D                    3022 00116$:
                           3023 ;	../../core/net/psock.c:229: } while(!uip_acked());
   0E1D EF                 3024 	mov	a,r7
   0E1E 20 E0 03           3025 	jb	acc.0,00148$
   0E21 02s0Cr55           3026 	ljmp	00118$
   0E24                    3027 00148$:
                           3028 ;	../../core/net/psock.c:231: s->state = STATE_NONE;
   0E24 A8*00              3029 	mov	r0,_bp
   0E26 08                 3030 	inc	r0
   0E27 74 18              3031 	mov	a,#0x18
   0E29 26                 3032 	add	a,@r0
   0E2A FD                 3033 	mov	r5,a
   0E2B E4                 3034 	clr	a
   0E2C 08                 3035 	inc	r0
   0E2D 36                 3036 	addc	a,@r0
   0E2E FE                 3037 	mov	r6,a
   0E2F 08                 3038 	inc	r0
   0E30 86 07              3039 	mov	ar7,@r0
   0E32 8D 82              3040 	mov	dpl,r5
   0E34 8E 83              3041 	mov	dph,r6
   0E36 8F F0              3042 	mov	b,r7
   0E38 E4                 3043 	clr	a
   0E39 12s00r00           3044 	lcall	__gptrput
                           3045 ;	../../core/net/psock.c:233: PT_END(&s->psockpt);
   0E3C                    3046 00121$:
   0E3C 8A 82              3047 	mov	dpl,r2
   0E3E 8B 83              3048 	mov	dph,r3
   0E40 8C F0              3049 	mov	b,r4
   0E42 E4                 3050 	clr	a
   0E43 12s00r00           3051 	lcall	__gptrput
   0E46 A3                 3052 	inc	dptr
   0E47 E4                 3053 	clr	a
   0E48 12s00r00           3054 	lcall	__gptrput
   0E4B 75 82 03           3055 	mov	dpl,#0x03
   0E4E                    3056 00122$:
   0E4E 85*00 81           3057 	mov	sp,_bp
   0E51 D0*00              3058 	pop	_bp
   0E53 22                 3059 	ret
                           3060 ;------------------------------------------------------------
                           3061 ;Allocation info for local variables in function 'psock_datalen'
                           3062 ;------------------------------------------------------------
                           3063 ;psock                     Allocated to registers r5 r6 r7 
                           3064 ;------------------------------------------------------------
                           3065 ;	../../core/net/psock.c:237: psock_datalen(struct psock *psock)
                           3066 ;	-----------------------------------------
                           3067 ;	 function psock_datalen
                           3068 ;	-----------------------------------------
   0E54                    3069 _psock_datalen:
   0E54 AD 82              3070 	mov	r5,dpl
   0E56 AE 83              3071 	mov	r6,dph
   0E58 AF F0              3072 	mov	r7,b
                           3073 ;	../../core/net/psock.c:239: return psock->bufsize - psock->buf.left;
   0E5A 74 16              3074 	mov	a,#0x16
   0E5C 2D                 3075 	add	a,r5
   0E5D FA                 3076 	mov	r2,a
   0E5E E4                 3077 	clr	a
   0E5F 3E                 3078 	addc	a,r6
   0E60 FB                 3079 	mov	r3,a
   0E61 8F 04              3080 	mov	ar4,r7
   0E63 8A 82              3081 	mov	dpl,r2
   0E65 8B 83              3082 	mov	dph,r3
   0E67 8C F0              3083 	mov	b,r4
   0E69 12s00r00           3084 	lcall	__gptrget
   0E6C FA                 3085 	mov	r2,a
   0E6D A3                 3086 	inc	dptr
   0E6E 12s00r00           3087 	lcall	__gptrget
   0E71 FB                 3088 	mov	r3,a
   0E72 74 11              3089 	mov	a,#0x11
   0E74 2D                 3090 	add	a,r5
   0E75 FD                 3091 	mov	r5,a
   0E76 E4                 3092 	clr	a
   0E77 3E                 3093 	addc	a,r6
   0E78 FE                 3094 	mov	r6,a
   0E79 74 03              3095 	mov	a,#0x03
   0E7B 2D                 3096 	add	a,r5
   0E7C FD                 3097 	mov	r5,a
   0E7D E4                 3098 	clr	a
   0E7E 3E                 3099 	addc	a,r6
   0E7F FE                 3100 	mov	r6,a
   0E80 8D 82              3101 	mov	dpl,r5
   0E82 8E 83              3102 	mov	dph,r6
   0E84 8F F0              3103 	mov	b,r7
   0E86 12s00r00           3104 	lcall	__gptrget
   0E89 FD                 3105 	mov	r5,a
   0E8A A3                 3106 	inc	dptr
   0E8B 12s00r00           3107 	lcall	__gptrget
   0E8E FE                 3108 	mov	r6,a
   0E8F EA                 3109 	mov	a,r2
   0E90 C3                 3110 	clr	c
   0E91 9D                 3111 	subb	a,r5
   0E92 FA                 3112 	mov	r2,a
   0E93 EB                 3113 	mov	a,r3
   0E94 9E                 3114 	subb	a,r6
   0E95 8A 82              3115 	mov	dpl,r2
   0E97 F5 83              3116 	mov	dph,a
   0E99 22                 3117 	ret
                           3118 ;------------------------------------------------------------
                           3119 ;Allocation info for local variables in function 'psock_newdata'
                           3120 ;------------------------------------------------------------
                           3121 ;s                         Allocated to registers r5 r6 r7 
                           3122 ;------------------------------------------------------------
                           3123 ;	../../core/net/psock.c:243: psock_newdata(struct psock *s)
                           3124 ;	-----------------------------------------
                           3125 ;	 function psock_newdata
                           3126 ;	-----------------------------------------
   0E9A                    3127 _psock_newdata:
   0E9A AD 82              3128 	mov	r5,dpl
   0E9C AE 83              3129 	mov	r6,dph
   0E9E AF F0              3130 	mov	r7,b
                           3131 ;	../../core/net/psock.c:245: if(s->readlen > 0) {
   0EA0 74 0F              3132 	mov	a,#0x0F
   0EA2 2D                 3133 	add	a,r5
   0EA3 FA                 3134 	mov	r2,a
   0EA4 E4                 3135 	clr	a
   0EA5 3E                 3136 	addc	a,r6
   0EA6 FB                 3137 	mov	r3,a
   0EA7 8F 04              3138 	mov	ar4,r7
   0EA9 8A 82              3139 	mov	dpl,r2
   0EAB 8B 83              3140 	mov	dph,r3
   0EAD 8C F0              3141 	mov	b,r4
   0EAF 12s00r00           3142 	lcall	__gptrget
   0EB2 FA                 3143 	mov	r2,a
   0EB3 A3                 3144 	inc	dptr
   0EB4 12s00r00           3145 	lcall	__gptrget
   0EB7 FB                 3146 	mov	r3,a
   0EB8 4A                 3147 	orl	a,r2
   0EB9 60 04              3148 	jz	00108$
                           3149 ;	../../core/net/psock.c:248: return 1;
   0EBB 75 82 01           3150 	mov	dpl,#0x01
   0EBE 22                 3151 	ret
   0EBF                    3152 00108$:
                           3153 ;	../../core/net/psock.c:249: } else if(s->state == STATE_READ) {
   0EBF 74 18              3154 	mov	a,#0x18
   0EC1 2D                 3155 	add	a,r5
   0EC2 FD                 3156 	mov	r5,a
   0EC3 E4                 3157 	clr	a
   0EC4 3E                 3158 	addc	a,r6
   0EC5 FE                 3159 	mov	r6,a
   0EC6 8D 82              3160 	mov	dpl,r5
   0EC8 8E 83              3161 	mov	dph,r6
   0ECA 8F F0              3162 	mov	b,r7
   0ECC 12s00r00           3163 	lcall	__gptrget
   0ECF FC                 3164 	mov	r4,a
   0ED0 BC 02 0F           3165 	cjne	r4,#0x02,00105$
                           3166 ;	../../core/net/psock.c:251: s->state = STATE_BLOCKED_NEWDATA;
   0ED3 8D 82              3167 	mov	dpl,r5
   0ED5 8E 83              3168 	mov	dph,r6
   0ED7 8F F0              3169 	mov	b,r7
   0ED9 74 03              3170 	mov	a,#0x03
   0EDB 12s00r00           3171 	lcall	__gptrput
                           3172 ;	../../core/net/psock.c:252: return 0;
   0EDE 75 82 00           3173 	mov	dpl,#0x00
   0EE1 22                 3174 	ret
   0EE2                    3175 00105$:
                           3176 ;	../../core/net/psock.c:253: } else if(uip_newdata()) {
   0EE2 90s00r00           3177 	mov	dptr,#_uip_flags
   0EE5 E0                 3178 	movx	a,@dptr
   0EE6 FF                 3179 	mov	r7,a
   0EE7 30 E1 04           3180 	jnb	acc.1,00102$
                           3181 ;	../../core/net/psock.c:255: return 1;
   0EEA 75 82 01           3182 	mov	dpl,#0x01
   0EED 22                 3183 	ret
   0EEE                    3184 00102$:
                           3185 ;	../../core/net/psock.c:258: return 0;
   0EEE 75 82 00           3186 	mov	dpl,#0x00
   0EF1 22                 3187 	ret
                           3188 ;------------------------------------------------------------
                           3189 ;Allocation info for local variables in function 'psock_readto'
                           3190 ;------------------------------------------------------------
                           3191 ;c                         Allocated to stack - _bp -3
                           3192 ;psock                     Allocated to stack - _bp +1
                           3193 ;PT_YIELD_FLAG             Allocated to registers 
                           3194 ;sloc0                     Allocated to stack - _bp +4
                           3195 ;sloc1                     Allocated to stack - _bp +6
                           3196 ;------------------------------------------------------------
                           3197 ;	../../core/net/psock.c:262: PT_THREAD(psock_readto(CC_REGISTER_ARG struct psock *psock, unsigned char c))
                           3198 ;	-----------------------------------------
                           3199 ;	 function psock_readto
                           3200 ;	-----------------------------------------
   0EF2                    3201 _psock_readto:
   0EF2 C0*00              3202 	push	_bp
   0EF4 85 81*00           3203 	mov	_bp,sp
   0EF7 C0 82              3204 	push	dpl
   0EF9 C0 83              3205 	push	dph
   0EFB C0 F0              3206 	push	b
   0EFD E5 81              3207 	mov	a,sp
   0EFF 24 05              3208 	add	a,#0x05
   0F01 F5 81              3209 	mov	sp,a
                           3210 ;	../../core/net/psock.c:264: PT_BEGIN(&psock->psockpt);
   0F03 A8*00              3211 	mov	r0,_bp
   0F05 08                 3212 	inc	r0
   0F06 74 02              3213 	mov	a,#0x02
   0F08 26                 3214 	add	a,@r0
   0F09 FA                 3215 	mov	r2,a
   0F0A E4                 3216 	clr	a
   0F0B 08                 3217 	inc	r0
   0F0C 36                 3218 	addc	a,@r0
   0F0D FB                 3219 	mov	r3,a
   0F0E 08                 3220 	inc	r0
   0F0F 86 04              3221 	mov	ar4,@r0
   0F11 8A 82              3222 	mov	dpl,r2
   0F13 8B 83              3223 	mov	dph,r3
   0F15 8C F0              3224 	mov	b,r4
   0F17 12s00r00           3225 	lcall	__gptrget
   0F1A FB                 3226 	mov	r3,a
   0F1B A3                 3227 	inc	dptr
   0F1C 12s00r00           3228 	lcall	__gptrget
   0F1F FC                 3229 	mov	r4,a
   0F20 BB 00 05           3230 	cjne	r3,#0x00,00135$
   0F23 BC 00 02           3231 	cjne	r4,#0x00,00135$
   0F26 80 0C              3232 	sjmp	00101$
   0F28                    3233 00135$:
   0F28 BB 11 06           3234 	cjne	r3,#0x11,00136$
   0F2B BC 01 03           3235 	cjne	r4,#0x01,00136$
   0F2E 02s0FrEA           3236 	ljmp	00102$
   0F31                    3237 00136$:
   0F31 02s11r24           3238 	ljmp	00118$
   0F34                    3239 00101$:
                           3240 ;	../../core/net/psock.c:266: buf_setup(&psock->buf, psock->bufptr, psock->bufsize);
   0F34 A8*00              3241 	mov	r0,_bp
   0F36 08                 3242 	inc	r0
   0F37 74 16              3243 	mov	a,#0x16
   0F39 26                 3244 	add	a,@r0
   0F3A FA                 3245 	mov	r2,a
   0F3B E4                 3246 	clr	a
   0F3C 08                 3247 	inc	r0
   0F3D 36                 3248 	addc	a,@r0
   0F3E FB                 3249 	mov	r3,a
   0F3F 08                 3250 	inc	r0
   0F40 86 04              3251 	mov	ar4,@r0
   0F42 8A 82              3252 	mov	dpl,r2
   0F44 8B 83              3253 	mov	dph,r3
   0F46 8C F0              3254 	mov	b,r4
   0F48 E5*00              3255 	mov	a,_bp
   0F4A 24 04              3256 	add	a,#0x04
   0F4C F8                 3257 	mov	r0,a
   0F4D 12s00r00           3258 	lcall	__gptrget
   0F50 F6                 3259 	mov	@r0,a
   0F51 A3                 3260 	inc	dptr
   0F52 12s00r00           3261 	lcall	__gptrget
   0F55 08                 3262 	inc	r0
   0F56 F6                 3263 	mov	@r0,a
   0F57 A8*00              3264 	mov	r0,_bp
   0F59 08                 3265 	inc	r0
   0F5A 74 0A              3266 	mov	a,#0x0A
   0F5C 26                 3267 	add	a,@r0
   0F5D FC                 3268 	mov	r4,a
   0F5E E4                 3269 	clr	a
   0F5F 08                 3270 	inc	r0
   0F60 36                 3271 	addc	a,@r0
   0F61 FE                 3272 	mov	r6,a
   0F62 08                 3273 	inc	r0
   0F63 86 07              3274 	mov	ar7,@r0
   0F65 8C 82              3275 	mov	dpl,r4
   0F67 8E 83              3276 	mov	dph,r6
   0F69 8F F0              3277 	mov	b,r7
   0F6B 12s00r00           3278 	lcall	__gptrget
   0F6E FC                 3279 	mov	r4,a
   0F6F A3                 3280 	inc	dptr
   0F70 12s00r00           3281 	lcall	__gptrget
   0F73 FE                 3282 	mov	r6,a
   0F74 A3                 3283 	inc	dptr
   0F75 12s00r00           3284 	lcall	__gptrget
   0F78 FF                 3285 	mov	r7,a
   0F79 A8*00              3286 	mov	r0,_bp
   0F7B 08                 3287 	inc	r0
   0F7C 74 11              3288 	mov	a,#0x11
   0F7E 26                 3289 	add	a,@r0
   0F7F FA                 3290 	mov	r2,a
   0F80 E4                 3291 	clr	a
   0F81 08                 3292 	inc	r0
   0F82 36                 3293 	addc	a,@r0
   0F83 FB                 3294 	mov	r3,a
   0F84 08                 3295 	inc	r0
   0F85 86 05              3296 	mov	ar5,@r0
   0F87 E5*00              3297 	mov	a,_bp
   0F89 24 04              3298 	add	a,#0x04
   0F8B F8                 3299 	mov	r0,a
   0F8C E6                 3300 	mov	a,@r0
   0F8D C0 E0              3301 	push	acc
   0F8F 08                 3302 	inc	r0
   0F90 E6                 3303 	mov	a,@r0
   0F91 C0 E0              3304 	push	acc
   0F93 C0 04              3305 	push	ar4
   0F95 C0 06              3306 	push	ar6
   0F97 C0 07              3307 	push	ar7
   0F99 8A 82              3308 	mov	dpl,r2
   0F9B 8B 83              3309 	mov	dph,r3
   0F9D 8D F0              3310 	mov	b,r5
   0F9F 12s00r00           3311 	lcall	_buf_setup
   0FA2 E5 81              3312 	mov	a,sp
   0FA4 24 FB              3313 	add	a,#0xfb
   0FA6 F5 81              3314 	mov	sp,a
                           3315 ;	../../core/net/psock.c:271: do {
   0FA8                    3316 00110$:
                           3317 ;	../../core/net/psock.c:272: if(psock->readlen == 0) {
   0FA8 A8*00              3318 	mov	r0,_bp
   0FAA 08                 3319 	inc	r0
   0FAB 74 0F              3320 	mov	a,#0x0F
   0FAD 26                 3321 	add	a,@r0
   0FAE FD                 3322 	mov	r5,a
   0FAF E4                 3323 	clr	a
   0FB0 08                 3324 	inc	r0
   0FB1 36                 3325 	addc	a,@r0
   0FB2 FE                 3326 	mov	r6,a
   0FB3 08                 3327 	inc	r0
   0FB4 86 07              3328 	mov	ar7,@r0
   0FB6 8D 82              3329 	mov	dpl,r5
   0FB8 8E 83              3330 	mov	dph,r6
   0FBA 8F F0              3331 	mov	b,r7
   0FBC 12s00r00           3332 	lcall	__gptrget
   0FBF FD                 3333 	mov	r5,a
   0FC0 A3                 3334 	inc	dptr
   0FC1 12s00r00           3335 	lcall	__gptrget
   0FC4 FE                 3336 	mov	r6,a
   0FC5 4D                 3337 	orl	a,r5
   0FC6 60 03              3338 	jz	00137$
   0FC8 02s10r6C           3339 	ljmp	00111$
   0FCB                    3340 00137$:
                           3341 ;	../../core/net/psock.c:273: PT_WAIT_UNTIL(&psock->psockpt, psock_newdata(psock));
   0FCB A8*00              3342 	mov	r0,_bp
   0FCD 08                 3343 	inc	r0
   0FCE 74 02              3344 	mov	a,#0x02
   0FD0 26                 3345 	add	a,@r0
   0FD1 FD                 3346 	mov	r5,a
   0FD2 E4                 3347 	clr	a
   0FD3 08                 3348 	inc	r0
   0FD4 36                 3349 	addc	a,@r0
   0FD5 FE                 3350 	mov	r6,a
   0FD6 08                 3351 	inc	r0
   0FD7 86 07              3352 	mov	ar7,@r0
   0FD9 8D 82              3353 	mov	dpl,r5
   0FDB 8E 83              3354 	mov	dph,r6
   0FDD 8F F0              3355 	mov	b,r7
   0FDF 74 11              3356 	mov	a,#0x11
   0FE1 12s00r00           3357 	lcall	__gptrput
   0FE4 A3                 3358 	inc	dptr
   0FE5 74 01              3359 	mov	a,#0x01
   0FE7 12s00r00           3360 	lcall	__gptrput
   0FEA                    3361 00102$:
   0FEA A8*00              3362 	mov	r0,_bp
   0FEC 08                 3363 	inc	r0
   0FED 86 82              3364 	mov	dpl,@r0
   0FEF 08                 3365 	inc	r0
   0FF0 86 83              3366 	mov	dph,@r0
   0FF2 08                 3367 	inc	r0
   0FF3 86 F0              3368 	mov	b,@r0
   0FF5 12s0Er9A           3369 	lcall	_psock_newdata
   0FF8 E5 82              3370 	mov	a,dpl
   0FFA 70 05              3371 	jnz	00106$
   0FFC F5 82              3372 	mov	dpl,a
   0FFE 02s11r44           3373 	ljmp	00119$
   1001                    3374 00106$:
                           3375 ;	../../core/net/psock.c:274: psock->state = STATE_READ;
   1001 A8*00              3376 	mov	r0,_bp
   1003 08                 3377 	inc	r0
   1004 74 18              3378 	mov	a,#0x18
   1006 26                 3379 	add	a,@r0
   1007 FD                 3380 	mov	r5,a
   1008 E4                 3381 	clr	a
   1009 08                 3382 	inc	r0
   100A 36                 3383 	addc	a,@r0
   100B FE                 3384 	mov	r6,a
   100C 08                 3385 	inc	r0
   100D 86 07              3386 	mov	ar7,@r0
   100F 8D 82              3387 	mov	dpl,r5
   1011 8E 83              3388 	mov	dph,r6
   1013 8F F0              3389 	mov	b,r7
   1015 74 02              3390 	mov	a,#0x02
   1017 12s00r00           3391 	lcall	__gptrput
                           3392 ;	../../core/net/psock.c:275: psock->readptr = (uint8_t *)uip_appdata;
   101A A8*00              3393 	mov	r0,_bp
   101C 08                 3394 	inc	r0
   101D 74 07              3395 	mov	a,#0x07
   101F 26                 3396 	add	a,@r0
   1020 FD                 3397 	mov	r5,a
   1021 E4                 3398 	clr	a
   1022 08                 3399 	inc	r0
   1023 36                 3400 	addc	a,@r0
   1024 FE                 3401 	mov	r6,a
   1025 08                 3402 	inc	r0
   1026 86 07              3403 	mov	ar7,@r0
   1028 90s00r00           3404 	mov	dptr,#_uip_appdata
   102B E0                 3405 	movx	a,@dptr
   102C FA                 3406 	mov	r2,a
   102D A3                 3407 	inc	dptr
   102E E0                 3408 	movx	a,@dptr
   102F FB                 3409 	mov	r3,a
   1030 A3                 3410 	inc	dptr
   1031 E0                 3411 	movx	a,@dptr
   1032 FC                 3412 	mov	r4,a
   1033 8D 82              3413 	mov	dpl,r5
   1035 8E 83              3414 	mov	dph,r6
   1037 8F F0              3415 	mov	b,r7
   1039 EA                 3416 	mov	a,r2
   103A 12s00r00           3417 	lcall	__gptrput
   103D A3                 3418 	inc	dptr
   103E EB                 3419 	mov	a,r3
   103F 12s00r00           3420 	lcall	__gptrput
   1042 A3                 3421 	inc	dptr
   1043 EC                 3422 	mov	a,r4
   1044 12s00r00           3423 	lcall	__gptrput
                           3424 ;	../../core/net/psock.c:276: psock->readlen = uip_datalen();
   1047 A8*00              3425 	mov	r0,_bp
   1049 08                 3426 	inc	r0
   104A 74 0F              3427 	mov	a,#0x0F
   104C 26                 3428 	add	a,@r0
   104D FD                 3429 	mov	r5,a
   104E E4                 3430 	clr	a
   104F 08                 3431 	inc	r0
   1050 36                 3432 	addc	a,@r0
   1051 FE                 3433 	mov	r6,a
   1052 08                 3434 	inc	r0
   1053 86 07              3435 	mov	ar7,@r0
   1055 90s00r00           3436 	mov	dptr,#_uip_len
   1058 E0                 3437 	movx	a,@dptr
   1059 FB                 3438 	mov	r3,a
   105A A3                 3439 	inc	dptr
   105B E0                 3440 	movx	a,@dptr
   105C FC                 3441 	mov	r4,a
   105D 8D 82              3442 	mov	dpl,r5
   105F 8E 83              3443 	mov	dph,r6
   1061 8F F0              3444 	mov	b,r7
   1063 EB                 3445 	mov	a,r3
   1064 12s00r00           3446 	lcall	__gptrput
   1067 A3                 3447 	inc	dptr
   1068 EC                 3448 	mov	a,r4
   1069 12s00r00           3449 	lcall	__gptrput
   106C                    3450 00111$:
                           3451 ;	../../core/net/psock.c:280: &psock->readlen) & BUF_FOUND) == 0);
   106C A8*00              3452 	mov	r0,_bp
   106E 08                 3453 	inc	r0
   106F 74 0F              3454 	mov	a,#0x0F
   1071 26                 3455 	add	a,@r0
   1072 FD                 3456 	mov	r5,a
   1073 E4                 3457 	clr	a
   1074 08                 3458 	inc	r0
   1075 36                 3459 	addc	a,@r0
   1076 FE                 3460 	mov	r6,a
   1077 08                 3461 	inc	r0
   1078 86 07              3462 	mov	ar7,@r0
                           3463 ;	../../core/net/psock.c:279: &psock->readptr,
   107A A8*00              3464 	mov	r0,_bp
   107C 08                 3465 	inc	r0
   107D E5*00              3466 	mov	a,_bp
   107F 24 06              3467 	add	a,#0x06
   1081 F9                 3468 	mov	r1,a
   1082 74 07              3469 	mov	a,#0x07
   1084 26                 3470 	add	a,@r0
   1085 F7                 3471 	mov	@r1,a
   1086 E4                 3472 	clr	a
   1087 08                 3473 	inc	r0
   1088 36                 3474 	addc	a,@r0
   1089 09                 3475 	inc	r1
   108A F7                 3476 	mov	@r1,a
   108B 08                 3477 	inc	r0
   108C 09                 3478 	inc	r1
   108D E6                 3479 	mov	a,@r0
   108E F7                 3480 	mov	@r1,a
                           3481 ;	../../core/net/psock.c:278: } while((buf_bufto(&psock->buf, c,
   108F A8*00              3482 	mov	r0,_bp
   1091 08                 3483 	inc	r0
   1092 74 11              3484 	mov	a,#0x11
   1094 26                 3485 	add	a,@r0
   1095 FA                 3486 	mov	r2,a
   1096 E4                 3487 	clr	a
   1097 08                 3488 	inc	r0
   1098 36                 3489 	addc	a,@r0
   1099 FB                 3490 	mov	r3,a
   109A 08                 3491 	inc	r0
   109B 86 04              3492 	mov	ar4,@r0
   109D C0 05              3493 	push	ar5
   109F C0 06              3494 	push	ar6
   10A1 C0 07              3495 	push	ar7
   10A3 E5*00              3496 	mov	a,_bp
   10A5 24 06              3497 	add	a,#0x06
   10A7 F8                 3498 	mov	r0,a
   10A8 E6                 3499 	mov	a,@r0
   10A9 C0 E0              3500 	push	acc
   10AB 08                 3501 	inc	r0
   10AC E6                 3502 	mov	a,@r0
   10AD C0 E0              3503 	push	acc
   10AF 08                 3504 	inc	r0
   10B0 E6                 3505 	mov	a,@r0
   10B1 C0 E0              3506 	push	acc
   10B3 E5*00              3507 	mov	a,_bp
   10B5 24 FD              3508 	add	a,#0xfd
   10B7 F8                 3509 	mov	r0,a
   10B8 E6                 3510 	mov	a,@r0
   10B9 C0 E0              3511 	push	acc
   10BB 8A 82              3512 	mov	dpl,r2
   10BD 8B 83              3513 	mov	dph,r3
   10BF 8C F0              3514 	mov	b,r4
   10C1 12s05r03           3515 	lcall	_buf_bufto
   10C4 AF 82              3516 	mov	r7,dpl
   10C6 E5 81              3517 	mov	a,sp
   10C8 24 F9              3518 	add	a,#0xf9
   10CA F5 81              3519 	mov	sp,a
   10CC EF                 3520 	mov	a,r7
   10CD 20 E1 03           3521 	jb	acc.1,00139$
   10D0 02s0FrA8           3522 	ljmp	00110$
   10D3                    3523 00139$:
                           3524 ;	../../core/net/psock.c:282: if(psock_datalen(psock) == 0) {
   10D3 A8*00              3525 	mov	r0,_bp
   10D5 08                 3526 	inc	r0
   10D6 86 82              3527 	mov	dpl,@r0
   10D8 08                 3528 	inc	r0
   10D9 86 83              3529 	mov	dph,@r0
   10DB 08                 3530 	inc	r0
   10DC 86 F0              3531 	mov	b,@r0
   10DE 12s0Er54           3532 	lcall	_psock_datalen
   10E1 E5 82              3533 	mov	a,dpl
   10E3 85 83 F0           3534 	mov	b,dph
   10E6 45 F0              3535 	orl	a,b
   10E8 70 3A              3536 	jnz	00118$
                           3537 ;	../../core/net/psock.c:283: psock->state = STATE_NONE;
   10EA A8*00              3538 	mov	r0,_bp
   10EC 08                 3539 	inc	r0
   10ED 74 18              3540 	mov	a,#0x18
   10EF 26                 3541 	add	a,@r0
   10F0 FD                 3542 	mov	r5,a
   10F1 E4                 3543 	clr	a
   10F2 08                 3544 	inc	r0
   10F3 36                 3545 	addc	a,@r0
   10F4 FE                 3546 	mov	r6,a
   10F5 08                 3547 	inc	r0
   10F6 86 07              3548 	mov	ar7,@r0
   10F8 8D 82              3549 	mov	dpl,r5
   10FA 8E 83              3550 	mov	dph,r6
   10FC 8F F0              3551 	mov	b,r7
   10FE E4                 3552 	clr	a
   10FF 12s00r00           3553 	lcall	__gptrput
                           3554 ;	../../core/net/psock.c:284: PT_RESTART(&psock->psockpt);
   1102 A8*00              3555 	mov	r0,_bp
   1104 08                 3556 	inc	r0
   1105 74 02              3557 	mov	a,#0x02
   1107 26                 3558 	add	a,@r0
   1108 FD                 3559 	mov	r5,a
   1109 E4                 3560 	clr	a
   110A 08                 3561 	inc	r0
   110B 36                 3562 	addc	a,@r0
   110C FE                 3563 	mov	r6,a
   110D 08                 3564 	inc	r0
   110E 86 07              3565 	mov	ar7,@r0
   1110 8D 82              3566 	mov	dpl,r5
   1112 8E 83              3567 	mov	dph,r6
   1114 8F F0              3568 	mov	b,r7
   1116 E4                 3569 	clr	a
   1117 12s00r00           3570 	lcall	__gptrput
   111A A3                 3571 	inc	dptr
   111B E4                 3572 	clr	a
   111C 12s00r00           3573 	lcall	__gptrput
   111F 75 82 00           3574 	mov	dpl,#0x00
                           3575 ;	../../core/net/psock.c:286: PT_END(&psock->psockpt);
   1122 80 20              3576 	sjmp	00119$
   1124                    3577 00118$:
   1124 A8*00              3578 	mov	r0,_bp
   1126 08                 3579 	inc	r0
   1127 74 02              3580 	mov	a,#0x02
   1129 26                 3581 	add	a,@r0
   112A FD                 3582 	mov	r5,a
   112B E4                 3583 	clr	a
   112C 08                 3584 	inc	r0
   112D 36                 3585 	addc	a,@r0
   112E FE                 3586 	mov	r6,a
   112F 08                 3587 	inc	r0
   1130 86 07              3588 	mov	ar7,@r0
   1132 8D 82              3589 	mov	dpl,r5
   1134 8E 83              3590 	mov	dph,r6
   1136 8F F0              3591 	mov	b,r7
   1138 E4                 3592 	clr	a
   1139 12s00r00           3593 	lcall	__gptrput
   113C A3                 3594 	inc	dptr
   113D E4                 3595 	clr	a
   113E 12s00r00           3596 	lcall	__gptrput
   1141 75 82 03           3597 	mov	dpl,#0x03
   1144                    3598 00119$:
   1144 85*00 81           3599 	mov	sp,_bp
   1147 D0*00              3600 	pop	_bp
   1149 22                 3601 	ret
                           3602 ;------------------------------------------------------------
                           3603 ;Allocation info for local variables in function 'psock_readbuf_len'
                           3604 ;------------------------------------------------------------
                           3605 ;len                       Allocated to stack - _bp -4
                           3606 ;psock                     Allocated to stack - _bp +1
                           3607 ;PT_YIELD_FLAG             Allocated to registers 
                           3608 ;sloc0                     Allocated to stack - _bp +4
                           3609 ;sloc1                     Allocated to stack - _bp +6
                           3610 ;------------------------------------------------------------
                           3611 ;	../../core/net/psock.c:289: PT_THREAD(psock_readbuf_len(CC_REGISTER_ARG struct psock *psock, uint16_t len))
                           3612 ;	-----------------------------------------
                           3613 ;	 function psock_readbuf_len
                           3614 ;	-----------------------------------------
   114A                    3615 _psock_readbuf_len:
   114A C0*00              3616 	push	_bp
   114C 85 81*00           3617 	mov	_bp,sp
   114F C0 82              3618 	push	dpl
   1151 C0 83              3619 	push	dph
   1153 C0 F0              3620 	push	b
   1155 E5 81              3621 	mov	a,sp
   1157 24 05              3622 	add	a,#0x05
   1159 F5 81              3623 	mov	sp,a
                           3624 ;	../../core/net/psock.c:291: PT_BEGIN(&psock->psockpt);
   115B A8*00              3625 	mov	r0,_bp
   115D 08                 3626 	inc	r0
   115E 74 02              3627 	mov	a,#0x02
   1160 26                 3628 	add	a,@r0
   1161 FA                 3629 	mov	r2,a
   1162 E4                 3630 	clr	a
   1163 08                 3631 	inc	r0
   1164 36                 3632 	addc	a,@r0
   1165 FB                 3633 	mov	r3,a
   1166 08                 3634 	inc	r0
   1167 86 04              3635 	mov	ar4,@r0
   1169 8A 82              3636 	mov	dpl,r2
   116B 8B 83              3637 	mov	dph,r3
   116D 8C F0              3638 	mov	b,r4
   116F 12s00r00           3639 	lcall	__gptrget
   1172 FB                 3640 	mov	r3,a
   1173 A3                 3641 	inc	dptr
   1174 12s00r00           3642 	lcall	__gptrget
   1177 FC                 3643 	mov	r4,a
   1178 BB 00 05           3644 	cjne	r3,#0x00,00136$
   117B BC 00 02           3645 	cjne	r4,#0x00,00136$
   117E 80 0C              3646 	sjmp	00101$
   1180                    3647 00136$:
   1180 BB 2D 06           3648 	cjne	r3,#0x2D,00137$
   1183 BC 01 03           3649 	cjne	r4,#0x01,00137$
   1186 02s12r42           3650 	ljmp	00102$
   1189                    3651 00137$:
   1189 02s13rC1           3652 	ljmp	00119$
   118C                    3653 00101$:
                           3654 ;	../../core/net/psock.c:293: buf_setup(&psock->buf, psock->bufptr, psock->bufsize);
   118C A8*00              3655 	mov	r0,_bp
   118E 08                 3656 	inc	r0
   118F 74 16              3657 	mov	a,#0x16
   1191 26                 3658 	add	a,@r0
   1192 FA                 3659 	mov	r2,a
   1193 E4                 3660 	clr	a
   1194 08                 3661 	inc	r0
   1195 36                 3662 	addc	a,@r0
   1196 FB                 3663 	mov	r3,a
   1197 08                 3664 	inc	r0
   1198 86 04              3665 	mov	ar4,@r0
   119A 8A 82              3666 	mov	dpl,r2
   119C 8B 83              3667 	mov	dph,r3
   119E 8C F0              3668 	mov	b,r4
   11A0 E5*00              3669 	mov	a,_bp
   11A2 24 04              3670 	add	a,#0x04
   11A4 F8                 3671 	mov	r0,a
   11A5 12s00r00           3672 	lcall	__gptrget
   11A8 F6                 3673 	mov	@r0,a
   11A9 A3                 3674 	inc	dptr
   11AA 12s00r00           3675 	lcall	__gptrget
   11AD 08                 3676 	inc	r0
   11AE F6                 3677 	mov	@r0,a
   11AF A8*00              3678 	mov	r0,_bp
   11B1 08                 3679 	inc	r0
   11B2 74 0A              3680 	mov	a,#0x0A
   11B4 26                 3681 	add	a,@r0
   11B5 FC                 3682 	mov	r4,a
   11B6 E4                 3683 	clr	a
   11B7 08                 3684 	inc	r0
   11B8 36                 3685 	addc	a,@r0
   11B9 FE                 3686 	mov	r6,a
   11BA 08                 3687 	inc	r0
   11BB 86 07              3688 	mov	ar7,@r0
   11BD 8C 82              3689 	mov	dpl,r4
   11BF 8E 83              3690 	mov	dph,r6
   11C1 8F F0              3691 	mov	b,r7
   11C3 12s00r00           3692 	lcall	__gptrget
   11C6 FC                 3693 	mov	r4,a
   11C7 A3                 3694 	inc	dptr
   11C8 12s00r00           3695 	lcall	__gptrget
   11CB FE                 3696 	mov	r6,a
   11CC A3                 3697 	inc	dptr
   11CD 12s00r00           3698 	lcall	__gptrget
   11D0 FF                 3699 	mov	r7,a
   11D1 A8*00              3700 	mov	r0,_bp
   11D3 08                 3701 	inc	r0
   11D4 74 11              3702 	mov	a,#0x11
   11D6 26                 3703 	add	a,@r0
   11D7 FA                 3704 	mov	r2,a
   11D8 E4                 3705 	clr	a
   11D9 08                 3706 	inc	r0
   11DA 36                 3707 	addc	a,@r0
   11DB FB                 3708 	mov	r3,a
   11DC 08                 3709 	inc	r0
   11DD 86 05              3710 	mov	ar5,@r0
   11DF E5*00              3711 	mov	a,_bp
   11E1 24 04              3712 	add	a,#0x04
   11E3 F8                 3713 	mov	r0,a
   11E4 E6                 3714 	mov	a,@r0
   11E5 C0 E0              3715 	push	acc
   11E7 08                 3716 	inc	r0
   11E8 E6                 3717 	mov	a,@r0
   11E9 C0 E0              3718 	push	acc
   11EB C0 04              3719 	push	ar4
   11ED C0 06              3720 	push	ar6
   11EF C0 07              3721 	push	ar7
   11F1 8A 82              3722 	mov	dpl,r2
   11F3 8B 83              3723 	mov	dph,r3
   11F5 8D F0              3724 	mov	b,r5
   11F7 12s00r00           3725 	lcall	_buf_setup
   11FA E5 81              3726 	mov	a,sp
   11FC 24 FB              3727 	add	a,#0xfb
   11FE F5 81              3728 	mov	sp,a
                           3729 ;	../../core/net/psock.c:299: do {
   1200                    3730 00111$:
                           3731 ;	../../core/net/psock.c:300: if(psock->readlen == 0) {
   1200 A8*00              3732 	mov	r0,_bp
   1202 08                 3733 	inc	r0
   1203 74 0F              3734 	mov	a,#0x0F
   1205 26                 3735 	add	a,@r0
   1206 FD                 3736 	mov	r5,a
   1207 E4                 3737 	clr	a
   1208 08                 3738 	inc	r0
   1209 36                 3739 	addc	a,@r0
   120A FE                 3740 	mov	r6,a
   120B 08                 3741 	inc	r0
   120C 86 07              3742 	mov	ar7,@r0
   120E 8D 82              3743 	mov	dpl,r5
   1210 8E 83              3744 	mov	dph,r6
   1212 8F F0              3745 	mov	b,r7
   1214 12s00r00           3746 	lcall	__gptrget
   1217 FD                 3747 	mov	r5,a
   1218 A3                 3748 	inc	dptr
   1219 12s00r00           3749 	lcall	__gptrget
   121C FE                 3750 	mov	r6,a
   121D 4D                 3751 	orl	a,r5
   121E 60 03              3752 	jz	00138$
   1220 02s12rC4           3753 	ljmp	00112$
   1223                    3754 00138$:
                           3755 ;	../../core/net/psock.c:301: PT_WAIT_UNTIL(&psock->psockpt, psock_newdata(psock));
   1223 A8*00              3756 	mov	r0,_bp
   1225 08                 3757 	inc	r0
   1226 74 02              3758 	mov	a,#0x02
   1228 26                 3759 	add	a,@r0
   1229 FD                 3760 	mov	r5,a
   122A E4                 3761 	clr	a
   122B 08                 3762 	inc	r0
   122C 36                 3763 	addc	a,@r0
   122D FE                 3764 	mov	r6,a
   122E 08                 3765 	inc	r0
   122F 86 07              3766 	mov	ar7,@r0
   1231 8D 82              3767 	mov	dpl,r5
   1233 8E 83              3768 	mov	dph,r6
   1235 8F F0              3769 	mov	b,r7
   1237 74 2D              3770 	mov	a,#0x2D
   1239 12s00r00           3771 	lcall	__gptrput
   123C A3                 3772 	inc	dptr
   123D 74 01              3773 	mov	a,#0x01
   123F 12s00r00           3774 	lcall	__gptrput
   1242                    3775 00102$:
   1242 A8*00              3776 	mov	r0,_bp
   1244 08                 3777 	inc	r0
   1245 86 82              3778 	mov	dpl,@r0
   1247 08                 3779 	inc	r0
   1248 86 83              3780 	mov	dph,@r0
   124A 08                 3781 	inc	r0
   124B 86 F0              3782 	mov	b,@r0
   124D 12s0Er9A           3783 	lcall	_psock_newdata
   1250 E5 82              3784 	mov	a,dpl
   1252 70 05              3785 	jnz	00106$
   1254 F5 82              3786 	mov	dpl,a
   1256 02s13rE1           3787 	ljmp	00120$
   1259                    3788 00106$:
                           3789 ;	../../core/net/psock.c:302: psock->state = STATE_READ;
   1259 A8*00              3790 	mov	r0,_bp
   125B 08                 3791 	inc	r0
   125C 74 18              3792 	mov	a,#0x18
   125E 26                 3793 	add	a,@r0
   125F FD                 3794 	mov	r5,a
   1260 E4                 3795 	clr	a
   1261 08                 3796 	inc	r0
   1262 36                 3797 	addc	a,@r0
   1263 FE                 3798 	mov	r6,a
   1264 08                 3799 	inc	r0
   1265 86 07              3800 	mov	ar7,@r0
   1267 8D 82              3801 	mov	dpl,r5
   1269 8E 83              3802 	mov	dph,r6
   126B 8F F0              3803 	mov	b,r7
   126D 74 02              3804 	mov	a,#0x02
   126F 12s00r00           3805 	lcall	__gptrput
                           3806 ;	../../core/net/psock.c:303: psock->readptr = (uint8_t *)uip_appdata;
   1272 A8*00              3807 	mov	r0,_bp
   1274 08                 3808 	inc	r0
   1275 74 07              3809 	mov	a,#0x07
   1277 26                 3810 	add	a,@r0
   1278 FD                 3811 	mov	r5,a
   1279 E4                 3812 	clr	a
   127A 08                 3813 	inc	r0
   127B 36                 3814 	addc	a,@r0
   127C FE                 3815 	mov	r6,a
   127D 08                 3816 	inc	r0
   127E 86 07              3817 	mov	ar7,@r0
   1280 90s00r00           3818 	mov	dptr,#_uip_appdata
   1283 E0                 3819 	movx	a,@dptr
   1284 FA                 3820 	mov	r2,a
   1285 A3                 3821 	inc	dptr
   1286 E0                 3822 	movx	a,@dptr
   1287 FB                 3823 	mov	r3,a
   1288 A3                 3824 	inc	dptr
   1289 E0                 3825 	movx	a,@dptr
   128A FC                 3826 	mov	r4,a
   128B 8D 82              3827 	mov	dpl,r5
   128D 8E 83              3828 	mov	dph,r6
   128F 8F F0              3829 	mov	b,r7
   1291 EA                 3830 	mov	a,r2
   1292 12s00r00           3831 	lcall	__gptrput
   1295 A3                 3832 	inc	dptr
   1296 EB                 3833 	mov	a,r3
   1297 12s00r00           3834 	lcall	__gptrput
   129A A3                 3835 	inc	dptr
   129B EC                 3836 	mov	a,r4
   129C 12s00r00           3837 	lcall	__gptrput
                           3838 ;	../../core/net/psock.c:304: psock->readlen = uip_datalen();
   129F A8*00              3839 	mov	r0,_bp
   12A1 08                 3840 	inc	r0
   12A2 74 0F              3841 	mov	a,#0x0F
   12A4 26                 3842 	add	a,@r0
   12A5 FD                 3843 	mov	r5,a
   12A6 E4                 3844 	clr	a
   12A7 08                 3845 	inc	r0
   12A8 36                 3846 	addc	a,@r0
   12A9 FE                 3847 	mov	r6,a
   12AA 08                 3848 	inc	r0
   12AB 86 07              3849 	mov	ar7,@r0
   12AD 90s00r00           3850 	mov	dptr,#_uip_len
   12B0 E0                 3851 	movx	a,@dptr
   12B1 FB                 3852 	mov	r3,a
   12B2 A3                 3853 	inc	dptr
   12B3 E0                 3854 	movx	a,@dptr
   12B4 FC                 3855 	mov	r4,a
   12B5 8D 82              3856 	mov	dpl,r5
   12B7 8E 83              3857 	mov	dph,r6
   12B9 8F F0              3858 	mov	b,r7
   12BB EB                 3859 	mov	a,r3
   12BC 12s00r00           3860 	lcall	__gptrput
   12BF A3                 3861 	inc	dptr
   12C0 EC                 3862 	mov	a,r4
   12C1 12s00r00           3863 	lcall	__gptrput
   12C4                    3864 00112$:
                           3865 ;	../../core/net/psock.c:307: &psock->readptr, &psock->readlen) == BUF_NOT_FULL &&
   12C4 A8*00              3866 	mov	r0,_bp
   12C6 08                 3867 	inc	r0
   12C7 74 0F              3868 	mov	a,#0x0F
   12C9 26                 3869 	add	a,@r0
   12CA FD                 3870 	mov	r5,a
   12CB E4                 3871 	clr	a
   12CC 08                 3872 	inc	r0
   12CD 36                 3873 	addc	a,@r0
   12CE FE                 3874 	mov	r6,a
   12CF 08                 3875 	inc	r0
   12D0 86 07              3876 	mov	ar7,@r0
   12D2 A8*00              3877 	mov	r0,_bp
   12D4 08                 3878 	inc	r0
   12D5 E5*00              3879 	mov	a,_bp
   12D7 24 06              3880 	add	a,#0x06
   12D9 F9                 3881 	mov	r1,a
   12DA 74 07              3882 	mov	a,#0x07
   12DC 26                 3883 	add	a,@r0
   12DD F7                 3884 	mov	@r1,a
   12DE E4                 3885 	clr	a
   12DF 08                 3886 	inc	r0
   12E0 36                 3887 	addc	a,@r0
   12E1 09                 3888 	inc	r1
   12E2 F7                 3889 	mov	@r1,a
   12E3 08                 3890 	inc	r0
   12E4 09                 3891 	inc	r1
   12E5 E6                 3892 	mov	a,@r0
   12E6 F7                 3893 	mov	@r1,a
                           3894 ;	../../core/net/psock.c:306: } while(buf_bufdata(&psock->buf, psock->bufsize,
   12E7 A8*00              3895 	mov	r0,_bp
   12E9 08                 3896 	inc	r0
   12EA 74 16              3897 	mov	a,#0x16
   12EC 26                 3898 	add	a,@r0
   12ED FA                 3899 	mov	r2,a
   12EE E4                 3900 	clr	a
   12EF 08                 3901 	inc	r0
   12F0 36                 3902 	addc	a,@r0
   12F1 FB                 3903 	mov	r3,a
   12F2 08                 3904 	inc	r0
   12F3 86 04              3905 	mov	ar4,@r0
   12F5 8A 82              3906 	mov	dpl,r2
   12F7 8B 83              3907 	mov	dph,r3
   12F9 8C F0              3908 	mov	b,r4
   12FB E5*00              3909 	mov	a,_bp
   12FD 24 04              3910 	add	a,#0x04
   12FF F8                 3911 	mov	r0,a
   1300 12s00r00           3912 	lcall	__gptrget
   1303 F6                 3913 	mov	@r0,a
   1304 A3                 3914 	inc	dptr
   1305 12s00r00           3915 	lcall	__gptrget
   1308 08                 3916 	inc	r0
   1309 F6                 3917 	mov	@r0,a
   130A A8*00              3918 	mov	r0,_bp
   130C 08                 3919 	inc	r0
   130D 74 11              3920 	mov	a,#0x11
   130F 26                 3921 	add	a,@r0
   1310 FA                 3922 	mov	r2,a
   1311 E4                 3923 	clr	a
   1312 08                 3924 	inc	r0
   1313 36                 3925 	addc	a,@r0
   1314 FB                 3926 	mov	r3,a
   1315 08                 3927 	inc	r0
   1316 86 04              3928 	mov	ar4,@r0
   1318 C0 05              3929 	push	ar5
   131A C0 06              3930 	push	ar6
   131C C0 07              3931 	push	ar7
   131E E5*00              3932 	mov	a,_bp
   1320 24 06              3933 	add	a,#0x06
   1322 F8                 3934 	mov	r0,a
   1323 E6                 3935 	mov	a,@r0
   1324 C0 E0              3936 	push	acc
   1326 08                 3937 	inc	r0
   1327 E6                 3938 	mov	a,@r0
   1328 C0 E0              3939 	push	acc
   132A 08                 3940 	inc	r0
   132B E6                 3941 	mov	a,@r0
   132C C0 E0              3942 	push	acc
   132E E5*00              3943 	mov	a,_bp
   1330 24 04              3944 	add	a,#0x04
   1332 F8                 3945 	mov	r0,a
   1333 E6                 3946 	mov	a,@r0
   1334 C0 E0              3947 	push	acc
   1336 08                 3948 	inc	r0
   1337 E6                 3949 	mov	a,@r0
   1338 C0 E0              3950 	push	acc
   133A 8A 82              3951 	mov	dpl,r2
   133C 8B 83              3952 	mov	dph,r3
   133E 8C F0              3953 	mov	b,r4
   1340 12s00r3F           3954 	lcall	_buf_bufdata
   1343 AF 82              3955 	mov	r7,dpl
   1345 E5 81              3956 	mov	a,sp
   1347 24 F8              3957 	add	a,#0xf8
   1349 F5 81              3958 	mov	sp,a
   134B EF                 3959 	mov	a,r7
   134C 70 22              3960 	jnz	00113$
                           3961 ;	../../core/net/psock.c:308: psock_datalen(psock) < len);
   134E A8*00              3962 	mov	r0,_bp
   1350 08                 3963 	inc	r0
   1351 86 82              3964 	mov	dpl,@r0
   1353 08                 3965 	inc	r0
   1354 86 83              3966 	mov	dph,@r0
   1356 08                 3967 	inc	r0
   1357 86 F0              3968 	mov	b,@r0
   1359 12s0Er54           3969 	lcall	_psock_datalen
   135C AE 82              3970 	mov	r6,dpl
   135E AF 83              3971 	mov	r7,dph
   1360 E5*00              3972 	mov	a,_bp
   1362 24 FC              3973 	add	a,#0xfc
   1364 F8                 3974 	mov	r0,a
   1365 C3                 3975 	clr	c
   1366 EE                 3976 	mov	a,r6
   1367 96                 3977 	subb	a,@r0
   1368 EF                 3978 	mov	a,r7
   1369 08                 3979 	inc	r0
   136A 96                 3980 	subb	a,@r0
   136B 50 03              3981 	jnc	00141$
   136D 02s12r00           3982 	ljmp	00111$
   1370                    3983 00141$:
   1370                    3984 00113$:
                           3985 ;	../../core/net/psock.c:310: if(psock_datalen(psock) == 0) {
   1370 A8*00              3986 	mov	r0,_bp
   1372 08                 3987 	inc	r0
   1373 86 82              3988 	mov	dpl,@r0
   1375 08                 3989 	inc	r0
   1376 86 83              3990 	mov	dph,@r0
   1378 08                 3991 	inc	r0
   1379 86 F0              3992 	mov	b,@r0
   137B 12s0Er54           3993 	lcall	_psock_datalen
   137E E5 82              3994 	mov	a,dpl
   1380 85 83 F0           3995 	mov	b,dph
   1383 45 F0              3996 	orl	a,b
   1385 70 3A              3997 	jnz	00119$
                           3998 ;	../../core/net/psock.c:311: psock->state = STATE_NONE;
   1387 A8*00              3999 	mov	r0,_bp
   1389 08                 4000 	inc	r0
   138A 74 18              4001 	mov	a,#0x18
   138C 26                 4002 	add	a,@r0
   138D FD                 4003 	mov	r5,a
   138E E4                 4004 	clr	a
   138F 08                 4005 	inc	r0
   1390 36                 4006 	addc	a,@r0
   1391 FE                 4007 	mov	r6,a
   1392 08                 4008 	inc	r0
   1393 86 07              4009 	mov	ar7,@r0
   1395 8D 82              4010 	mov	dpl,r5
   1397 8E 83              4011 	mov	dph,r6
   1399 8F F0              4012 	mov	b,r7
   139B E4                 4013 	clr	a
   139C 12s00r00           4014 	lcall	__gptrput
                           4015 ;	../../core/net/psock.c:312: PT_RESTART(&psock->psockpt);
   139F A8*00              4016 	mov	r0,_bp
   13A1 08                 4017 	inc	r0
   13A2 74 02              4018 	mov	a,#0x02
   13A4 26                 4019 	add	a,@r0
   13A5 FD                 4020 	mov	r5,a
   13A6 E4                 4021 	clr	a
   13A7 08                 4022 	inc	r0
   13A8 36                 4023 	addc	a,@r0
   13A9 FE                 4024 	mov	r6,a
   13AA 08                 4025 	inc	r0
   13AB 86 07              4026 	mov	ar7,@r0
   13AD 8D 82              4027 	mov	dpl,r5
   13AF 8E 83              4028 	mov	dph,r6
   13B1 8F F0              4029 	mov	b,r7
   13B3 E4                 4030 	clr	a
   13B4 12s00r00           4031 	lcall	__gptrput
   13B7 A3                 4032 	inc	dptr
   13B8 E4                 4033 	clr	a
   13B9 12s00r00           4034 	lcall	__gptrput
   13BC 75 82 00           4035 	mov	dpl,#0x00
                           4036 ;	../../core/net/psock.c:314: PT_END(&psock->psockpt);
   13BF 80 20              4037 	sjmp	00120$
   13C1                    4038 00119$:
   13C1 A8*00              4039 	mov	r0,_bp
   13C3 08                 4040 	inc	r0
   13C4 74 02              4041 	mov	a,#0x02
   13C6 26                 4042 	add	a,@r0
   13C7 FD                 4043 	mov	r5,a
   13C8 E4                 4044 	clr	a
   13C9 08                 4045 	inc	r0
   13CA 36                 4046 	addc	a,@r0
   13CB FE                 4047 	mov	r6,a
   13CC 08                 4048 	inc	r0
   13CD 86 07              4049 	mov	ar7,@r0
   13CF 8D 82              4050 	mov	dpl,r5
   13D1 8E 83              4051 	mov	dph,r6
   13D3 8F F0              4052 	mov	b,r7
   13D5 E4                 4053 	clr	a
   13D6 12s00r00           4054 	lcall	__gptrput
   13D9 A3                 4055 	inc	dptr
   13DA E4                 4056 	clr	a
   13DB 12s00r00           4057 	lcall	__gptrput
   13DE 75 82 03           4058 	mov	dpl,#0x03
   13E1                    4059 00120$:
   13E1 85*00 81           4060 	mov	sp,_bp
   13E4 D0*00              4061 	pop	_bp
   13E6 22                 4062 	ret
                           4063 ;------------------------------------------------------------
                           4064 ;Allocation info for local variables in function 'psock_init'
                           4065 ;------------------------------------------------------------
                           4066 ;buffer                    Allocated to stack - _bp -5
                           4067 ;buffersize                Allocated to stack - _bp -7
                           4068 ;psock                     Allocated to registers r5 r6 r7 
                           4069 ;------------------------------------------------------------
                           4070 ;	../../core/net/psock.c:319: psock_init(CC_REGISTER_ARG struct psock *psock,
                           4071 ;	-----------------------------------------
                           4072 ;	 function psock_init
                           4073 ;	-----------------------------------------
   13E7                    4074 _psock_init:
   13E7 C0*00              4075 	push	_bp
   13E9 85 81*00           4076 	mov	_bp,sp
   13EC AD 82              4077 	mov	r5,dpl
   13EE AE 83              4078 	mov	r6,dph
   13F0 AF F0              4079 	mov	r7,b
                           4080 ;	../../core/net/psock.c:322: psock->state = STATE_NONE;
   13F2 74 18              4081 	mov	a,#0x18
   13F4 2D                 4082 	add	a,r5
   13F5 FA                 4083 	mov	r2,a
   13F6 E4                 4084 	clr	a
   13F7 3E                 4085 	addc	a,r6
   13F8 FB                 4086 	mov	r3,a
   13F9 8F 04              4087 	mov	ar4,r7
   13FB 8A 82              4088 	mov	dpl,r2
   13FD 8B 83              4089 	mov	dph,r3
   13FF 8C F0              4090 	mov	b,r4
   1401 E4                 4091 	clr	a
   1402 12s00r00           4092 	lcall	__gptrput
                           4093 ;	../../core/net/psock.c:323: psock->readlen = 0;
   1405 74 0F              4094 	mov	a,#0x0F
   1407 2D                 4095 	add	a,r5
   1408 FA                 4096 	mov	r2,a
   1409 E4                 4097 	clr	a
   140A 3E                 4098 	addc	a,r6
   140B FB                 4099 	mov	r3,a
   140C 8F 04              4100 	mov	ar4,r7
   140E 8A 82              4101 	mov	dpl,r2
   1410 8B 83              4102 	mov	dph,r3
   1412 8C F0              4103 	mov	b,r4
   1414 E4                 4104 	clr	a
   1415 12s00r00           4105 	lcall	__gptrput
   1418 A3                 4106 	inc	dptr
   1419 E4                 4107 	clr	a
   141A 12s00r00           4108 	lcall	__gptrput
                           4109 ;	../../core/net/psock.c:324: psock->bufptr = buffer;
   141D 74 0A              4110 	mov	a,#0x0A
   141F 2D                 4111 	add	a,r5
   1420 FA                 4112 	mov	r2,a
   1421 E4                 4113 	clr	a
   1422 3E                 4114 	addc	a,r6
   1423 FB                 4115 	mov	r3,a
   1424 8F 04              4116 	mov	ar4,r7
   1426 8A 82              4117 	mov	dpl,r2
   1428 8B 83              4118 	mov	dph,r3
   142A 8C F0              4119 	mov	b,r4
   142C E5*00              4120 	mov	a,_bp
   142E 24 FB              4121 	add	a,#0xfb
   1430 F8                 4122 	mov	r0,a
   1431 E6                 4123 	mov	a,@r0
   1432 12s00r00           4124 	lcall	__gptrput
   1435 A3                 4125 	inc	dptr
   1436 08                 4126 	inc	r0
   1437 E6                 4127 	mov	a,@r0
   1438 12s00r00           4128 	lcall	__gptrput
   143B A3                 4129 	inc	dptr
   143C 08                 4130 	inc	r0
   143D E6                 4131 	mov	a,@r0
   143E 12s00r00           4132 	lcall	__gptrput
                           4133 ;	../../core/net/psock.c:325: psock->bufsize = buffersize;
   1441 74 16              4134 	mov	a,#0x16
   1443 2D                 4135 	add	a,r5
   1444 FA                 4136 	mov	r2,a
   1445 E4                 4137 	clr	a
   1446 3E                 4138 	addc	a,r6
   1447 FB                 4139 	mov	r3,a
   1448 8F 04              4140 	mov	ar4,r7
   144A 8A 82              4141 	mov	dpl,r2
   144C 8B 83              4142 	mov	dph,r3
   144E 8C F0              4143 	mov	b,r4
   1450 E5*00              4144 	mov	a,_bp
   1452 24 F9              4145 	add	a,#0xf9
   1454 F8                 4146 	mov	r0,a
   1455 E6                 4147 	mov	a,@r0
   1456 12s00r00           4148 	lcall	__gptrput
   1459 A3                 4149 	inc	dptr
   145A 08                 4150 	inc	r0
   145B E6                 4151 	mov	a,@r0
   145C 12s00r00           4152 	lcall	__gptrput
                           4153 ;	../../core/net/psock.c:326: buf_setup(&psock->buf, buffer, buffersize);
   145F 74 11              4154 	mov	a,#0x11
   1461 2D                 4155 	add	a,r5
   1462 FA                 4156 	mov	r2,a
   1463 E4                 4157 	clr	a
   1464 3E                 4158 	addc	a,r6
   1465 FB                 4159 	mov	r3,a
   1466 8F 04              4160 	mov	ar4,r7
   1468 C0 07              4161 	push	ar7
   146A C0 06              4162 	push	ar6
   146C C0 05              4163 	push	ar5
   146E E5*00              4164 	mov	a,_bp
   1470 24 F9              4165 	add	a,#0xf9
   1472 F8                 4166 	mov	r0,a
   1473 E6                 4167 	mov	a,@r0
   1474 C0 E0              4168 	push	acc
   1476 08                 4169 	inc	r0
   1477 E6                 4170 	mov	a,@r0
   1478 C0 E0              4171 	push	acc
   147A E5*00              4172 	mov	a,_bp
   147C 24 FB              4173 	add	a,#0xfb
   147E F8                 4174 	mov	r0,a
   147F E6                 4175 	mov	a,@r0
   1480 C0 E0              4176 	push	acc
   1482 08                 4177 	inc	r0
   1483 E6                 4178 	mov	a,@r0
   1484 C0 E0              4179 	push	acc
   1486 08                 4180 	inc	r0
   1487 E6                 4181 	mov	a,@r0
   1488 C0 E0              4182 	push	acc
   148A 8A 82              4183 	mov	dpl,r2
   148C 8B 83              4184 	mov	dph,r3
   148E 8C F0              4185 	mov	b,r4
   1490 12s00r00           4186 	lcall	_buf_setup
   1493 E5 81              4187 	mov	a,sp
   1495 24 FB              4188 	add	a,#0xfb
   1497 F5 81              4189 	mov	sp,a
   1499 D0 05              4190 	pop	ar5
   149B D0 06              4191 	pop	ar6
   149D D0 07              4192 	pop	ar7
                           4193 ;	../../core/net/psock.c:327: PT_INIT(&psock->pt);
   149F 8D 82              4194 	mov	dpl,r5
   14A1 8E 83              4195 	mov	dph,r6
   14A3 8F F0              4196 	mov	b,r7
   14A5 E4                 4197 	clr	a
   14A6 12s00r00           4198 	lcall	__gptrput
   14A9 A3                 4199 	inc	dptr
   14AA E4                 4200 	clr	a
   14AB 12s00r00           4201 	lcall	__gptrput
                           4202 ;	../../core/net/psock.c:328: PT_INIT(&psock->psockpt);
   14AE 74 02              4203 	mov	a,#0x02
   14B0 2D                 4204 	add	a,r5
   14B1 FD                 4205 	mov	r5,a
   14B2 E4                 4206 	clr	a
   14B3 3E                 4207 	addc	a,r6
   14B4 FE                 4208 	mov	r6,a
   14B5 8D 82              4209 	mov	dpl,r5
   14B7 8E 83              4210 	mov	dph,r6
   14B9 8F F0              4211 	mov	b,r7
   14BB E4                 4212 	clr	a
   14BC 12s00r00           4213 	lcall	__gptrput
   14BF A3                 4214 	inc	dptr
   14C0 E4                 4215 	clr	a
   14C1 12s00r00           4216 	lcall	__gptrput
   14C4 D0*00              4217 	pop	_bp
   14C6 22                 4218 	ret
                           4219 	.area CSEG    (CODE)
                           4220 	.area CONST   (CODE)
                           4221 	.area XINIT   (CODE)
                           4222 	.area CABS    (ABS,CODE)
