                              1 ;--------------------------------------------------------
                              2 ; File Created by SDCC : free open source ANSI-C Compiler
                              3 ; Version 3.1.1 #7100 (Apr  1 2013) (Linux)
                              4 ; This file was generated Tue Apr 23 09:41:15 2013
                              5 ;--------------------------------------------------------
                              6 	.module runicast
                              7 	.optsdcc -mmcs51 --model-large
                              8 	
                              9 ;--------------------------------------------------------
                             10 ; Public variables in this module
                             11 ;--------------------------------------------------------
                             12 	.globl _stunicast_receiver
                             13 	.globl _stunicast_send
                             14 	.globl _stunicast_cancel
                             15 	.globl _stunicast_send_stubborn
                             16 	.globl _stunicast_close
                             17 	.globl _stunicast_open
                             18 	.globl _queuebuf_free
                             19 	.globl _queuebuf_to_packetbuf
                             20 	.globl _queuebuf_new_from_packetbuf
                             21 	.globl _channel_set_attributes
                             22 	.globl _packetbuf_attr
                             23 	.globl _packetbuf_set_attr
                             24 	.globl _packetbuf_clear
                             25 	.globl _IRCON2_P2IF
                             26 	.globl _IRCON2_UTX0IF
                             27 	.globl _IRCON2_UTX1IF
                             28 	.globl _IRCON2_P1IF
                             29 	.globl _IRCON2_WDTIF
                             30 	.globl _CY
                             31 	.globl _AC
                             32 	.globl _F0
                             33 	.globl _RS1
                             34 	.globl _RS0
                             35 	.globl _OV
                             36 	.globl _F1
                             37 	.globl _P
                             38 	.globl _IRCON_DMAIF
                             39 	.globl _IRCON_T1IF
                             40 	.globl _IRCON_T2IF
                             41 	.globl _IRCON_T3IF
                             42 	.globl _IRCON_T4IF
                             43 	.globl _IRCON_P0IF
                             44 	.globl _IRCON_STIF
                             45 	.globl _IEN1_DMAIE
                             46 	.globl _IEN1_T1IE
                             47 	.globl _IEN1_T2IE
                             48 	.globl _IEN1_T3IE
                             49 	.globl _IEN1_T4IE
                             50 	.globl _IEN1_P0IE
                             51 	.globl _IEN0_RFERRIE
                             52 	.globl _IEN0_ADCIE
                             53 	.globl _IEN0_URX0IE
                             54 	.globl _IEN0_URX1IE
                             55 	.globl _IEN0_ENCIE
                             56 	.globl _IEN0_STIE
                             57 	.globl _IEN0_EA
                             58 	.globl _EA
                             59 	.globl _P2_4
                             60 	.globl _P2_3
                             61 	.globl _P2_2
                             62 	.globl _P2_1
                             63 	.globl _P2_0
                             64 	.globl _S0CON_ENCIF_0
                             65 	.globl _S0CON_ENCIF_1
                             66 	.globl _P1_7
                             67 	.globl _P1_6
                             68 	.globl _P1_5
                             69 	.globl _P1_4
                             70 	.globl _P1_3
                             71 	.globl _P1_2
                             72 	.globl _P1_1
                             73 	.globl _P1_0
                             74 	.globl _TCON_IT0
                             75 	.globl _TCON_RFERRIF
                             76 	.globl _TCON_IT1
                             77 	.globl _TCON_URX0IF
                             78 	.globl _TCON_ADCIF
                             79 	.globl _TCON_URX1IF
                             80 	.globl _P0_0
                             81 	.globl _P0_1
                             82 	.globl _P0_2
                             83 	.globl _P0_3
                             84 	.globl _P0_4
                             85 	.globl _P0_5
                             86 	.globl _P0_6
                             87 	.globl _P0_7
                             88 	.globl _P2DIR
                             89 	.globl _P1DIR
                             90 	.globl _P0DIR
                             91 	.globl _U1GCR
                             92 	.globl _U1UCR
                             93 	.globl _U1BAUD
                             94 	.globl _U1BUF
                             95 	.globl _U1CSR
                             96 	.globl _P2INP
                             97 	.globl _P1INP
                             98 	.globl _P2SEL
                             99 	.globl _P1SEL
                            100 	.globl _P0SEL
                            101 	.globl _ADCCFG
                            102 	.globl _PERCFG
                            103 	.globl _B
                            104 	.globl _T4CC1
                            105 	.globl _T4CCTL1
                            106 	.globl _T4CC0
                            107 	.globl _T4CCTL0
                            108 	.globl _T4CTL
                            109 	.globl _T4CNT
                            110 	.globl _RFIF
                            111 	.globl _IRCON2
                            112 	.globl _T1CCTL2
                            113 	.globl _T1CCTL1
                            114 	.globl _T1CCTL0
                            115 	.globl _T1CTL
                            116 	.globl _T1CNTH
                            117 	.globl _T1CNTL
                            118 	.globl _RFST
                            119 	.globl _ACC
                            120 	.globl _T1CC2H
                            121 	.globl _T1CC2L
                            122 	.globl _T1CC1H
                            123 	.globl _T1CC1L
                            124 	.globl _T1CC0H
                            125 	.globl _T1CC0L
                            126 	.globl _RFD
                            127 	.globl _TIMIF
                            128 	.globl _DMAREQ
                            129 	.globl _DMAARM
                            130 	.globl _DMA0CFGH
                            131 	.globl _DMA0CFGL
                            132 	.globl _DMA1CFGH
                            133 	.globl _DMA1CFGL
                            134 	.globl _DMAIRQ
                            135 	.globl _PSW
                            136 	.globl _T3CC1
                            137 	.globl _T3CCTL1
                            138 	.globl _T3CC0
                            139 	.globl _T3CCTL0
                            140 	.globl _T3CTL
                            141 	.globl _T3CNT
                            142 	.globl _WDCTL
                            143 	.globl _T2CON
                            144 	.globl _MEMCTR
                            145 	.globl _CLKCON
                            146 	.globl _U0GCR
                            147 	.globl _U0UCR
                            148 	.globl _T2CNF
                            149 	.globl _U0BAUD
                            150 	.globl _U0BUF
                            151 	.globl _IRCON
                            152 	.globl _SLEEP
                            153 	.globl _RNDH
                            154 	.globl _RNDL
                            155 	.globl _ADCH
                            156 	.globl _ADCL
                            157 	.globl _IP1
                            158 	.globl _IEN1
                            159 	.globl _RCCTL
                            160 	.globl _ADCCON3
                            161 	.globl _ADCCON2
                            162 	.globl _ADCCON1
                            163 	.globl _ENCCS
                            164 	.globl _ENCDO
                            165 	.globl _ENCDI
                            166 	.globl _FWDATA
                            167 	.globl _FCTL
                            168 	.globl _FADDRH
                            169 	.globl _FADDRL
                            170 	.globl _FWT
                            171 	.globl _IP0
                            172 	.globl _IEN0
                            173 	.globl _IE
                            174 	.globl _T2THD
                            175 	.globl _T2TLD
                            176 	.globl _T2CAPHPH
                            177 	.globl _T2CAPLPL
                            178 	.globl _T2OF2
                            179 	.globl _T2OF1
                            180 	.globl _T2OF0
                            181 	.globl _P2
                            182 	.globl _PSBANK
                            183 	.globl _FMAP
                            184 	.globl _T2PEROF2
                            185 	.globl _T2PEROF1
                            186 	.globl _T2PEROF0
                            187 	.globl _S1CON
                            188 	.globl _IEN2
                            189 	.globl _HSRC
                            190 	.globl _S0CON
                            191 	.globl _ST2
                            192 	.globl _ST1
                            193 	.globl _ST0
                            194 	.globl _T2CMP
                            195 	.globl __XPAGE
                            196 	.globl _DPS
                            197 	.globl _RFIM
                            198 	.globl _P1
                            199 	.globl _P0INP
                            200 	.globl _P1IEN
                            201 	.globl _PICTL
                            202 	.globl _P2IFG
                            203 	.globl _P1IFG
                            204 	.globl _P0IFG
                            205 	.globl _TCON
                            206 	.globl _PCON
                            207 	.globl _U0CSR
                            208 	.globl _DPH1
                            209 	.globl _DPL1
                            210 	.globl _DPH0
                            211 	.globl _DPL0
                            212 	.globl _SP
                            213 	.globl _P0
                            214 	.globl _ADC_SHADOW
                            215 	.globl _U1BUF_SHADOW
                            216 	.globl _RFD_SHADOW
                            217 	.globl _U0BUF_SHADOW
                            218 	.globl _RFSTATUS
                            219 	.globl _CHIPID
                            220 	.globl _CHVER
                            221 	.globl _FSMTC1
                            222 	.globl _RXFIFOCNT
                            223 	.globl _IOCFG3
                            224 	.globl _IOCFG2
                            225 	.globl _IOCFG1
                            226 	.globl _IOCFG0
                            227 	.globl _SHORTADDRL
                            228 	.globl _SHORTADDRH
                            229 	.globl _PANIDL
                            230 	.globl _PANIDH
                            231 	.globl _IEEE_ADDR7
                            232 	.globl _IEEE_ADDR6
                            233 	.globl _IEEE_ADDR5
                            234 	.globl _IEEE_ADDR4
                            235 	.globl _IEEE_ADDR3
                            236 	.globl _IEEE_ADDR2
                            237 	.globl _IEEE_ADDR1
                            238 	.globl _IEEE_ADDR0
                            239 	.globl _DACTSTL
                            240 	.globl _DACTSTH
                            241 	.globl _ADCTSTL
                            242 	.globl _ADCTSTH
                            243 	.globl _FSMSTATE
                            244 	.globl _AGCCTRLL
                            245 	.globl _AGCCTRLH
                            246 	.globl _MANORL
                            247 	.globl _MANORH
                            248 	.globl _MANANDL
                            249 	.globl _MANANDH
                            250 	.globl _FSMTCL
                            251 	.globl _FSMTCH
                            252 	.globl _RFPWR
                            253 	.globl _CSPT
                            254 	.globl _CSPCTRL
                            255 	.globl _CSPZ
                            256 	.globl _CSPY
                            257 	.globl _CSPX
                            258 	.globl _FSCTRLL
                            259 	.globl _FSCTRLH
                            260 	.globl _RXCTRL1L
                            261 	.globl _RXCTRL1H
                            262 	.globl _RXCTRL0L
                            263 	.globl _RXCTRL0H
                            264 	.globl _TXCTRLL
                            265 	.globl _TXCTRLH
                            266 	.globl _SYNCWORDL
                            267 	.globl _SYNCWORDH
                            268 	.globl _RSSIL
                            269 	.globl _RSSIH
                            270 	.globl _MDMCTRL1L
                            271 	.globl _MDMCTRL1H
                            272 	.globl _MDMCTRL0L
                            273 	.globl _MDMCTRL0H
                            274 	.globl _runicast_open
                            275 	.globl _runicast_close
                            276 	.globl _runicast_is_transmitting
                            277 	.globl _runicast_send
                            278 ;--------------------------------------------------------
                            279 ; special function registers
                            280 ;--------------------------------------------------------
                            281 	.area RSEG    (ABS,DATA)
   0000                     282 	.org 0x0000
                    0080    283 _P0	=	0x0080
                    0081    284 _SP	=	0x0081
                    0082    285 _DPL0	=	0x0082
                    0083    286 _DPH0	=	0x0083
                    0084    287 _DPL1	=	0x0084
                    0085    288 _DPH1	=	0x0085
                    0086    289 _U0CSR	=	0x0086
                    0087    290 _PCON	=	0x0087
                    0088    291 _TCON	=	0x0088
                    0089    292 _P0IFG	=	0x0089
                    008A    293 _P1IFG	=	0x008a
                    008B    294 _P2IFG	=	0x008b
                    008C    295 _PICTL	=	0x008c
                    008D    296 _P1IEN	=	0x008d
                    008F    297 _P0INP	=	0x008f
                    0090    298 _P1	=	0x0090
                    0091    299 _RFIM	=	0x0091
                    0092    300 _DPS	=	0x0092
                    0093    301 __XPAGE	=	0x0093
                    0094    302 _T2CMP	=	0x0094
                    0095    303 _ST0	=	0x0095
                    0096    304 _ST1	=	0x0096
                    0097    305 _ST2	=	0x0097
                    0098    306 _S0CON	=	0x0098
                    0099    307 _HSRC	=	0x0099
                    009A    308 _IEN2	=	0x009a
                    009B    309 _S1CON	=	0x009b
                    009C    310 _T2PEROF0	=	0x009c
                    009D    311 _T2PEROF1	=	0x009d
                    009E    312 _T2PEROF2	=	0x009e
                    009F    313 _FMAP	=	0x009f
                    009F    314 _PSBANK	=	0x009f
                    00A0    315 _P2	=	0x00a0
                    00A1    316 _T2OF0	=	0x00a1
                    00A2    317 _T2OF1	=	0x00a2
                    00A3    318 _T2OF2	=	0x00a3
                    00A4    319 _T2CAPLPL	=	0x00a4
                    00A5    320 _T2CAPHPH	=	0x00a5
                    00A6    321 _T2TLD	=	0x00a6
                    00A7    322 _T2THD	=	0x00a7
                    00A8    323 _IE	=	0x00a8
                    00A8    324 _IEN0	=	0x00a8
                    00A9    325 _IP0	=	0x00a9
                    00AB    326 _FWT	=	0x00ab
                    00AC    327 _FADDRL	=	0x00ac
                    00AD    328 _FADDRH	=	0x00ad
                    00AE    329 _FCTL	=	0x00ae
                    00AF    330 _FWDATA	=	0x00af
                    00B1    331 _ENCDI	=	0x00b1
                    00B2    332 _ENCDO	=	0x00b2
                    00B3    333 _ENCCS	=	0x00b3
                    00B4    334 _ADCCON1	=	0x00b4
                    00B5    335 _ADCCON2	=	0x00b5
                    00B6    336 _ADCCON3	=	0x00b6
                    00B7    337 _RCCTL	=	0x00b7
                    00B8    338 _IEN1	=	0x00b8
                    00B9    339 _IP1	=	0x00b9
                    00BA    340 _ADCL	=	0x00ba
                    00BB    341 _ADCH	=	0x00bb
                    00BC    342 _RNDL	=	0x00bc
                    00BD    343 _RNDH	=	0x00bd
                    00BE    344 _SLEEP	=	0x00be
                    00C0    345 _IRCON	=	0x00c0
                    00C1    346 _U0BUF	=	0x00c1
                    00C2    347 _U0BAUD	=	0x00c2
                    00C3    348 _T2CNF	=	0x00c3
                    00C4    349 _U0UCR	=	0x00c4
                    00C5    350 _U0GCR	=	0x00c5
                    00C6    351 _CLKCON	=	0x00c6
                    00C7    352 _MEMCTR	=	0x00c7
                    00C8    353 _T2CON	=	0x00c8
                    00C9    354 _WDCTL	=	0x00c9
                    00CA    355 _T3CNT	=	0x00ca
                    00CB    356 _T3CTL	=	0x00cb
                    00CC    357 _T3CCTL0	=	0x00cc
                    00CD    358 _T3CC0	=	0x00cd
                    00CE    359 _T3CCTL1	=	0x00ce
                    00CF    360 _T3CC1	=	0x00cf
                    00D0    361 _PSW	=	0x00d0
                    00D1    362 _DMAIRQ	=	0x00d1
                    00D2    363 _DMA1CFGL	=	0x00d2
                    00D3    364 _DMA1CFGH	=	0x00d3
                    00D4    365 _DMA0CFGL	=	0x00d4
                    00D5    366 _DMA0CFGH	=	0x00d5
                    00D6    367 _DMAARM	=	0x00d6
                    00D7    368 _DMAREQ	=	0x00d7
                    00D8    369 _TIMIF	=	0x00d8
                    00D9    370 _RFD	=	0x00d9
                    00DA    371 _T1CC0L	=	0x00da
                    00DB    372 _T1CC0H	=	0x00db
                    00DC    373 _T1CC1L	=	0x00dc
                    00DD    374 _T1CC1H	=	0x00dd
                    00DE    375 _T1CC2L	=	0x00de
                    00DF    376 _T1CC2H	=	0x00df
                    00E0    377 _ACC	=	0x00e0
                    00E1    378 _RFST	=	0x00e1
                    00E2    379 _T1CNTL	=	0x00e2
                    00E3    380 _T1CNTH	=	0x00e3
                    00E4    381 _T1CTL	=	0x00e4
                    00E5    382 _T1CCTL0	=	0x00e5
                    00E6    383 _T1CCTL1	=	0x00e6
                    00E7    384 _T1CCTL2	=	0x00e7
                    00E8    385 _IRCON2	=	0x00e8
                    00E9    386 _RFIF	=	0x00e9
                    00EA    387 _T4CNT	=	0x00ea
                    00EB    388 _T4CTL	=	0x00eb
                    00EC    389 _T4CCTL0	=	0x00ec
                    00ED    390 _T4CC0	=	0x00ed
                    00EE    391 _T4CCTL1	=	0x00ee
                    00EF    392 _T4CC1	=	0x00ef
                    00F0    393 _B	=	0x00f0
                    00F1    394 _PERCFG	=	0x00f1
                    00F2    395 _ADCCFG	=	0x00f2
                    00F3    396 _P0SEL	=	0x00f3
                    00F4    397 _P1SEL	=	0x00f4
                    00F5    398 _P2SEL	=	0x00f5
                    00F6    399 _P1INP	=	0x00f6
                    00F7    400 _P2INP	=	0x00f7
                    00F8    401 _U1CSR	=	0x00f8
                    00F9    402 _U1BUF	=	0x00f9
                    00FA    403 _U1BAUD	=	0x00fa
                    00FB    404 _U1UCR	=	0x00fb
                    00FC    405 _U1GCR	=	0x00fc
                    00FD    406 _P0DIR	=	0x00fd
                    00FE    407 _P1DIR	=	0x00fe
                    00FF    408 _P2DIR	=	0x00ff
                            409 ;--------------------------------------------------------
                            410 ; special function bits
                            411 ;--------------------------------------------------------
                            412 	.area RSEG    (ABS,DATA)
   0000                     413 	.org 0x0000
                    0087    414 _P0_7	=	0x0087
                    0086    415 _P0_6	=	0x0086
                    0085    416 _P0_5	=	0x0085
                    0084    417 _P0_4	=	0x0084
                    0083    418 _P0_3	=	0x0083
                    0082    419 _P0_2	=	0x0082
                    0081    420 _P0_1	=	0x0081
                    0080    421 _P0_0	=	0x0080
                    008F    422 _TCON_URX1IF	=	0x008f
                    008D    423 _TCON_ADCIF	=	0x008d
                    008B    424 _TCON_URX0IF	=	0x008b
                    008A    425 _TCON_IT1	=	0x008a
                    0089    426 _TCON_RFERRIF	=	0x0089
                    0088    427 _TCON_IT0	=	0x0088
                    0090    428 _P1_0	=	0x0090
                    0091    429 _P1_1	=	0x0091
                    0092    430 _P1_2	=	0x0092
                    0093    431 _P1_3	=	0x0093
                    0094    432 _P1_4	=	0x0094
                    0095    433 _P1_5	=	0x0095
                    0096    434 _P1_6	=	0x0096
                    0097    435 _P1_7	=	0x0097
                    0099    436 _S0CON_ENCIF_1	=	0x0099
                    0098    437 _S0CON_ENCIF_0	=	0x0098
                    00A0    438 _P2_0	=	0x00a0
                    00A1    439 _P2_1	=	0x00a1
                    00A2    440 _P2_2	=	0x00a2
                    00A3    441 _P2_3	=	0x00a3
                    00A4    442 _P2_4	=	0x00a4
                    00AF    443 _EA	=	0x00af
                    00AF    444 _IEN0_EA	=	0x00af
                    00AD    445 _IEN0_STIE	=	0x00ad
                    00AC    446 _IEN0_ENCIE	=	0x00ac
                    00AB    447 _IEN0_URX1IE	=	0x00ab
                    00AA    448 _IEN0_URX0IE	=	0x00aa
                    00A9    449 _IEN0_ADCIE	=	0x00a9
                    00A8    450 _IEN0_RFERRIE	=	0x00a8
                    00BD    451 _IEN1_P0IE	=	0x00bd
                    00BC    452 _IEN1_T4IE	=	0x00bc
                    00BB    453 _IEN1_T3IE	=	0x00bb
                    00BA    454 _IEN1_T2IE	=	0x00ba
                    00B9    455 _IEN1_T1IE	=	0x00b9
                    00B8    456 _IEN1_DMAIE	=	0x00b8
                    00C7    457 _IRCON_STIF	=	0x00c7
                    00C5    458 _IRCON_P0IF	=	0x00c5
                    00C4    459 _IRCON_T4IF	=	0x00c4
                    00C3    460 _IRCON_T3IF	=	0x00c3
                    00C2    461 _IRCON_T2IF	=	0x00c2
                    00C1    462 _IRCON_T1IF	=	0x00c1
                    00C0    463 _IRCON_DMAIF	=	0x00c0
                    00D0    464 _P	=	0x00d0
                    00D1    465 _F1	=	0x00d1
                    00D2    466 _OV	=	0x00d2
                    00D3    467 _RS0	=	0x00d3
                    00D4    468 _RS1	=	0x00d4
                    00D5    469 _F0	=	0x00d5
                    00D6    470 _AC	=	0x00d6
                    00D7    471 _CY	=	0x00d7
                    00EC    472 _IRCON2_WDTIF	=	0x00ec
                    00EB    473 _IRCON2_P1IF	=	0x00eb
                    00EA    474 _IRCON2_UTX1IF	=	0x00ea
                    00E9    475 _IRCON2_UTX0IF	=	0x00e9
                    00E8    476 _IRCON2_P2IF	=	0x00e8
                            477 ;--------------------------------------------------------
                            478 ; overlayable register banks
                            479 ;--------------------------------------------------------
                            480 	.area REG_BANK_0	(REL,OVR,DATA)
   0000                     481 	.ds 8
                            482 ;--------------------------------------------------------
                            483 ; internal ram data
                            484 ;--------------------------------------------------------
                            485 	.area DSEG    (DATA)
                            486 ;--------------------------------------------------------
                            487 ; overlayable items in internal ram 
                            488 ;--------------------------------------------------------
                            489 	.area OSEG    (OVR,DATA)
                            490 ;--------------------------------------------------------
                            491 ; indirectly addressable internal ram data
                            492 ;--------------------------------------------------------
                            493 	.area ISEG    (DATA)
                            494 ;--------------------------------------------------------
                            495 ; absolute internal ram data
                            496 ;--------------------------------------------------------
                            497 	.area IABS    (ABS,DATA)
                            498 	.area IABS    (ABS,DATA)
                            499 ;--------------------------------------------------------
                            500 ; bit data
                            501 ;--------------------------------------------------------
                            502 	.area BSEG    (BIT)
                            503 ;--------------------------------------------------------
                            504 ; paged external ram data
                            505 ;--------------------------------------------------------
                            506 	.area PSEG    (PAG,XDATA)
                            507 ;--------------------------------------------------------
                            508 ; external ram data
                            509 ;--------------------------------------------------------
                            510 	.area XSEG    (XDATA)
                    DF02    511 _MDMCTRL0H	=	0xdf02
                    DF03    512 _MDMCTRL0L	=	0xdf03
                    DF04    513 _MDMCTRL1H	=	0xdf04
                    DF05    514 _MDMCTRL1L	=	0xdf05
                    DF06    515 _RSSIH	=	0xdf06
                    DF07    516 _RSSIL	=	0xdf07
                    DF08    517 _SYNCWORDH	=	0xdf08
                    DF09    518 _SYNCWORDL	=	0xdf09
                    DF0A    519 _TXCTRLH	=	0xdf0a
                    DF0B    520 _TXCTRLL	=	0xdf0b
                    DF0C    521 _RXCTRL0H	=	0xdf0c
                    DF0D    522 _RXCTRL0L	=	0xdf0d
                    DF0E    523 _RXCTRL1H	=	0xdf0e
                    DF0F    524 _RXCTRL1L	=	0xdf0f
                    DF10    525 _FSCTRLH	=	0xdf10
                    DF11    526 _FSCTRLL	=	0xdf11
                    DF12    527 _CSPX	=	0xdf12
                    DF13    528 _CSPY	=	0xdf13
                    DF14    529 _CSPZ	=	0xdf14
                    DF15    530 _CSPCTRL	=	0xdf15
                    DF16    531 _CSPT	=	0xdf16
                    DF17    532 _RFPWR	=	0xdf17
                    DF20    533 _FSMTCH	=	0xdf20
                    DF21    534 _FSMTCL	=	0xdf21
                    DF22    535 _MANANDH	=	0xdf22
                    DF23    536 _MANANDL	=	0xdf23
                    DF24    537 _MANORH	=	0xdf24
                    DF25    538 _MANORL	=	0xdf25
                    DF26    539 _AGCCTRLH	=	0xdf26
                    DF27    540 _AGCCTRLL	=	0xdf27
                    DF39    541 _FSMSTATE	=	0xdf39
                    DF3A    542 _ADCTSTH	=	0xdf3a
                    DF3B    543 _ADCTSTL	=	0xdf3b
                    DF3C    544 _DACTSTH	=	0xdf3c
                    DF3D    545 _DACTSTL	=	0xdf3d
                    DF43    546 _IEEE_ADDR0	=	0xdf43
                    DF44    547 _IEEE_ADDR1	=	0xdf44
                    DF45    548 _IEEE_ADDR2	=	0xdf45
                    DF46    549 _IEEE_ADDR3	=	0xdf46
                    DF47    550 _IEEE_ADDR4	=	0xdf47
                    DF48    551 _IEEE_ADDR5	=	0xdf48
                    DF49    552 _IEEE_ADDR6	=	0xdf49
                    DF4A    553 _IEEE_ADDR7	=	0xdf4a
                    DF4B    554 _PANIDH	=	0xdf4b
                    DF4C    555 _PANIDL	=	0xdf4c
                    DF4D    556 _SHORTADDRH	=	0xdf4d
                    DF4E    557 _SHORTADDRL	=	0xdf4e
                    DF4F    558 _IOCFG0	=	0xdf4f
                    DF50    559 _IOCFG1	=	0xdf50
                    DF51    560 _IOCFG2	=	0xdf51
                    DF52    561 _IOCFG3	=	0xdf52
                    DF53    562 _RXFIFOCNT	=	0xdf53
                    DF54    563 _FSMTC1	=	0xdf54
                    DF60    564 _CHVER	=	0xdf60
                    DF61    565 _CHIPID	=	0xdf61
                    DF62    566 _RFSTATUS	=	0xdf62
                    DFC1    567 _U0BUF_SHADOW	=	0xdfc1
                    DFD9    568 _RFD_SHADOW	=	0xdfd9
                    DFF9    569 _U1BUF_SHADOW	=	0xdff9
                    DFBA    570 _ADC_SHADOW	=	0xdfba
                            571 ;--------------------------------------------------------
                            572 ; absolute external ram data
                            573 ;--------------------------------------------------------
                            574 	.area XABS    (ABS,XDATA)
                            575 ;--------------------------------------------------------
                            576 ; external initialized ram data
                            577 ;--------------------------------------------------------
                            578 	.area XISEG   (XDATA)
                            579 	.area HOME    (CODE)
                            580 	.area GSINIT0 (CODE)
                            581 	.area GSINIT1 (CODE)
                            582 	.area GSINIT2 (CODE)
                            583 	.area GSINIT3 (CODE)
                            584 	.area GSINIT4 (CODE)
                            585 	.area GSINIT5 (CODE)
                            586 	.area GSINIT  (CODE)
                            587 	.area GSFINAL (CODE)
                            588 	.area CSEG    (CODE)
                            589 ;--------------------------------------------------------
                            590 ; global & static initialisations
                            591 ;--------------------------------------------------------
                            592 	.area HOME    (CODE)
                            593 	.area GSINIT  (CODE)
                            594 	.area GSFINAL (CODE)
                            595 	.area GSINIT  (CODE)
                            596 ;--------------------------------------------------------
                            597 ; Home
                            598 ;--------------------------------------------------------
                            599 	.area HOME    (CODE)
                            600 	.area HOME    (CODE)
                            601 ;--------------------------------------------------------
                            602 ; code
                            603 ;--------------------------------------------------------
                            604 	.area CSEG    (CODE)
                            605 ;------------------------------------------------------------
                            606 ;Allocation info for local variables in function 'sent_by_stunicast'
                            607 ;------------------------------------------------------------
                            608 ;status                    Allocated to stack - _bp -4
                            609 ;num_tx                    Allocated to stack - _bp -6
                            610 ;stunicast                 Allocated to registers r5 r6 r7 
                            611 ;c                         Allocated to stack - _bp +1
                            612 ;sloc0                     Allocated to stack - _bp +4
                            613 ;sloc1                     Allocated to stack - _bp +6
                            614 ;------------------------------------------------------------
                            615 ;	../../core/net/rime/runicast.c:74: sent_by_stunicast(struct stunicast_conn *stunicast, int status, int num_tx)
                            616 ;	-----------------------------------------
                            617 ;	 function sent_by_stunicast
                            618 ;	-----------------------------------------
   0000                     619 _sent_by_stunicast:
                    0007    620 	ar7 = 0x07
                    0006    621 	ar6 = 0x06
                    0005    622 	ar5 = 0x05
                    0004    623 	ar4 = 0x04
                    0003    624 	ar3 = 0x03
                    0002    625 	ar2 = 0x02
                    0001    626 	ar1 = 0x01
                    0000    627 	ar0 = 0x00
   0000 C0*00               628 	push	_bp
   0002 E5 81               629 	mov	a,sp
   0004 F5*00               630 	mov	_bp,a
   0006 24 06               631 	add	a,#0x06
   0008 F5 81               632 	mov	sp,a
   000A AD 82               633 	mov	r5,dpl
   000C AE 83               634 	mov	r6,dph
   000E AF F0               635 	mov	r7,b
                            636 ;	../../core/net/rime/runicast.c:76: struct runicast_conn *c = (struct runicast_conn *)stunicast;
   0010 A8*00               637 	mov	r0,_bp
   0012 08                  638 	inc	r0
   0013 A6 05               639 	mov	@r0,ar5
   0015 08                  640 	inc	r0
   0016 A6 06               641 	mov	@r0,ar6
   0018 08                  642 	inc	r0
   0019 A6 07               643 	mov	@r0,ar7
                            644 ;	../../core/net/rime/runicast.c:82: if(packetbuf_attr(PACKETBUF_ATTR_PACKET_TYPE) == PACKETBUF_ATTR_PACKET_TYPE_DATA) {
   001B 75 82 0E            645 	mov	dpl,#0x0E
   001E 12s00r00            646 	lcall	_packetbuf_attr
   0021 E5 82               647 	mov	a,dpl
   0023 85 83 F0            648 	mov	b,dph
   0026 45 F0               649 	orl	a,b
   0028 60 03               650 	jz	00119$
   002A 02s02r24            651 	ljmp	00109$
   002D                     652 00119$:
                            653 ;	../../core/net/rime/runicast.c:84: c->rxmit += 1;
   002D A8*00               654 	mov	r0,_bp
   002F 08                  655 	inc	r0
   0030 74 34               656 	mov	a,#0x34
   0032 26                  657 	add	a,@r0
   0033 FA                  658 	mov	r2,a
   0034 E4                  659 	clr	a
   0035 08                  660 	inc	r0
   0036 36                  661 	addc	a,@r0
   0037 FB                  662 	mov	r3,a
   0038 08                  663 	inc	r0
   0039 86 04               664 	mov	ar4,@r0
   003B 8A 82               665 	mov	dpl,r2
   003D 8B 83               666 	mov	dph,r3
   003F 8C F0               667 	mov	b,r4
   0041 12s00r00            668 	lcall	__gptrget
   0044 FF                  669 	mov	r7,a
   0045 0F                  670 	inc	r7
   0046 8A 82               671 	mov	dpl,r2
   0048 8B 83               672 	mov	dph,r3
   004A 8C F0               673 	mov	b,r4
                            674 ;	../../core/net/rime/runicast.c:86: if(c->rxmit != 0) {
   004C EF                  675 	mov	a,r7
   004D 12s00r00            676 	lcall	__gptrput
   0050 60 35               677 	jz	00102$
                            678 ;	../../core/net/rime/runicast.c:87: RIMESTATS_ADD(rexmit);
   0052 C0 02               679 	push	ar2
   0054 C0 03               680 	push	ar3
   0056 C0 04               681 	push	ar4
   0058 90s00r10            682 	mov	dptr,#(_rimestats + 0x0010)
   005B E0                  683 	movx	a,@dptr
   005C FA                  684 	mov	r2,a
   005D A3                  685 	inc	dptr
   005E E0                  686 	movx	a,@dptr
   005F FB                  687 	mov	r3,a
   0060 A3                  688 	inc	dptr
   0061 E0                  689 	movx	a,@dptr
   0062 FC                  690 	mov	r4,a
   0063 A3                  691 	inc	dptr
   0064 E0                  692 	movx	a,@dptr
   0065 FF                  693 	mov	r7,a
   0066 0A                  694 	inc	r2
   0067 BA 00 09            695 	cjne	r2,#0x00,00121$
   006A 0B                  696 	inc	r3
   006B BB 00 05            697 	cjne	r3,#0x00,00121$
   006E 0C                  698 	inc	r4
   006F BC 00 01            699 	cjne	r4,#0x00,00121$
   0072 0F                  700 	inc	r7
   0073                     701 00121$:
   0073 90s00r10            702 	mov	dptr,#(_rimestats + 0x0010)
   0076 EA                  703 	mov	a,r2
   0077 F0                  704 	movx	@dptr,a
   0078 A3                  705 	inc	dptr
   0079 EB                  706 	mov	a,r3
   007A F0                  707 	movx	@dptr,a
   007B A3                  708 	inc	dptr
   007C EC                  709 	mov	a,r4
   007D F0                  710 	movx	@dptr,a
   007E A3                  711 	inc	dptr
   007F EF                  712 	mov	a,r7
   0080 F0                  713 	movx	@dptr,a
                            714 ;	../../core/net/rime/runicast.c:104: c->sndnxt = (c->sndnxt + 1) % (1 << RUNICAST_PACKET_ID_BITS);
   0081 D0 04               715 	pop	ar4
   0083 D0 03               716 	pop	ar3
   0085 D0 02               717 	pop	ar2
                            718 ;	../../core/net/rime/runicast.c:87: RIMESTATS_ADD(rexmit);
   0087                     719 00102$:
                            720 ;	../../core/net/rime/runicast.c:93: if(c->rxmit >= c->max_rxmit) {
   0087 8A 82               721 	mov	dpl,r2
   0089 8B 83               722 	mov	dph,r3
   008B 8C F0               723 	mov	b,r4
   008D 12s00r00            724 	lcall	__gptrget
   0090 FF                  725 	mov	r7,a
   0091 C0 02               726 	push	ar2
   0093 C0 03               727 	push	ar3
   0095 C0 04               728 	push	ar4
   0097 A8*00               729 	mov	r0,_bp
   0099 08                  730 	inc	r0
   009A 74 35               731 	mov	a,#0x35
   009C 26                  732 	add	a,@r0
   009D FC                  733 	mov	r4,a
   009E E4                  734 	clr	a
   009F 08                  735 	inc	r0
   00A0 36                  736 	addc	a,@r0
   00A1 FD                  737 	mov	r5,a
   00A2 08                  738 	inc	r0
   00A3 86 06               739 	mov	ar6,@r0
   00A5 8C 82               740 	mov	dpl,r4
   00A7 8D 83               741 	mov	dph,r5
   00A9 8E F0               742 	mov	b,r6
   00AB 12s00r00            743 	lcall	__gptrget
   00AE FC                  744 	mov	r4,a
   00AF C3                  745 	clr	c
   00B0 EF                  746 	mov	a,r7
   00B1 9C                  747 	subb	a,r4
   00B2 D0 04               748 	pop	ar4
   00B4 D0 03               749 	pop	ar3
   00B6 D0 02               750 	pop	ar2
   00B8 50 03               751 	jnc	00122$
   00BA 02s02r24            752 	ljmp	00109$
   00BD                     753 00122$:
                            754 ;	../../core/net/rime/runicast.c:94: RIMESTATS_ADD(timedout);
   00BD C0 02               755 	push	ar2
   00BF C0 03               756 	push	ar3
   00C1 C0 04               757 	push	ar4
   00C3 90s00r20            758 	mov	dptr,#(_rimestats + 0x0020)
   00C6 E0                  759 	movx	a,@dptr
   00C7 FC                  760 	mov	r4,a
   00C8 A3                  761 	inc	dptr
   00C9 E0                  762 	movx	a,@dptr
   00CA FD                  763 	mov	r5,a
   00CB A3                  764 	inc	dptr
   00CC E0                  765 	movx	a,@dptr
   00CD FE                  766 	mov	r6,a
   00CE A3                  767 	inc	dptr
   00CF E0                  768 	movx	a,@dptr
   00D0 FF                  769 	mov	r7,a
   00D1 0C                  770 	inc	r4
   00D2 BC 00 09            771 	cjne	r4,#0x00,00123$
   00D5 0D                  772 	inc	r5
   00D6 BD 00 05            773 	cjne	r5,#0x00,00123$
   00D9 0E                  774 	inc	r6
   00DA BE 00 01            775 	cjne	r6,#0x00,00123$
   00DD 0F                  776 	inc	r7
   00DE                     777 00123$:
   00DE 90s00r20            778 	mov	dptr,#(_rimestats + 0x0020)
   00E1 EC                  779 	mov	a,r4
   00E2 F0                  780 	movx	@dptr,a
   00E3 A3                  781 	inc	dptr
   00E4 ED                  782 	mov	a,r5
   00E5 F0                  783 	movx	@dptr,a
   00E6 A3                  784 	inc	dptr
   00E7 EE                  785 	mov	a,r6
   00E8 F0                  786 	movx	@dptr,a
   00E9 A3                  787 	inc	dptr
   00EA EF                  788 	mov	a,r7
   00EB F0                  789 	movx	@dptr,a
                            790 ;	../../core/net/rime/runicast.c:95: c->is_tx = 0;
   00EC A8*00               791 	mov	r0,_bp
   00EE 08                  792 	inc	r0
   00EF 74 33               793 	mov	a,#0x33
   00F1 26                  794 	add	a,@r0
   00F2 FD                  795 	mov	r5,a
   00F3 E4                  796 	clr	a
   00F4 08                  797 	inc	r0
   00F5 36                  798 	addc	a,@r0
   00F6 FE                  799 	mov	r6,a
   00F7 08                  800 	inc	r0
   00F8 86 07               801 	mov	ar7,@r0
   00FA 8D 82               802 	mov	dpl,r5
   00FC 8E 83               803 	mov	dph,r6
   00FE 8F F0               804 	mov	b,r7
   0100 E4                  805 	clr	a
   0101 12s00r00            806 	lcall	__gptrput
                            807 ;	../../core/net/rime/runicast.c:96: stunicast_cancel(&c->c);
   0104 A8*00               808 	mov	r0,_bp
   0106 08                  809 	inc	r0
   0107 86 82               810 	mov	dpl,@r0
   0109 08                  811 	inc	r0
   010A 86 83               812 	mov	dph,@r0
   010C 08                  813 	inc	r0
   010D 86 F0               814 	mov	b,@r0
   010F C0 04               815 	push	ar4
   0111 C0 03               816 	push	ar3
   0113 C0 02               817 	push	ar2
   0115 12s00r00            818 	lcall	_stunicast_cancel
   0118 D0 02               819 	pop	ar2
   011A D0 03               820 	pop	ar3
   011C D0 04               821 	pop	ar4
                            822 ;	../../core/net/rime/runicast.c:97: if(c->u->timedout) {
   011E A8*00               823 	mov	r0,_bp
   0120 08                  824 	inc	r0
   0121 74 2F               825 	mov	a,#0x2F
   0123 26                  826 	add	a,@r0
   0124 FD                  827 	mov	r5,a
   0125 E4                  828 	clr	a
   0126 08                  829 	inc	r0
   0127 36                  830 	addc	a,@r0
   0128 FE                  831 	mov	r6,a
   0129 08                  832 	inc	r0
   012A 86 07               833 	mov	ar7,@r0
   012C 8D 82               834 	mov	dpl,r5
   012E 8E 83               835 	mov	dph,r6
   0130 8F F0               836 	mov	b,r7
   0132 12s00r00            837 	lcall	__gptrget
   0135 FD                  838 	mov	r5,a
   0136 A3                  839 	inc	dptr
   0137 12s00r00            840 	lcall	__gptrget
   013A FE                  841 	mov	r6,a
   013B A3                  842 	inc	dptr
   013C 12s00r00            843 	lcall	__gptrget
   013F FF                  844 	mov	r7,a
   0140 74 04               845 	mov	a,#0x04
   0142 2D                  846 	add	a,r5
   0143 FD                  847 	mov	r5,a
   0144 E4                  848 	clr	a
   0145 3E                  849 	addc	a,r6
   0146 FE                  850 	mov	r6,a
   0147 8D 82               851 	mov	dpl,r5
   0149 8E 83               852 	mov	dph,r6
   014B 8F F0               853 	mov	b,r7
   014D E5*00               854 	mov	a,_bp
   014F 24 04               855 	add	a,#0x04
   0151 F8                  856 	mov	r0,a
   0152 12s00r00            857 	lcall	__gptrget
   0155 F6                  858 	mov	@r0,a
   0156 A3                  859 	inc	dptr
   0157 12s00r00            860 	lcall	__gptrget
   015A 08                  861 	inc	r0
   015B F6                  862 	mov	@r0,a
   015C D0 04               863 	pop	ar4
   015E D0 03               864 	pop	ar3
   0160 D0 02               865 	pop	ar2
   0162 E5*00               866 	mov	a,_bp
   0164 24 04               867 	add	a,#0x04
   0166 F8                  868 	mov	r0,a
   0167 E6                  869 	mov	a,@r0
   0168 08                  870 	inc	r0
   0169 46                  871 	orl	a,@r0
   016A 60 63               872 	jz	00104$
                            873 ;	../../core/net/rime/runicast.c:98: c->u->timedout(c, stunicast_receiver(&c->c), c->rxmit);
   016C 8A 82               874 	mov	dpl,r2
   016E 8B 83               875 	mov	dph,r3
   0170 8C F0               876 	mov	b,r4
   0172 E5*00               877 	mov	a,_bp
   0174 24 06               878 	add	a,#0x06
   0176 F8                  879 	mov	r0,a
   0177 12s00r00            880 	lcall	__gptrget
   017A F6                  881 	mov	@r0,a
   017B A8*00               882 	mov	r0,_bp
   017D 08                  883 	inc	r0
   017E 86 82               884 	mov	dpl,@r0
   0180 08                  885 	inc	r0
   0181 86 83               886 	mov	dph,@r0
   0183 08                  887 	inc	r0
   0184 86 F0               888 	mov	b,@r0
   0186 C0 04               889 	push	ar4
   0188 C0 03               890 	push	ar3
   018A C0 02               891 	push	ar2
   018C 12s00r00            892 	lcall	_stunicast_receiver
   018F AD 82               893 	mov	r5,dpl
   0191 AE 83               894 	mov	r6,dph
   0193 AF F0               895 	mov	r7,b
   0195 E5*00               896 	mov	a,_bp
   0197 24 06               897 	add	a,#0x06
   0199 F8                  898 	mov	r0,a
   019A E6                  899 	mov	a,@r0
   019B C0 E0               900 	push	acc
   019D C0 05               901 	push	ar5
   019F C0 06               902 	push	ar6
   01A1 C0 07               903 	push	ar7
   01A3 74rC3               904 	mov	a,#00125$
   01A5 C0 E0               905 	push	acc
   01A7 74s01               906 	mov	a,#(00125$ >> 8)
   01A9 C0 E0               907 	push	acc
   01AB E5*00               908 	mov	a,_bp
   01AD 24 04               909 	add	a,#0x04
   01AF F8                  910 	mov	r0,a
   01B0 E6                  911 	mov	a,@r0
   01B1 C0 E0               912 	push	acc
   01B3 08                  913 	inc	r0
   01B4 E6                  914 	mov	a,@r0
   01B5 C0 E0               915 	push	acc
   01B7 A8*00               916 	mov	r0,_bp
   01B9 08                  917 	inc	r0
   01BA 86 82               918 	mov	dpl,@r0
   01BC 08                  919 	inc	r0
   01BD 86 83               920 	mov	dph,@r0
   01BF 08                  921 	inc	r0
   01C0 86 F0               922 	mov	b,@r0
   01C2 22                  923 	ret
   01C3                     924 00125$:
   01C3 E5 81               925 	mov	a,sp
   01C5 24 FC               926 	add	a,#0xfc
   01C7 F5 81               927 	mov	sp,a
   01C9 D0 02               928 	pop	ar2
   01CB D0 03               929 	pop	ar3
   01CD D0 04               930 	pop	ar4
   01CF                     931 00104$:
                            932 ;	../../core/net/rime/runicast.c:100: c->rxmit = 0;
   01CF 8A 82               933 	mov	dpl,r2
   01D1 8B 83               934 	mov	dph,r3
   01D3 8C F0               935 	mov	b,r4
   01D5 E4                  936 	clr	a
   01D6 12s00r00            937 	lcall	__gptrput
                            938 ;	../../core/net/rime/runicast.c:104: c->sndnxt = (c->sndnxt + 1) % (1 << RUNICAST_PACKET_ID_BITS);
   01D9 A8*00               939 	mov	r0,_bp
   01DB 08                  940 	inc	r0
   01DC 74 32               941 	mov	a,#0x32
   01DE 26                  942 	add	a,@r0
   01DF FD                  943 	mov	r5,a
   01E0 E4                  944 	clr	a
   01E1 08                  945 	inc	r0
   01E2 36                  946 	addc	a,@r0
   01E3 FE                  947 	mov	r6,a
   01E4 08                  948 	inc	r0
   01E5 86 07               949 	mov	ar7,@r0
   01E7 8D 82               950 	mov	dpl,r5
   01E9 8E 83               951 	mov	dph,r6
   01EB 8F F0               952 	mov	b,r7
   01ED 12s00r00            953 	lcall	__gptrget
   01F0 FC                  954 	mov	r4,a
   01F1 7B 00               955 	mov	r3,#0x00
   01F3 0C                  956 	inc	r4
   01F4 BC 00 01            957 	cjne	r4,#0x00,00126$
   01F7 0B                  958 	inc	r3
   01F8                     959 00126$:
   01F8 C0 07               960 	push	ar7
   01FA C0 06               961 	push	ar6
   01FC C0 05               962 	push	ar5
   01FE 74 04               963 	mov	a,#0x04
   0200 C0 E0               964 	push	acc
   0202 E4                  965 	clr	a
   0203 C0 E0               966 	push	acc
   0205 8C 82               967 	mov	dpl,r4
   0207 8B 83               968 	mov	dph,r3
   0209 12s00r00            969 	lcall	__modsint
   020C AB 82               970 	mov	r3,dpl
   020E AC 83               971 	mov	r4,dph
   0210 15 81               972 	dec	sp
   0212 15 81               973 	dec	sp
   0214 D0 05               974 	pop	ar5
   0216 D0 06               975 	pop	ar6
   0218 D0 07               976 	pop	ar7
   021A 8D 82               977 	mov	dpl,r5
   021C 8E 83               978 	mov	dph,r6
   021E 8F F0               979 	mov	b,r7
   0220 EB                  980 	mov	a,r3
   0221 12s00r00            981 	lcall	__gptrput
   0224                     982 00109$:
   0224 85*00 81            983 	mov	sp,_bp
   0227 D0*00               984 	pop	_bp
   0229 22                  985 	ret
                            986 ;------------------------------------------------------------
                            987 ;Allocation info for local variables in function 'recv_from_stunicast'
                            988 ;------------------------------------------------------------
                            989 ;from                      Allocated to stack - _bp -5
                            990 ;stunicast                 Allocated to registers r5 r6 r7 
                            991 ;c                         Allocated to stack - _bp +1
                            992 ;packet_seqno              Allocated to registers r6 r7 
                            993 ;q                         Allocated to stack - _bp +4
                            994 ;sloc0                     Allocated to stack - _bp +7
                            995 ;------------------------------------------------------------
                            996 ;	../../core/net/rime/runicast.c:115: recv_from_stunicast(struct stunicast_conn *stunicast, const rimeaddr_t *from)
                            997 ;	-----------------------------------------
                            998 ;	 function recv_from_stunicast
                            999 ;	-----------------------------------------
   022A                    1000 _recv_from_stunicast:
   022A C0*00              1001 	push	_bp
   022C E5 81              1002 	mov	a,sp
   022E F5*00              1003 	mov	_bp,a
   0230 24 09              1004 	add	a,#0x09
   0232 F5 81              1005 	mov	sp,a
   0234 AD 82              1006 	mov	r5,dpl
   0236 AE 83              1007 	mov	r6,dph
   0238 AF F0              1008 	mov	r7,b
                           1009 ;	../../core/net/rime/runicast.c:117: struct runicast_conn *c = (struct runicast_conn *)stunicast;
   023A A8*00              1010 	mov	r0,_bp
   023C 08                 1011 	inc	r0
   023D A6 05              1012 	mov	@r0,ar5
   023F 08                 1013 	inc	r0
   0240 A6 06              1014 	mov	@r0,ar6
   0242 08                 1015 	inc	r0
   0243 A6 07              1016 	mov	@r0,ar7
                           1017 ;	../../core/net/rime/runicast.c:126: if(packetbuf_attr(PACKETBUF_ATTR_PACKET_TYPE) ==
   0245 75 82 0E           1018 	mov	dpl,#0x0E
   0248 12s00r00           1019 	lcall	_packetbuf_attr
   024B AB 82              1020 	mov	r3,dpl
   024D AC 83              1021 	mov	r4,dph
   024F BB 01 05           1022 	cjne	r3,#0x01,00129$
   0252 BC 00 02           1023 	cjne	r4,#0x00,00129$
   0255 80 03              1024 	sjmp	00130$
   0257                    1025 00129$:
   0257 02s03rE8           1026 	ljmp	00113$
   025A                    1027 00130$:
                           1028 ;	../../core/net/rime/runicast.c:133: if(packetbuf_attr(PACKETBUF_ATTR_PACKET_ID) == c->sndnxt) {
   025A 75 82 0D           1029 	mov	dpl,#0x0D
   025D 12s00r00           1030 	lcall	_packetbuf_attr
   0260 AB 82              1031 	mov	r3,dpl
   0262 AC 83              1032 	mov	r4,dph
   0264 A8*00              1033 	mov	r0,_bp
   0266 08                 1034 	inc	r0
   0267 E5*00              1035 	mov	a,_bp
   0269 24 07              1036 	add	a,#0x07
   026B F9                 1037 	mov	r1,a
   026C 74 32              1038 	mov	a,#0x32
   026E 26                 1039 	add	a,@r0
   026F F7                 1040 	mov	@r1,a
   0270 E4                 1041 	clr	a
   0271 08                 1042 	inc	r0
   0272 36                 1043 	addc	a,@r0
   0273 09                 1044 	inc	r1
   0274 F7                 1045 	mov	@r1,a
   0275 08                 1046 	inc	r0
   0276 09                 1047 	inc	r1
   0277 E6                 1048 	mov	a,@r0
   0278 F7                 1049 	mov	@r1,a
   0279 E5*00              1050 	mov	a,_bp
   027B 24 07              1051 	add	a,#0x07
   027D F8                 1052 	mov	r0,a
   027E 86 82              1053 	mov	dpl,@r0
   0280 08                 1054 	inc	r0
   0281 86 83              1055 	mov	dph,@r0
   0283 08                 1056 	inc	r0
   0284 86 F0              1057 	mov	b,@r0
   0286 12s00r00           1058 	lcall	__gptrget
   0289 FA                 1059 	mov	r2,a
   028A FE                 1060 	mov	r6,a
   028B 7F 00              1061 	mov	r7,#0x00
   028D EB                 1062 	mov	a,r3
   028E B5 06 06           1063 	cjne	a,ar6,00131$
   0291 EC                 1064 	mov	a,r4
   0292 B5 07 02           1065 	cjne	a,ar7,00131$
   0295 80 03              1066 	sjmp	00132$
   0297                    1067 00131$:
   0297 02s03rBC           1068 	ljmp	00104$
   029A                    1069 00132$:
                           1070 ;	../../core/net/rime/runicast.c:134: RIMESTATS_ADD(ackrx);
   029A 90s00r1C           1071 	mov	dptr,#(_rimestats + 0x001c)
   029D E0                 1072 	movx	a,@dptr
   029E FB                 1073 	mov	r3,a
   029F A3                 1074 	inc	dptr
   02A0 E0                 1075 	movx	a,@dptr
   02A1 FC                 1076 	mov	r4,a
   02A2 A3                 1077 	inc	dptr
   02A3 E0                 1078 	movx	a,@dptr
   02A4 FE                 1079 	mov	r6,a
   02A5 A3                 1080 	inc	dptr
   02A6 E0                 1081 	movx	a,@dptr
   02A7 FF                 1082 	mov	r7,a
   02A8 0B                 1083 	inc	r3
   02A9 BB 00 09           1084 	cjne	r3,#0x00,00133$
   02AC 0C                 1085 	inc	r4
   02AD BC 00 05           1086 	cjne	r4,#0x00,00133$
   02B0 0E                 1087 	inc	r6
   02B1 BE 00 01           1088 	cjne	r6,#0x00,00133$
   02B4 0F                 1089 	inc	r7
   02B5                    1090 00133$:
   02B5 90s00r1C           1091 	mov	dptr,#(_rimestats + 0x001c)
   02B8 EB                 1092 	mov	a,r3
   02B9 F0                 1093 	movx	@dptr,a
   02BA A3                 1094 	inc	dptr
   02BB EC                 1095 	mov	a,r4
   02BC F0                 1096 	movx	@dptr,a
   02BD A3                 1097 	inc	dptr
   02BE EE                 1098 	mov	a,r6
   02BF F0                 1099 	movx	@dptr,a
   02C0 A3                 1100 	inc	dptr
   02C1 EF                 1101 	mov	a,r7
   02C2 F0                 1102 	movx	@dptr,a
                           1103 ;	../../core/net/rime/runicast.c:138: c->sndnxt = (c->sndnxt + 1) % (1 << RUNICAST_PACKET_ID_BITS);
   02C3 7F 00              1104 	mov	r7,#0x00
   02C5 0A                 1105 	inc	r2
   02C6 BA 00 01           1106 	cjne	r2,#0x00,00134$
   02C9 0F                 1107 	inc	r7
   02CA                    1108 00134$:
   02CA 74 04              1109 	mov	a,#0x04
   02CC C0 E0              1110 	push	acc
   02CE E4                 1111 	clr	a
   02CF C0 E0              1112 	push	acc
   02D1 8A 82              1113 	mov	dpl,r2
   02D3 8F 83              1114 	mov	dph,r7
   02D5 12s00r00           1115 	lcall	__modsint
   02D8 AE 82              1116 	mov	r6,dpl
   02DA 15 81              1117 	dec	sp
   02DC 15 81              1118 	dec	sp
   02DE E5*00              1119 	mov	a,_bp
   02E0 24 07              1120 	add	a,#0x07
   02E2 F8                 1121 	mov	r0,a
   02E3 86 82              1122 	mov	dpl,@r0
   02E5 08                 1123 	inc	r0
   02E6 86 83              1124 	mov	dph,@r0
   02E8 08                 1125 	inc	r0
   02E9 86 F0              1126 	mov	b,@r0
   02EB EE                 1127 	mov	a,r6
   02EC 12s00r00           1128 	lcall	__gptrput
                           1129 ;	../../core/net/rime/runicast.c:139: c->is_tx = 0;
   02EF A8*00              1130 	mov	r0,_bp
   02F1 08                 1131 	inc	r0
   02F2 74 33              1132 	mov	a,#0x33
   02F4 26                 1133 	add	a,@r0
   02F5 FD                 1134 	mov	r5,a
   02F6 E4                 1135 	clr	a
   02F7 08                 1136 	inc	r0
   02F8 36                 1137 	addc	a,@r0
   02F9 FE                 1138 	mov	r6,a
   02FA 08                 1139 	inc	r0
   02FB 86 07              1140 	mov	ar7,@r0
   02FD 8D 82              1141 	mov	dpl,r5
   02FF 8E 83              1142 	mov	dph,r6
   0301 8F F0              1143 	mov	b,r7
   0303 E4                 1144 	clr	a
   0304 12s00r00           1145 	lcall	__gptrput
                           1146 ;	../../core/net/rime/runicast.c:140: stunicast_cancel(&c->c);
   0307 A8*00              1147 	mov	r0,_bp
   0309 08                 1148 	inc	r0
   030A 86 82              1149 	mov	dpl,@r0
   030C 08                 1150 	inc	r0
   030D 86 83              1151 	mov	dph,@r0
   030F 08                 1152 	inc	r0
   0310 86 F0              1153 	mov	b,@r0
   0312 12s00r00           1154 	lcall	_stunicast_cancel
                           1155 ;	../../core/net/rime/runicast.c:141: if(c->u->sent != NULL) {
   0315 A8*00              1156 	mov	r0,_bp
   0317 08                 1157 	inc	r0
   0318 74 2F              1158 	mov	a,#0x2F
   031A 26                 1159 	add	a,@r0
   031B FD                 1160 	mov	r5,a
   031C E4                 1161 	clr	a
   031D 08                 1162 	inc	r0
   031E 36                 1163 	addc	a,@r0
   031F FE                 1164 	mov	r6,a
   0320 08                 1165 	inc	r0
   0321 86 07              1166 	mov	ar7,@r0
   0323 8D 82              1167 	mov	dpl,r5
   0325 8E 83              1168 	mov	dph,r6
   0327 8F F0              1169 	mov	b,r7
   0329 12s00r00           1170 	lcall	__gptrget
   032C FD                 1171 	mov	r5,a
   032D A3                 1172 	inc	dptr
   032E 12s00r00           1173 	lcall	__gptrget
   0331 FE                 1174 	mov	r6,a
   0332 A3                 1175 	inc	dptr
   0333 12s00r00           1176 	lcall	__gptrget
   0336 FF                 1177 	mov	r7,a
   0337 74 02              1178 	mov	a,#0x02
   0339 2D                 1179 	add	a,r5
   033A FD                 1180 	mov	r5,a
   033B E4                 1181 	clr	a
   033C 3E                 1182 	addc	a,r6
   033D FE                 1183 	mov	r6,a
   033E 8D 82              1184 	mov	dpl,r5
   0340 8E 83              1185 	mov	dph,r6
   0342 8F F0              1186 	mov	b,r7
   0344 12s00r00           1187 	lcall	__gptrget
   0347 FE                 1188 	mov	r6,a
   0348 A3                 1189 	inc	dptr
   0349 12s00r00           1190 	lcall	__gptrget
   034C FF                 1191 	mov	r7,a
   034D 4E                 1192 	orl	a,r6
   034E 70 03              1193 	jnz	00135$
   0350 02s05r73           1194 	ljmp	00115$
   0353                    1195 00135$:
                           1196 ;	../../core/net/rime/runicast.c:142: c->u->sent(c, stunicast_receiver(&c->c), c->rxmit);
   0353 A8*00              1197 	mov	r0,_bp
   0355 08                 1198 	inc	r0
   0356 74 34              1199 	mov	a,#0x34
   0358 26                 1200 	add	a,@r0
   0359 FB                 1201 	mov	r3,a
   035A E4                 1202 	clr	a
   035B 08                 1203 	inc	r0
   035C 36                 1204 	addc	a,@r0
   035D FC                 1205 	mov	r4,a
   035E 08                 1206 	inc	r0
   035F 86 05              1207 	mov	ar5,@r0
   0361 8B 82              1208 	mov	dpl,r3
   0363 8C 83              1209 	mov	dph,r4
   0365 8D F0              1210 	mov	b,r5
   0367 12s00r00           1211 	lcall	__gptrget
   036A FB                 1212 	mov	r3,a
   036B A8*00              1213 	mov	r0,_bp
   036D 08                 1214 	inc	r0
   036E 86 82              1215 	mov	dpl,@r0
   0370 08                 1216 	inc	r0
   0371 86 83              1217 	mov	dph,@r0
   0373 08                 1218 	inc	r0
   0374 86 F0              1219 	mov	b,@r0
   0376 C0 07              1220 	push	ar7
   0378 C0 06              1221 	push	ar6
   037A C0 03              1222 	push	ar3
   037C 12s00r00           1223 	lcall	_stunicast_receiver
   037F AA 82              1224 	mov	r2,dpl
   0381 AC 83              1225 	mov	r4,dph
   0383 AD F0              1226 	mov	r5,b
   0385 D0 03              1227 	pop	ar3
   0387 D0 06              1228 	pop	ar6
   0389 D0 07              1229 	pop	ar7
   038B C0 07              1230 	push	ar7
   038D C0 06              1231 	push	ar6
   038F C0 03              1232 	push	ar3
   0391 C0 02              1233 	push	ar2
   0393 C0 04              1234 	push	ar4
   0395 C0 05              1235 	push	ar5
   0397 74rAF              1236 	mov	a,#00136$
   0399 C0 E0              1237 	push	acc
   039B 74s03              1238 	mov	a,#(00136$ >> 8)
   039D C0 E0              1239 	push	acc
   039F C0 06              1240 	push	ar6
   03A1 C0 07              1241 	push	ar7
   03A3 A8*00              1242 	mov	r0,_bp
   03A5 08                 1243 	inc	r0
   03A6 86 82              1244 	mov	dpl,@r0
   03A8 08                 1245 	inc	r0
   03A9 86 83              1246 	mov	dph,@r0
   03AB 08                 1247 	inc	r0
   03AC 86 F0              1248 	mov	b,@r0
   03AE 22                 1249 	ret
   03AF                    1250 00136$:
   03AF E5 81              1251 	mov	a,sp
   03B1 24 FC              1252 	add	a,#0xfc
   03B3 F5 81              1253 	mov	sp,a
   03B5 D0 06              1254 	pop	ar6
   03B7 D0 07              1255 	pop	ar7
   03B9 02s05r73           1256 	ljmp	00115$
   03BC                    1257 00104$:
                           1258 ;	../../core/net/rime/runicast.c:149: RIMESTATS_ADD(badackrx);
   03BC 90s00r24           1259 	mov	dptr,#(_rimestats + 0x0024)
   03BF E0                 1260 	movx	a,@dptr
   03C0 FC                 1261 	mov	r4,a
   03C1 A3                 1262 	inc	dptr
   03C2 E0                 1263 	movx	a,@dptr
   03C3 FD                 1264 	mov	r5,a
   03C4 A3                 1265 	inc	dptr
   03C5 E0                 1266 	movx	a,@dptr
   03C6 FE                 1267 	mov	r6,a
   03C7 A3                 1268 	inc	dptr
   03C8 E0                 1269 	movx	a,@dptr
   03C9 FF                 1270 	mov	r7,a
   03CA 0C                 1271 	inc	r4
   03CB BC 00 09           1272 	cjne	r4,#0x00,00137$
   03CE 0D                 1273 	inc	r5
   03CF BD 00 05           1274 	cjne	r5,#0x00,00137$
   03D2 0E                 1275 	inc	r6
   03D3 BE 00 01           1276 	cjne	r6,#0x00,00137$
   03D6 0F                 1277 	inc	r7
   03D7                    1278 00137$:
   03D7 90s00r24           1279 	mov	dptr,#(_rimestats + 0x0024)
   03DA EC                 1280 	mov	a,r4
   03DB F0                 1281 	movx	@dptr,a
   03DC A3                 1282 	inc	dptr
   03DD ED                 1283 	mov	a,r5
   03DE F0                 1284 	movx	@dptr,a
   03DF A3                 1285 	inc	dptr
   03E0 EE                 1286 	mov	a,r6
   03E1 F0                 1287 	movx	@dptr,a
   03E2 A3                 1288 	inc	dptr
   03E3 EF                 1289 	mov	a,r7
   03E4 F0                 1290 	movx	@dptr,a
   03E5 02s05r73           1291 	ljmp	00115$
   03E8                    1292 00113$:
                           1293 ;	../../core/net/rime/runicast.c:151: } else if(packetbuf_attr(PACKETBUF_ATTR_PACKET_TYPE) ==
   03E8 75 82 0E           1294 	mov	dpl,#0x0E
   03EB 12s00r00           1295 	lcall	_packetbuf_attr
   03EE E5 82              1296 	mov	a,dpl
   03F0 85 83 F0           1297 	mov	b,dph
   03F3 45 F0              1298 	orl	a,b
   03F5 60 03              1299 	jz	00138$
   03F7 02s05r73           1300 	ljmp	00115$
   03FA                    1301 00138$:
                           1302 ;	../../core/net/rime/runicast.c:157: RIMESTATS_ADD(reliablerx);
   03FA 90s00r0C           1303 	mov	dptr,#(_rimestats + 0x000c)
   03FD E0                 1304 	movx	a,@dptr
   03FE FC                 1305 	mov	r4,a
   03FF A3                 1306 	inc	dptr
   0400 E0                 1307 	movx	a,@dptr
   0401 FD                 1308 	mov	r5,a
   0402 A3                 1309 	inc	dptr
   0403 E0                 1310 	movx	a,@dptr
   0404 FE                 1311 	mov	r6,a
   0405 A3                 1312 	inc	dptr
   0406 E0                 1313 	movx	a,@dptr
   0407 FF                 1314 	mov	r7,a
   0408 0C                 1315 	inc	r4
   0409 BC 00 09           1316 	cjne	r4,#0x00,00139$
   040C 0D                 1317 	inc	r5
   040D BD 00 05           1318 	cjne	r5,#0x00,00139$
   0410 0E                 1319 	inc	r6
   0411 BE 00 01           1320 	cjne	r6,#0x00,00139$
   0414 0F                 1321 	inc	r7
   0415                    1322 00139$:
   0415 90s00r0C           1323 	mov	dptr,#(_rimestats + 0x000c)
   0418 EC                 1324 	mov	a,r4
   0419 F0                 1325 	movx	@dptr,a
   041A A3                 1326 	inc	dptr
   041B ED                 1327 	mov	a,r5
   041C F0                 1328 	movx	@dptr,a
   041D A3                 1329 	inc	dptr
   041E EE                 1330 	mov	a,r6
   041F F0                 1331 	movx	@dptr,a
   0420 A3                 1332 	inc	dptr
   0421 EF                 1333 	mov	a,r7
   0422 F0                 1334 	movx	@dptr,a
                           1335 ;	../../core/net/rime/runicast.c:163: packet_seqno = packetbuf_attr(PACKETBUF_ATTR_PACKET_ID);
   0423 75 82 0D           1336 	mov	dpl,#0x0D
   0426 12s00r00           1337 	lcall	_packetbuf_attr
   0429 AE 82              1338 	mov	r6,dpl
   042B AF 83              1339 	mov	r7,dph
                           1340 ;	../../core/net/rime/runicast.c:167: q = queuebuf_new_from_packetbuf();
   042D C0 07              1341 	push	ar7
   042F C0 06              1342 	push	ar6
   0431 12s00r00           1343 	lcall	_queuebuf_new_from_packetbuf
   0434 AB 82              1344 	mov	r3,dpl
   0436 AC 83              1345 	mov	r4,dph
   0438 AD F0              1346 	mov	r5,b
   043A D0 06              1347 	pop	ar6
   043C D0 07              1348 	pop	ar7
   043E E5*00              1349 	mov	a,_bp
   0440 24 04              1350 	add	a,#0x04
   0442 F8                 1351 	mov	r0,a
   0443 A6 03              1352 	mov	@r0,ar3
   0445 08                 1353 	inc	r0
   0446 A6 04              1354 	mov	@r0,ar4
   0448 08                 1355 	inc	r0
   0449 A6 05              1356 	mov	@r0,ar5
                           1357 ;	../../core/net/rime/runicast.c:168: if(q != NULL) {
   044B E5*00              1358 	mov	a,_bp
   044D 24 04              1359 	add	a,#0x04
   044F F8                 1360 	mov	r0,a
   0450 E6                 1361 	mov	a,@r0
   0451 08                 1362 	inc	r0
   0452 46                 1363 	orl	a,@r0
   0453 70 03              1364 	jnz	00140$
   0455 02s05r07           1365 	ljmp	00107$
   0458                    1366 00140$:
                           1367 ;	../../core/net/rime/runicast.c:173: packetbuf_clear();
   0458 C0 07              1368 	push	ar7
   045A C0 06              1369 	push	ar6
   045C 12s00r00           1370 	lcall	_packetbuf_clear
                           1371 ;	../../core/net/rime/runicast.c:178: packetbuf_set_attr(PACKETBUF_ATTR_PACKET_TYPE, PACKETBUF_ATTR_PACKET_TYPE_ACK);
   045F 74 01              1372 	mov	a,#0x01
   0461 C0 E0              1373 	push	acc
   0463 E4                 1374 	clr	a
   0464 C0 E0              1375 	push	acc
   0466 75 82 0E           1376 	mov	dpl,#0x0E
   0469 12s00r00           1377 	lcall	_packetbuf_set_attr
   046C 15 81              1378 	dec	sp
   046E 15 81              1379 	dec	sp
   0470 D0 06              1380 	pop	ar6
   0472 D0 07              1381 	pop	ar7
                           1382 ;	../../core/net/rime/runicast.c:179: packetbuf_set_attr(PACKETBUF_ATTR_PACKET_ID, packet_seqno);
   0474 C0 07              1383 	push	ar7
   0476 C0 06              1384 	push	ar6
   0478 C0 06              1385 	push	ar6
   047A C0 07              1386 	push	ar7
   047C 75 82 0D           1387 	mov	dpl,#0x0D
   047F 12s00r00           1388 	lcall	_packetbuf_set_attr
   0482 15 81              1389 	dec	sp
   0484 15 81              1390 	dec	sp
                           1391 ;	../../core/net/rime/runicast.c:180: stunicast_send(&c->c, from);
   0486 E5*00              1392 	mov	a,_bp
   0488 24 FB              1393 	add	a,#0xfb
   048A F8                 1394 	mov	r0,a
   048B E6                 1395 	mov	a,@r0
   048C C0 E0              1396 	push	acc
   048E 08                 1397 	inc	r0
   048F E6                 1398 	mov	a,@r0
   0490 C0 E0              1399 	push	acc
   0492 08                 1400 	inc	r0
   0493 E6                 1401 	mov	a,@r0
   0494 C0 E0              1402 	push	acc
   0496 A8*00              1403 	mov	r0,_bp
   0498 08                 1404 	inc	r0
   0499 86 82              1405 	mov	dpl,@r0
   049B 08                 1406 	inc	r0
   049C 86 83              1407 	mov	dph,@r0
   049E 08                 1408 	inc	r0
   049F 86 F0              1409 	mov	b,@r0
   04A1 12s00r00           1410 	lcall	_stunicast_send
   04A4 15 81              1411 	dec	sp
   04A6 15 81              1412 	dec	sp
   04A8 15 81              1413 	dec	sp
   04AA D0 06              1414 	pop	ar6
   04AC D0 07              1415 	pop	ar7
                           1416 ;	../../core/net/rime/runicast.c:181: RIMESTATS_ADD(acktx);
   04AE C0 06              1417 	push	ar6
   04B0 C0 07              1418 	push	ar7
   04B2 90s00r14           1419 	mov	dptr,#(_rimestats + 0x0014)
   04B5 E0                 1420 	movx	a,@dptr
   04B6 FA                 1421 	mov	r2,a
   04B7 A3                 1422 	inc	dptr
   04B8 E0                 1423 	movx	a,@dptr
   04B9 FD                 1424 	mov	r5,a
   04BA A3                 1425 	inc	dptr
   04BB E0                 1426 	movx	a,@dptr
   04BC FE                 1427 	mov	r6,a
   04BD A3                 1428 	inc	dptr
   04BE E0                 1429 	movx	a,@dptr
   04BF FF                 1430 	mov	r7,a
   04C0 0A                 1431 	inc	r2
   04C1 BA 00 09           1432 	cjne	r2,#0x00,00141$
   04C4 0D                 1433 	inc	r5
   04C5 BD 00 05           1434 	cjne	r5,#0x00,00141$
   04C8 0E                 1435 	inc	r6
   04C9 BE 00 01           1436 	cjne	r6,#0x00,00141$
   04CC 0F                 1437 	inc	r7
   04CD                    1438 00141$:
   04CD 90s00r14           1439 	mov	dptr,#(_rimestats + 0x0014)
   04D0 EA                 1440 	mov	a,r2
   04D1 F0                 1441 	movx	@dptr,a
   04D2 A3                 1442 	inc	dptr
   04D3 ED                 1443 	mov	a,r5
   04D4 F0                 1444 	movx	@dptr,a
   04D5 A3                 1445 	inc	dptr
   04D6 EE                 1446 	mov	a,r6
   04D7 F0                 1447 	movx	@dptr,a
   04D8 A3                 1448 	inc	dptr
   04D9 EF                 1449 	mov	a,r7
   04DA F0                 1450 	movx	@dptr,a
                           1451 ;	../../core/net/rime/runicast.c:183: queuebuf_to_packetbuf(q);
   04DB E5*00              1452 	mov	a,_bp
   04DD 24 04              1453 	add	a,#0x04
   04DF F8                 1454 	mov	r0,a
   04E0 86 82              1455 	mov	dpl,@r0
   04E2 08                 1456 	inc	r0
   04E3 86 83              1457 	mov	dph,@r0
   04E5 08                 1458 	inc	r0
   04E6 86 F0              1459 	mov	b,@r0
   04E8 C0 07              1460 	push	ar7
   04EA C0 06              1461 	push	ar6
   04EC 12s00r00           1462 	lcall	_queuebuf_to_packetbuf
                           1463 ;	../../core/net/rime/runicast.c:184: queuebuf_free(q);
   04EF E5*00              1464 	mov	a,_bp
   04F1 24 04              1465 	add	a,#0x04
   04F3 F8                 1466 	mov	r0,a
   04F4 86 82              1467 	mov	dpl,@r0
   04F6 08                 1468 	inc	r0
   04F7 86 83              1469 	mov	dph,@r0
   04F9 08                 1470 	inc	r0
   04FA 86 F0              1471 	mov	b,@r0
   04FC 12s00r00           1472 	lcall	_queuebuf_free
   04FF D0 06              1473 	pop	ar6
   0501 D0 07              1474 	pop	ar7
                           1475 ;	../../core/net/rime/runicast.c:192: c->u->recv(c, from, packet_seqno);
   0503 D0 07              1476 	pop	ar7
   0505 D0 06              1477 	pop	ar6
                           1478 ;	../../core/net/rime/runicast.c:184: queuebuf_free(q);
   0507                    1479 00107$:
                           1480 ;	../../core/net/rime/runicast.c:191: if(c->u->recv != NULL) {
   0507 A8*00              1481 	mov	r0,_bp
   0509 08                 1482 	inc	r0
   050A 74 2F              1483 	mov	a,#0x2F
   050C 26                 1484 	add	a,@r0
   050D FB                 1485 	mov	r3,a
   050E E4                 1486 	clr	a
   050F 08                 1487 	inc	r0
   0510 36                 1488 	addc	a,@r0
   0511 FC                 1489 	mov	r4,a
   0512 08                 1490 	inc	r0
   0513 86 05              1491 	mov	ar5,@r0
   0515 8B 82              1492 	mov	dpl,r3
   0517 8C 83              1493 	mov	dph,r4
   0519 8D F0              1494 	mov	b,r5
   051B 12s00r00           1495 	lcall	__gptrget
   051E FB                 1496 	mov	r3,a
   051F A3                 1497 	inc	dptr
   0520 12s00r00           1498 	lcall	__gptrget
   0523 FC                 1499 	mov	r4,a
   0524 A3                 1500 	inc	dptr
   0525 12s00r00           1501 	lcall	__gptrget
   0528 FD                 1502 	mov	r5,a
   0529 8B 82              1503 	mov	dpl,r3
   052B 8C 83              1504 	mov	dph,r4
   052D 8D F0              1505 	mov	b,r5
   052F 12s00r00           1506 	lcall	__gptrget
   0532 FC                 1507 	mov	r4,a
   0533 A3                 1508 	inc	dptr
   0534 12s00r00           1509 	lcall	__gptrget
   0537 FD                 1510 	mov	r5,a
   0538 4C                 1511 	orl	a,r4
   0539 60 38              1512 	jz	00115$
                           1513 ;	../../core/net/rime/runicast.c:192: c->u->recv(c, from, packet_seqno);
   053B C0 05              1514 	push	ar5
   053D C0 04              1515 	push	ar4
   053F C0 06              1516 	push	ar6
   0541 E5*00              1517 	mov	a,_bp
   0543 24 FB              1518 	add	a,#0xfb
   0545 F8                 1519 	mov	r0,a
   0546 E6                 1520 	mov	a,@r0
   0547 C0 E0              1521 	push	acc
   0549 08                 1522 	inc	r0
   054A E6                 1523 	mov	a,@r0
   054B C0 E0              1524 	push	acc
   054D 08                 1525 	inc	r0
   054E E6                 1526 	mov	a,@r0
   054F C0 E0              1527 	push	acc
   0551 74r69              1528 	mov	a,#00143$
   0553 C0 E0              1529 	push	acc
   0555 74s05              1530 	mov	a,#(00143$ >> 8)
   0557 C0 E0              1531 	push	acc
   0559 C0 04              1532 	push	ar4
   055B C0 05              1533 	push	ar5
   055D A8*00              1534 	mov	r0,_bp
   055F 08                 1535 	inc	r0
   0560 86 82              1536 	mov	dpl,@r0
   0562 08                 1537 	inc	r0
   0563 86 83              1538 	mov	dph,@r0
   0565 08                 1539 	inc	r0
   0566 86 F0              1540 	mov	b,@r0
   0568 22                 1541 	ret
   0569                    1542 00143$:
   0569 E5 81              1543 	mov	a,sp
   056B 24 FC              1544 	add	a,#0xfc
   056D F5 81              1545 	mov	sp,a
   056F D0 04              1546 	pop	ar4
   0571 D0 05              1547 	pop	ar5
   0573                    1548 00115$:
   0573 85*00 81           1549 	mov	sp,_bp
   0576 D0*00              1550 	pop	_bp
   0578 22                 1551 	ret
                           1552 ;------------------------------------------------------------
                           1553 ;Allocation info for local variables in function 'runicast_open'
                           1554 ;------------------------------------------------------------
                           1555 ;channel                   Allocated to stack - _bp -4
                           1556 ;u                         Allocated to stack - _bp -7
                           1557 ;c                         Allocated to registers r5 r6 r7 
                           1558 ;------------------------------------------------------------
                           1559 ;	../../core/net/rime/runicast.c:201: runicast_open(struct runicast_conn *c, uint16_t channel,
                           1560 ;	-----------------------------------------
                           1561 ;	 function runicast_open
                           1562 ;	-----------------------------------------
   0579                    1563 _runicast_open:
   0579 C0*00              1564 	push	_bp
   057B 85 81*00           1565 	mov	_bp,sp
   057E AD 82              1566 	mov	r5,dpl
   0580 AE 83              1567 	mov	r6,dph
   0582 AF F0              1568 	mov	r7,b
                           1569 ;	../../core/net/rime/runicast.c:204: stunicast_open(&c->c, channel, &runicast);
   0584 C0 07              1570 	push	ar7
   0586 C0 06              1571 	push	ar6
   0588 C0 05              1572 	push	ar5
   058A 74r0A              1573 	mov	a,#_runicast
   058C C0 E0              1574 	push	acc
   058E 74s00              1575 	mov	a,#(_runicast >> 8)
   0590 C0 E0              1576 	push	acc
   0592 74 80              1577 	mov	a,#0x80
   0594 C0 E0              1578 	push	acc
   0596 E5*00              1579 	mov	a,_bp
   0598 24 FC              1580 	add	a,#0xfc
   059A F8                 1581 	mov	r0,a
   059B E6                 1582 	mov	a,@r0
   059C C0 E0              1583 	push	acc
   059E 08                 1584 	inc	r0
   059F E6                 1585 	mov	a,@r0
   05A0 C0 E0              1586 	push	acc
   05A2 8D 82              1587 	mov	dpl,r5
   05A4 8E 83              1588 	mov	dph,r6
   05A6 8F F0              1589 	mov	b,r7
   05A8 12s00r00           1590 	lcall	_stunicast_open
   05AB E5 81              1591 	mov	a,sp
   05AD 24 FB              1592 	add	a,#0xfb
   05AF F5 81              1593 	mov	sp,a
                           1594 ;	../../core/net/rime/runicast.c:205: channel_set_attributes(channel, attributes);
   05B1 74r00              1595 	mov	a,#_attributes
   05B3 C0 E0              1596 	push	acc
   05B5 74s00              1597 	mov	a,#(_attributes >> 8)
   05B7 C0 E0              1598 	push	acc
   05B9 74 80              1599 	mov	a,#0x80
   05BB C0 E0              1600 	push	acc
   05BD E5*00              1601 	mov	a,_bp
   05BF 24 FC              1602 	add	a,#0xfc
   05C1 F8                 1603 	mov	r0,a
   05C2 86 82              1604 	mov	dpl,@r0
   05C4 08                 1605 	inc	r0
   05C5 86 83              1606 	mov	dph,@r0
   05C7 12s00r00           1607 	lcall	_channel_set_attributes
   05CA 15 81              1608 	dec	sp
   05CC 15 81              1609 	dec	sp
   05CE 15 81              1610 	dec	sp
   05D0 D0 05              1611 	pop	ar5
   05D2 D0 06              1612 	pop	ar6
   05D4 D0 07              1613 	pop	ar7
                           1614 ;	../../core/net/rime/runicast.c:206: c->u = u;
   05D6 74 2F              1615 	mov	a,#0x2F
   05D8 2D                 1616 	add	a,r5
   05D9 FA                 1617 	mov	r2,a
   05DA E4                 1618 	clr	a
   05DB 3E                 1619 	addc	a,r6
   05DC FB                 1620 	mov	r3,a
   05DD 8F 04              1621 	mov	ar4,r7
   05DF 8A 82              1622 	mov	dpl,r2
   05E1 8B 83              1623 	mov	dph,r3
   05E3 8C F0              1624 	mov	b,r4
   05E5 E5*00              1625 	mov	a,_bp
   05E7 24 F9              1626 	add	a,#0xf9
   05E9 F8                 1627 	mov	r0,a
   05EA E6                 1628 	mov	a,@r0
   05EB 12s00r00           1629 	lcall	__gptrput
   05EE A3                 1630 	inc	dptr
   05EF 08                 1631 	inc	r0
   05F0 E6                 1632 	mov	a,@r0
   05F1 12s00r00           1633 	lcall	__gptrput
   05F4 A3                 1634 	inc	dptr
   05F5 08                 1635 	inc	r0
   05F6 E6                 1636 	mov	a,@r0
   05F7 12s00r00           1637 	lcall	__gptrput
                           1638 ;	../../core/net/rime/runicast.c:207: c->is_tx = 0;
   05FA 74 33              1639 	mov	a,#0x33
   05FC 2D                 1640 	add	a,r5
   05FD FA                 1641 	mov	r2,a
   05FE E4                 1642 	clr	a
   05FF 3E                 1643 	addc	a,r6
   0600 FB                 1644 	mov	r3,a
   0601 8F 04              1645 	mov	ar4,r7
   0603 8A 82              1646 	mov	dpl,r2
   0605 8B 83              1647 	mov	dph,r3
   0607 8C F0              1648 	mov	b,r4
   0609 E4                 1649 	clr	a
   060A 12s00r00           1650 	lcall	__gptrput
                           1651 ;	../../core/net/rime/runicast.c:208: c->rxmit = 0;
   060D 74 34              1652 	mov	a,#0x34
   060F 2D                 1653 	add	a,r5
   0610 FA                 1654 	mov	r2,a
   0611 E4                 1655 	clr	a
   0612 3E                 1656 	addc	a,r6
   0613 FB                 1657 	mov	r3,a
   0614 8F 04              1658 	mov	ar4,r7
   0616 8A 82              1659 	mov	dpl,r2
   0618 8B 83              1660 	mov	dph,r3
   061A 8C F0              1661 	mov	b,r4
   061C E4                 1662 	clr	a
   061D 12s00r00           1663 	lcall	__gptrput
                           1664 ;	../../core/net/rime/runicast.c:209: c->sndnxt = 0;
   0620 74 32              1665 	mov	a,#0x32
   0622 2D                 1666 	add	a,r5
   0623 FD                 1667 	mov	r5,a
   0624 E4                 1668 	clr	a
   0625 3E                 1669 	addc	a,r6
   0626 FE                 1670 	mov	r6,a
   0627 8D 82              1671 	mov	dpl,r5
   0629 8E 83              1672 	mov	dph,r6
   062B 8F F0              1673 	mov	b,r7
   062D E4                 1674 	clr	a
   062E 12s00r00           1675 	lcall	__gptrput
   0631 D0*00              1676 	pop	_bp
   0633 22                 1677 	ret
                           1678 ;------------------------------------------------------------
                           1679 ;Allocation info for local variables in function 'runicast_close'
                           1680 ;------------------------------------------------------------
                           1681 ;c                         Allocated to registers r5 r6 r7 
                           1682 ;------------------------------------------------------------
                           1683 ;	../../core/net/rime/runicast.c:213: runicast_close(struct runicast_conn *c)
                           1684 ;	-----------------------------------------
                           1685 ;	 function runicast_close
                           1686 ;	-----------------------------------------
   0634                    1687 _runicast_close:
                           1688 ;	../../core/net/rime/runicast.c:215: stunicast_close(&c->c);
   0634 02s00r00           1689 	ljmp	_stunicast_close
                           1690 ;------------------------------------------------------------
                           1691 ;Allocation info for local variables in function 'runicast_is_transmitting'
                           1692 ;------------------------------------------------------------
                           1693 ;c                         Allocated to registers r5 r6 r7 
                           1694 ;------------------------------------------------------------
                           1695 ;	../../core/net/rime/runicast.c:219: runicast_is_transmitting(struct runicast_conn *c)
                           1696 ;	-----------------------------------------
                           1697 ;	 function runicast_is_transmitting
                           1698 ;	-----------------------------------------
   0637                    1699 _runicast_is_transmitting:
   0637 AD 82              1700 	mov	r5,dpl
   0639 AE 83              1701 	mov	r6,dph
   063B AF F0              1702 	mov	r7,b
                           1703 ;	../../core/net/rime/runicast.c:221: return c->is_tx;
   063D 74 33              1704 	mov	a,#0x33
   063F 2D                 1705 	add	a,r5
   0640 FD                 1706 	mov	r5,a
   0641 E4                 1707 	clr	a
   0642 3E                 1708 	addc	a,r6
   0643 FE                 1709 	mov	r6,a
   0644 8D 82              1710 	mov	dpl,r5
   0646 8E 83              1711 	mov	dph,r6
   0648 8F F0              1712 	mov	b,r7
   064A 12s00r00           1713 	lcall	__gptrget
   064D F5 82              1714 	mov	dpl,a
   064F 22                 1715 	ret
                           1716 ;------------------------------------------------------------
                           1717 ;Allocation info for local variables in function 'runicast_send'
                           1718 ;------------------------------------------------------------
                           1719 ;receiver                  Allocated to stack - _bp -5
                           1720 ;max_retransmissions       Allocated to stack - _bp -6
                           1721 ;c                         Allocated to stack - _bp +1
                           1722 ;ret                       Allocated to registers r6 r7 
                           1723 ;sloc0                     Allocated to stack - _bp +4
                           1724 ;------------------------------------------------------------
                           1725 ;	../../core/net/rime/runicast.c:225: runicast_send(struct runicast_conn *c, const rimeaddr_t *receiver,
                           1726 ;	-----------------------------------------
                           1727 ;	 function runicast_send
                           1728 ;	-----------------------------------------
   0650                    1729 _runicast_send:
   0650 C0*00              1730 	push	_bp
   0652 85 81*00           1731 	mov	_bp,sp
   0655 C0 82              1732 	push	dpl
   0657 C0 83              1733 	push	dph
   0659 C0 F0              1734 	push	b
   065B 05 81              1735 	inc	sp
   065D 05 81              1736 	inc	sp
   065F 05 81              1737 	inc	sp
                           1738 ;	../../core/net/rime/runicast.c:229: if(runicast_is_transmitting(c)) {
   0661 A8*00              1739 	mov	r0,_bp
   0663 08                 1740 	inc	r0
   0664 86 82              1741 	mov	dpl,@r0
   0666 08                 1742 	inc	r0
   0667 86 83              1743 	mov	dph,@r0
   0669 08                 1744 	inc	r0
   066A 86 F0              1745 	mov	b,@r0
   066C 12s06r37           1746 	lcall	_runicast_is_transmitting
   066F E5 82              1747 	mov	a,dpl
   0671 60 06              1748 	jz	00102$
                           1749 ;	../../core/net/rime/runicast.c:232: return 0;
   0673 90 00 00           1750 	mov	dptr,#0x0000
   0676 02s07r9F           1751 	ljmp	00105$
   0679                    1752 00102$:
                           1753 ;	../../core/net/rime/runicast.c:234: packetbuf_set_attr(PACKETBUF_ATTR_RELIABLE, 1);
   0679 74 01              1754 	mov	a,#0x01
   067B C0 E0              1755 	push	acc
   067D E4                 1756 	clr	a
   067E C0 E0              1757 	push	acc
   0680 75 82 0C           1758 	mov	dpl,#0x0C
   0683 12s00r00           1759 	lcall	_packetbuf_set_attr
   0686 15 81              1760 	dec	sp
   0688 15 81              1761 	dec	sp
                           1762 ;	../../core/net/rime/runicast.c:235: packetbuf_set_attr(PACKETBUF_ATTR_PACKET_TYPE, PACKETBUF_ATTR_PACKET_TYPE_DATA);
   068A E4                 1763 	clr	a
   068B C0 E0              1764 	push	acc
   068D C0 E0              1765 	push	acc
   068F 75 82 0E           1766 	mov	dpl,#0x0E
   0692 12s00r00           1767 	lcall	_packetbuf_set_attr
   0695 15 81              1768 	dec	sp
   0697 15 81              1769 	dec	sp
                           1770 ;	../../core/net/rime/runicast.c:236: packetbuf_set_attr(PACKETBUF_ATTR_PACKET_ID, c->sndnxt);
   0699 A8*00              1771 	mov	r0,_bp
   069B 08                 1772 	inc	r0
   069C 74 32              1773 	mov	a,#0x32
   069E 26                 1774 	add	a,@r0
   069F FA                 1775 	mov	r2,a
   06A0 E4                 1776 	clr	a
   06A1 08                 1777 	inc	r0
   06A2 36                 1778 	addc	a,@r0
   06A3 FB                 1779 	mov	r3,a
   06A4 08                 1780 	inc	r0
   06A5 86 04              1781 	mov	ar4,@r0
   06A7 8A 82              1782 	mov	dpl,r2
   06A9 8B 83              1783 	mov	dph,r3
   06AB 8C F0              1784 	mov	b,r4
   06AD 12s00r00           1785 	lcall	__gptrget
   06B0 FA                 1786 	mov	r2,a
   06B1 7C 00              1787 	mov	r4,#0x00
   06B3 C0 02              1788 	push	ar2
   06B5 C0 04              1789 	push	ar4
   06B7 75 82 0D           1790 	mov	dpl,#0x0D
   06BA 12s00r00           1791 	lcall	_packetbuf_set_attr
   06BD 15 81              1792 	dec	sp
   06BF 15 81              1793 	dec	sp
                           1794 ;	../../core/net/rime/runicast.c:237: packetbuf_set_attr(PACKETBUF_ATTR_MAX_MAC_TRANSMISSIONS, 3);
   06C1 74 03              1795 	mov	a,#0x03
   06C3 C0 E0              1796 	push	acc
   06C5 E4                 1797 	clr	a
   06C6 C0 E0              1798 	push	acc
   06C8 75 82 09           1799 	mov	dpl,#0x09
   06CB 12s00r00           1800 	lcall	_packetbuf_set_attr
   06CE 15 81              1801 	dec	sp
   06D0 15 81              1802 	dec	sp
                           1803 ;	../../core/net/rime/runicast.c:238: c->max_rxmit = max_retransmissions;
   06D2 A8*00              1804 	mov	r0,_bp
   06D4 08                 1805 	inc	r0
   06D5 74 35              1806 	mov	a,#0x35
   06D7 26                 1807 	add	a,@r0
   06D8 FA                 1808 	mov	r2,a
   06D9 E4                 1809 	clr	a
   06DA 08                 1810 	inc	r0
   06DB 36                 1811 	addc	a,@r0
   06DC FB                 1812 	mov	r3,a
   06DD 08                 1813 	inc	r0
   06DE 86 04              1814 	mov	ar4,@r0
   06E0 8A 82              1815 	mov	dpl,r2
   06E2 8B 83              1816 	mov	dph,r3
   06E4 8C F0              1817 	mov	b,r4
   06E6 E5*00              1818 	mov	a,_bp
   06E8 24 FA              1819 	add	a,#0xfa
   06EA F8                 1820 	mov	r0,a
   06EB E6                 1821 	mov	a,@r0
   06EC 12s00r00           1822 	lcall	__gptrput
                           1823 ;	../../core/net/rime/runicast.c:239: c->rxmit = 0;
   06EF A8*00              1824 	mov	r0,_bp
   06F1 08                 1825 	inc	r0
   06F2 74 34              1826 	mov	a,#0x34
   06F4 26                 1827 	add	a,@r0
   06F5 FA                 1828 	mov	r2,a
   06F6 E4                 1829 	clr	a
   06F7 08                 1830 	inc	r0
   06F8 36                 1831 	addc	a,@r0
   06F9 FB                 1832 	mov	r3,a
   06FA 08                 1833 	inc	r0
   06FB 86 04              1834 	mov	ar4,@r0
   06FD 8A 82              1835 	mov	dpl,r2
   06FF 8B 83              1836 	mov	dph,r3
   0701 8C F0              1837 	mov	b,r4
   0703 E4                 1838 	clr	a
   0704 12s00r00           1839 	lcall	__gptrput
                           1840 ;	../../core/net/rime/runicast.c:240: c->is_tx = 1;
   0707 A8*00              1841 	mov	r0,_bp
   0709 08                 1842 	inc	r0
   070A E5*00              1843 	mov	a,_bp
   070C 24 04              1844 	add	a,#0x04
   070E F9                 1845 	mov	r1,a
   070F 74 33              1846 	mov	a,#0x33
   0711 26                 1847 	add	a,@r0
   0712 F7                 1848 	mov	@r1,a
   0713 E4                 1849 	clr	a
   0714 08                 1850 	inc	r0
   0715 36                 1851 	addc	a,@r0
   0716 09                 1852 	inc	r1
   0717 F7                 1853 	mov	@r1,a
   0718 08                 1854 	inc	r0
   0719 09                 1855 	inc	r1
   071A E6                 1856 	mov	a,@r0
   071B F7                 1857 	mov	@r1,a
   071C E5*00              1858 	mov	a,_bp
   071E 24 04              1859 	add	a,#0x04
   0720 F8                 1860 	mov	r0,a
   0721 86 82              1861 	mov	dpl,@r0
   0723 08                 1862 	inc	r0
   0724 86 83              1863 	mov	dph,@r0
   0726 08                 1864 	inc	r0
   0727 86 F0              1865 	mov	b,@r0
   0729 74 01              1866 	mov	a,#0x01
   072B 12s00r00           1867 	lcall	__gptrput
                           1868 ;	../../core/net/rime/runicast.c:241: RIMESTATS_ADD(reliabletx);
   072E 90s00r08           1869 	mov	dptr,#(_rimestats + 0x0008)
   0731 E0                 1870 	movx	a,@dptr
   0732 FC                 1871 	mov	r4,a
   0733 A3                 1872 	inc	dptr
   0734 E0                 1873 	movx	a,@dptr
   0735 FD                 1874 	mov	r5,a
   0736 A3                 1875 	inc	dptr
   0737 E0                 1876 	movx	a,@dptr
   0738 FE                 1877 	mov	r6,a
   0739 A3                 1878 	inc	dptr
   073A E0                 1879 	movx	a,@dptr
   073B FF                 1880 	mov	r7,a
   073C 0C                 1881 	inc	r4
   073D BC 00 09           1882 	cjne	r4,#0x00,00112$
   0740 0D                 1883 	inc	r5
   0741 BD 00 05           1884 	cjne	r5,#0x00,00112$
   0744 0E                 1885 	inc	r6
   0745 BE 00 01           1886 	cjne	r6,#0x00,00112$
   0748 0F                 1887 	inc	r7
   0749                    1888 00112$:
   0749 90s00r08           1889 	mov	dptr,#(_rimestats + 0x0008)
   074C EC                 1890 	mov	a,r4
   074D F0                 1891 	movx	@dptr,a
   074E A3                 1892 	inc	dptr
   074F ED                 1893 	mov	a,r5
   0750 F0                 1894 	movx	@dptr,a
   0751 A3                 1895 	inc	dptr
   0752 EE                 1896 	mov	a,r6
   0753 F0                 1897 	movx	@dptr,a
   0754 A3                 1898 	inc	dptr
   0755 EF                 1899 	mov	a,r7
   0756 F0                 1900 	movx	@dptr,a
                           1901 ;	../../core/net/rime/runicast.c:245: ret = stunicast_send_stubborn(&c->c, receiver, REXMIT_TIME);
   0757 74 80              1902 	mov	a,#0x80
   0759 C0 E0              1903 	push	acc
   075B E4                 1904 	clr	a
   075C C0 E0              1905 	push	acc
   075E E5*00              1906 	mov	a,_bp
   0760 24 FB              1907 	add	a,#0xfb
   0762 F8                 1908 	mov	r0,a
   0763 E6                 1909 	mov	a,@r0
   0764 C0 E0              1910 	push	acc
   0766 08                 1911 	inc	r0
   0767 E6                 1912 	mov	a,@r0
   0768 C0 E0              1913 	push	acc
   076A 08                 1914 	inc	r0
   076B E6                 1915 	mov	a,@r0
   076C C0 E0              1916 	push	acc
   076E A8*00              1917 	mov	r0,_bp
   0770 08                 1918 	inc	r0
   0771 86 82              1919 	mov	dpl,@r0
   0773 08                 1920 	inc	r0
   0774 86 83              1921 	mov	dph,@r0
   0776 08                 1922 	inc	r0
   0777 86 F0              1923 	mov	b,@r0
   0779 12s00r00           1924 	lcall	_stunicast_send_stubborn
   077C AE 82              1925 	mov	r6,dpl
   077E AF 83              1926 	mov	r7,dph
   0780 E5 81              1927 	mov	a,sp
   0782 24 FB              1928 	add	a,#0xfb
   0784 F5 81              1929 	mov	sp,a
                           1930 ;	../../core/net/rime/runicast.c:246: if(!ret) {
   0786 EE                 1931 	mov	a,r6
   0787 4F                 1932 	orl	a,r7
   0788 70 11              1933 	jnz	00104$
                           1934 ;	../../core/net/rime/runicast.c:247: c->is_tx = 0;
   078A E5*00              1935 	mov	a,_bp
   078C 24 04              1936 	add	a,#0x04
   078E F8                 1937 	mov	r0,a
   078F 86 82              1938 	mov	dpl,@r0
   0791 08                 1939 	inc	r0
   0792 86 83              1940 	mov	dph,@r0
   0794 08                 1941 	inc	r0
   0795 86 F0              1942 	mov	b,@r0
   0797 E4                 1943 	clr	a
   0798 12s00r00           1944 	lcall	__gptrput
   079B                    1945 00104$:
                           1946 ;	../../core/net/rime/runicast.c:249: return ret;
   079B 8E 82              1947 	mov	dpl,r6
   079D 8F 83              1948 	mov	dph,r7
   079F                    1949 00105$:
   079F 85*00 81           1950 	mov	sp,_bp
   07A2 D0*00              1951 	pop	_bp
   07A4 22                 1952 	ret
                           1953 	.area CSEG    (CODE)
                           1954 	.area CONST   (CODE)
   0000                    1955 _attributes:
   0000 0E                 1956 	.db #0x0E	; 14
   0001 01                 1957 	.db #0x01	; 1
   0002 0D                 1958 	.db #0x0D	; 13
   0003 02                 1959 	.db #0x02	; 2
   0004 19                 1960 	.db #0x19	; 25
   0005 10                 1961 	.db #0x10	; 16
   0006 18                 1962 	.db #0x18	; 24
   0007 10                 1963 	.db #0x10	; 16
   0008 00                 1964 	.db #0x00	; 0
   0009 00                 1965 	.db #0x00	; 0
   000A                    1966 _runicast:
   000Ar2As02              1967 	.byte _recv_from_stunicast,(_recv_from_stunicast >> 8)
   000Cr00s00              1968 	.byte _sent_by_stunicast,(_sent_by_stunicast >> 8)
                           1969 	.area XINIT   (CODE)
                           1970 	.area CABS    (ABS,CODE)
