                              1 ;--------------------------------------------------------
                              2 ; File Created by SDCC : free open source ANSI-C Compiler
                              3 ; Version 3.1.1 #7100 (Apr  1 2013) (Linux)
                              4 ; This file was generated Tue Apr 23 09:41:31 2013
                              5 ;--------------------------------------------------------
                              6 	.module simple_udp
                              7 	.optsdcc -mmcs51 --model-large
                              8 	
                              9 ;--------------------------------------------------------
                             10 ; Public variables in this module
                             11 ;--------------------------------------------------------
                             12 	.globl _uip_udp_packet_sendto
                             13 	.globl _udp_new
                             14 	.globl _process_start
                             15 	.globl _memcpy
                             16 	.globl _IRCON2_P2IF
                             17 	.globl _IRCON2_UTX0IF
                             18 	.globl _IRCON2_UTX1IF
                             19 	.globl _IRCON2_P1IF
                             20 	.globl _IRCON2_WDTIF
                             21 	.globl _CY
                             22 	.globl _AC
                             23 	.globl _F0
                             24 	.globl _RS1
                             25 	.globl _RS0
                             26 	.globl _OV
                             27 	.globl _F1
                             28 	.globl _P
                             29 	.globl _IRCON_DMAIF
                             30 	.globl _IRCON_T1IF
                             31 	.globl _IRCON_T2IF
                             32 	.globl _IRCON_T3IF
                             33 	.globl _IRCON_T4IF
                             34 	.globl _IRCON_P0IF
                             35 	.globl _IRCON_STIF
                             36 	.globl _IEN1_DMAIE
                             37 	.globl _IEN1_T1IE
                             38 	.globl _IEN1_T2IE
                             39 	.globl _IEN1_T3IE
                             40 	.globl _IEN1_T4IE
                             41 	.globl _IEN1_P0IE
                             42 	.globl _IEN0_RFERRIE
                             43 	.globl _IEN0_ADCIE
                             44 	.globl _IEN0_URX0IE
                             45 	.globl _IEN0_URX1IE
                             46 	.globl _IEN0_ENCIE
                             47 	.globl _IEN0_STIE
                             48 	.globl _IEN0_EA
                             49 	.globl _EA
                             50 	.globl _P2_4
                             51 	.globl _P2_3
                             52 	.globl _P2_2
                             53 	.globl _P2_1
                             54 	.globl _P2_0
                             55 	.globl _S0CON_ENCIF_0
                             56 	.globl _S0CON_ENCIF_1
                             57 	.globl _P1_7
                             58 	.globl _P1_6
                             59 	.globl _P1_5
                             60 	.globl _P1_4
                             61 	.globl _P1_3
                             62 	.globl _P1_2
                             63 	.globl _P1_1
                             64 	.globl _P1_0
                             65 	.globl _TCON_IT0
                             66 	.globl _TCON_RFERRIF
                             67 	.globl _TCON_IT1
                             68 	.globl _TCON_URX0IF
                             69 	.globl _TCON_ADCIF
                             70 	.globl _TCON_URX1IF
                             71 	.globl _P0_0
                             72 	.globl _P0_1
                             73 	.globl _P0_2
                             74 	.globl _P0_3
                             75 	.globl _P0_4
                             76 	.globl _P0_5
                             77 	.globl _P0_6
                             78 	.globl _P0_7
                             79 	.globl _P2DIR
                             80 	.globl _P1DIR
                             81 	.globl _P0DIR
                             82 	.globl _U1GCR
                             83 	.globl _U1UCR
                             84 	.globl _U1BAUD
                             85 	.globl _U1BUF
                             86 	.globl _U1CSR
                             87 	.globl _P2INP
                             88 	.globl _P1INP
                             89 	.globl _P2SEL
                             90 	.globl _P1SEL
                             91 	.globl _P0SEL
                             92 	.globl _ADCCFG
                             93 	.globl _PERCFG
                             94 	.globl _B
                             95 	.globl _T4CC1
                             96 	.globl _T4CCTL1
                             97 	.globl _T4CC0
                             98 	.globl _T4CCTL0
                             99 	.globl _T4CTL
                            100 	.globl _T4CNT
                            101 	.globl _RFIF
                            102 	.globl _IRCON2
                            103 	.globl _T1CCTL2
                            104 	.globl _T1CCTL1
                            105 	.globl _T1CCTL0
                            106 	.globl _T1CTL
                            107 	.globl _T1CNTH
                            108 	.globl _T1CNTL
                            109 	.globl _RFST
                            110 	.globl _ACC
                            111 	.globl _T1CC2H
                            112 	.globl _T1CC2L
                            113 	.globl _T1CC1H
                            114 	.globl _T1CC1L
                            115 	.globl _T1CC0H
                            116 	.globl _T1CC0L
                            117 	.globl _RFD
                            118 	.globl _TIMIF
                            119 	.globl _DMAREQ
                            120 	.globl _DMAARM
                            121 	.globl _DMA0CFGH
                            122 	.globl _DMA0CFGL
                            123 	.globl _DMA1CFGH
                            124 	.globl _DMA1CFGL
                            125 	.globl _DMAIRQ
                            126 	.globl _PSW
                            127 	.globl _T3CC1
                            128 	.globl _T3CCTL1
                            129 	.globl _T3CC0
                            130 	.globl _T3CCTL0
                            131 	.globl _T3CTL
                            132 	.globl _T3CNT
                            133 	.globl _WDCTL
                            134 	.globl _T2CON
                            135 	.globl _MEMCTR
                            136 	.globl _CLKCON
                            137 	.globl _U0GCR
                            138 	.globl _U0UCR
                            139 	.globl _T2CNF
                            140 	.globl _U0BAUD
                            141 	.globl _U0BUF
                            142 	.globl _IRCON
                            143 	.globl _SLEEP
                            144 	.globl _RNDH
                            145 	.globl _RNDL
                            146 	.globl _ADCH
                            147 	.globl _ADCL
                            148 	.globl _IP1
                            149 	.globl _IEN1
                            150 	.globl _RCCTL
                            151 	.globl _ADCCON3
                            152 	.globl _ADCCON2
                            153 	.globl _ADCCON1
                            154 	.globl _ENCCS
                            155 	.globl _ENCDO
                            156 	.globl _ENCDI
                            157 	.globl _FWDATA
                            158 	.globl _FCTL
                            159 	.globl _FADDRH
                            160 	.globl _FADDRL
                            161 	.globl _FWT
                            162 	.globl _IP0
                            163 	.globl _IEN0
                            164 	.globl _IE
                            165 	.globl _T2THD
                            166 	.globl _T2TLD
                            167 	.globl _T2CAPHPH
                            168 	.globl _T2CAPLPL
                            169 	.globl _T2OF2
                            170 	.globl _T2OF1
                            171 	.globl _T2OF0
                            172 	.globl _P2
                            173 	.globl _PSBANK
                            174 	.globl _FMAP
                            175 	.globl _T2PEROF2
                            176 	.globl _T2PEROF1
                            177 	.globl _T2PEROF0
                            178 	.globl _S1CON
                            179 	.globl _IEN2
                            180 	.globl _HSRC
                            181 	.globl _S0CON
                            182 	.globl _ST2
                            183 	.globl _ST1
                            184 	.globl _ST0
                            185 	.globl _T2CMP
                            186 	.globl __XPAGE
                            187 	.globl _DPS
                            188 	.globl _RFIM
                            189 	.globl _P1
                            190 	.globl _P0INP
                            191 	.globl _P1IEN
                            192 	.globl _PICTL
                            193 	.globl _P2IFG
                            194 	.globl _P1IFG
                            195 	.globl _P0IFG
                            196 	.globl _TCON
                            197 	.globl _PCON
                            198 	.globl _U0CSR
                            199 	.globl _DPH1
                            200 	.globl _DPL1
                            201 	.globl _DPH0
                            202 	.globl _DPL0
                            203 	.globl _SP
                            204 	.globl _P0
                            205 	.globl _simple_udp_process
                            206 	.globl _ADC_SHADOW
                            207 	.globl _U1BUF_SHADOW
                            208 	.globl _RFD_SHADOW
                            209 	.globl _U0BUF_SHADOW
                            210 	.globl _RFSTATUS
                            211 	.globl _CHIPID
                            212 	.globl _CHVER
                            213 	.globl _FSMTC1
                            214 	.globl _RXFIFOCNT
                            215 	.globl _IOCFG3
                            216 	.globl _IOCFG2
                            217 	.globl _IOCFG1
                            218 	.globl _IOCFG0
                            219 	.globl _SHORTADDRL
                            220 	.globl _SHORTADDRH
                            221 	.globl _PANIDL
                            222 	.globl _PANIDH
                            223 	.globl _IEEE_ADDR7
                            224 	.globl _IEEE_ADDR6
                            225 	.globl _IEEE_ADDR5
                            226 	.globl _IEEE_ADDR4
                            227 	.globl _IEEE_ADDR3
                            228 	.globl _IEEE_ADDR2
                            229 	.globl _IEEE_ADDR1
                            230 	.globl _IEEE_ADDR0
                            231 	.globl _DACTSTL
                            232 	.globl _DACTSTH
                            233 	.globl _ADCTSTL
                            234 	.globl _ADCTSTH
                            235 	.globl _FSMSTATE
                            236 	.globl _AGCCTRLL
                            237 	.globl _AGCCTRLH
                            238 	.globl _MANORL
                            239 	.globl _MANORH
                            240 	.globl _MANANDL
                            241 	.globl _MANANDH
                            242 	.globl _FSMTCL
                            243 	.globl _FSMTCH
                            244 	.globl _RFPWR
                            245 	.globl _CSPT
                            246 	.globl _CSPCTRL
                            247 	.globl _CSPZ
                            248 	.globl _CSPY
                            249 	.globl _CSPX
                            250 	.globl _FSCTRLL
                            251 	.globl _FSCTRLH
                            252 	.globl _RXCTRL1L
                            253 	.globl _RXCTRL1H
                            254 	.globl _RXCTRL0L
                            255 	.globl _RXCTRL0H
                            256 	.globl _TXCTRLL
                            257 	.globl _TXCTRLH
                            258 	.globl _SYNCWORDL
                            259 	.globl _SYNCWORDH
                            260 	.globl _RSSIL
                            261 	.globl _RSSIH
                            262 	.globl _MDMCTRL1L
                            263 	.globl _MDMCTRL1H
                            264 	.globl _MDMCTRL0L
                            265 	.globl _MDMCTRL0H
                            266 	.globl _simple_udp_send
                            267 	.globl _simple_udp_sendto
                            268 	.globl _simple_udp_register
                            269 ;--------------------------------------------------------
                            270 ; special function registers
                            271 ;--------------------------------------------------------
                            272 	.area RSEG    (ABS,DATA)
   0000                     273 	.org 0x0000
                    0080    274 _P0	=	0x0080
                    0081    275 _SP	=	0x0081
                    0082    276 _DPL0	=	0x0082
                    0083    277 _DPH0	=	0x0083
                    0084    278 _DPL1	=	0x0084
                    0085    279 _DPH1	=	0x0085
                    0086    280 _U0CSR	=	0x0086
                    0087    281 _PCON	=	0x0087
                    0088    282 _TCON	=	0x0088
                    0089    283 _P0IFG	=	0x0089
                    008A    284 _P1IFG	=	0x008a
                    008B    285 _P2IFG	=	0x008b
                    008C    286 _PICTL	=	0x008c
                    008D    287 _P1IEN	=	0x008d
                    008F    288 _P0INP	=	0x008f
                    0090    289 _P1	=	0x0090
                    0091    290 _RFIM	=	0x0091
                    0092    291 _DPS	=	0x0092
                    0093    292 __XPAGE	=	0x0093
                    0094    293 _T2CMP	=	0x0094
                    0095    294 _ST0	=	0x0095
                    0096    295 _ST1	=	0x0096
                    0097    296 _ST2	=	0x0097
                    0098    297 _S0CON	=	0x0098
                    0099    298 _HSRC	=	0x0099
                    009A    299 _IEN2	=	0x009a
                    009B    300 _S1CON	=	0x009b
                    009C    301 _T2PEROF0	=	0x009c
                    009D    302 _T2PEROF1	=	0x009d
                    009E    303 _T2PEROF2	=	0x009e
                    009F    304 _FMAP	=	0x009f
                    009F    305 _PSBANK	=	0x009f
                    00A0    306 _P2	=	0x00a0
                    00A1    307 _T2OF0	=	0x00a1
                    00A2    308 _T2OF1	=	0x00a2
                    00A3    309 _T2OF2	=	0x00a3
                    00A4    310 _T2CAPLPL	=	0x00a4
                    00A5    311 _T2CAPHPH	=	0x00a5
                    00A6    312 _T2TLD	=	0x00a6
                    00A7    313 _T2THD	=	0x00a7
                    00A8    314 _IE	=	0x00a8
                    00A8    315 _IEN0	=	0x00a8
                    00A9    316 _IP0	=	0x00a9
                    00AB    317 _FWT	=	0x00ab
                    00AC    318 _FADDRL	=	0x00ac
                    00AD    319 _FADDRH	=	0x00ad
                    00AE    320 _FCTL	=	0x00ae
                    00AF    321 _FWDATA	=	0x00af
                    00B1    322 _ENCDI	=	0x00b1
                    00B2    323 _ENCDO	=	0x00b2
                    00B3    324 _ENCCS	=	0x00b3
                    00B4    325 _ADCCON1	=	0x00b4
                    00B5    326 _ADCCON2	=	0x00b5
                    00B6    327 _ADCCON3	=	0x00b6
                    00B7    328 _RCCTL	=	0x00b7
                    00B8    329 _IEN1	=	0x00b8
                    00B9    330 _IP1	=	0x00b9
                    00BA    331 _ADCL	=	0x00ba
                    00BB    332 _ADCH	=	0x00bb
                    00BC    333 _RNDL	=	0x00bc
                    00BD    334 _RNDH	=	0x00bd
                    00BE    335 _SLEEP	=	0x00be
                    00C0    336 _IRCON	=	0x00c0
                    00C1    337 _U0BUF	=	0x00c1
                    00C2    338 _U0BAUD	=	0x00c2
                    00C3    339 _T2CNF	=	0x00c3
                    00C4    340 _U0UCR	=	0x00c4
                    00C5    341 _U0GCR	=	0x00c5
                    00C6    342 _CLKCON	=	0x00c6
                    00C7    343 _MEMCTR	=	0x00c7
                    00C8    344 _T2CON	=	0x00c8
                    00C9    345 _WDCTL	=	0x00c9
                    00CA    346 _T3CNT	=	0x00ca
                    00CB    347 _T3CTL	=	0x00cb
                    00CC    348 _T3CCTL0	=	0x00cc
                    00CD    349 _T3CC0	=	0x00cd
                    00CE    350 _T3CCTL1	=	0x00ce
                    00CF    351 _T3CC1	=	0x00cf
                    00D0    352 _PSW	=	0x00d0
                    00D1    353 _DMAIRQ	=	0x00d1
                    00D2    354 _DMA1CFGL	=	0x00d2
                    00D3    355 _DMA1CFGH	=	0x00d3
                    00D4    356 _DMA0CFGL	=	0x00d4
                    00D5    357 _DMA0CFGH	=	0x00d5
                    00D6    358 _DMAARM	=	0x00d6
                    00D7    359 _DMAREQ	=	0x00d7
                    00D8    360 _TIMIF	=	0x00d8
                    00D9    361 _RFD	=	0x00d9
                    00DA    362 _T1CC0L	=	0x00da
                    00DB    363 _T1CC0H	=	0x00db
                    00DC    364 _T1CC1L	=	0x00dc
                    00DD    365 _T1CC1H	=	0x00dd
                    00DE    366 _T1CC2L	=	0x00de
                    00DF    367 _T1CC2H	=	0x00df
                    00E0    368 _ACC	=	0x00e0
                    00E1    369 _RFST	=	0x00e1
                    00E2    370 _T1CNTL	=	0x00e2
                    00E3    371 _T1CNTH	=	0x00e3
                    00E4    372 _T1CTL	=	0x00e4
                    00E5    373 _T1CCTL0	=	0x00e5
                    00E6    374 _T1CCTL1	=	0x00e6
                    00E7    375 _T1CCTL2	=	0x00e7
                    00E8    376 _IRCON2	=	0x00e8
                    00E9    377 _RFIF	=	0x00e9
                    00EA    378 _T4CNT	=	0x00ea
                    00EB    379 _T4CTL	=	0x00eb
                    00EC    380 _T4CCTL0	=	0x00ec
                    00ED    381 _T4CC0	=	0x00ed
                    00EE    382 _T4CCTL1	=	0x00ee
                    00EF    383 _T4CC1	=	0x00ef
                    00F0    384 _B	=	0x00f0
                    00F1    385 _PERCFG	=	0x00f1
                    00F2    386 _ADCCFG	=	0x00f2
                    00F3    387 _P0SEL	=	0x00f3
                    00F4    388 _P1SEL	=	0x00f4
                    00F5    389 _P2SEL	=	0x00f5
                    00F6    390 _P1INP	=	0x00f6
                    00F7    391 _P2INP	=	0x00f7
                    00F8    392 _U1CSR	=	0x00f8
                    00F9    393 _U1BUF	=	0x00f9
                    00FA    394 _U1BAUD	=	0x00fa
                    00FB    395 _U1UCR	=	0x00fb
                    00FC    396 _U1GCR	=	0x00fc
                    00FD    397 _P0DIR	=	0x00fd
                    00FE    398 _P1DIR	=	0x00fe
                    00FF    399 _P2DIR	=	0x00ff
                            400 ;--------------------------------------------------------
                            401 ; special function bits
                            402 ;--------------------------------------------------------
                            403 	.area RSEG    (ABS,DATA)
   0000                     404 	.org 0x0000
                    0087    405 _P0_7	=	0x0087
                    0086    406 _P0_6	=	0x0086
                    0085    407 _P0_5	=	0x0085
                    0084    408 _P0_4	=	0x0084
                    0083    409 _P0_3	=	0x0083
                    0082    410 _P0_2	=	0x0082
                    0081    411 _P0_1	=	0x0081
                    0080    412 _P0_0	=	0x0080
                    008F    413 _TCON_URX1IF	=	0x008f
                    008D    414 _TCON_ADCIF	=	0x008d
                    008B    415 _TCON_URX0IF	=	0x008b
                    008A    416 _TCON_IT1	=	0x008a
                    0089    417 _TCON_RFERRIF	=	0x0089
                    0088    418 _TCON_IT0	=	0x0088
                    0090    419 _P1_0	=	0x0090
                    0091    420 _P1_1	=	0x0091
                    0092    421 _P1_2	=	0x0092
                    0093    422 _P1_3	=	0x0093
                    0094    423 _P1_4	=	0x0094
                    0095    424 _P1_5	=	0x0095
                    0096    425 _P1_6	=	0x0096
                    0097    426 _P1_7	=	0x0097
                    0099    427 _S0CON_ENCIF_1	=	0x0099
                    0098    428 _S0CON_ENCIF_0	=	0x0098
                    00A0    429 _P2_0	=	0x00a0
                    00A1    430 _P2_1	=	0x00a1
                    00A2    431 _P2_2	=	0x00a2
                    00A3    432 _P2_3	=	0x00a3
                    00A4    433 _P2_4	=	0x00a4
                    00AF    434 _EA	=	0x00af
                    00AF    435 _IEN0_EA	=	0x00af
                    00AD    436 _IEN0_STIE	=	0x00ad
                    00AC    437 _IEN0_ENCIE	=	0x00ac
                    00AB    438 _IEN0_URX1IE	=	0x00ab
                    00AA    439 _IEN0_URX0IE	=	0x00aa
                    00A9    440 _IEN0_ADCIE	=	0x00a9
                    00A8    441 _IEN0_RFERRIE	=	0x00a8
                    00BD    442 _IEN1_P0IE	=	0x00bd
                    00BC    443 _IEN1_T4IE	=	0x00bc
                    00BB    444 _IEN1_T3IE	=	0x00bb
                    00BA    445 _IEN1_T2IE	=	0x00ba
                    00B9    446 _IEN1_T1IE	=	0x00b9
                    00B8    447 _IEN1_DMAIE	=	0x00b8
                    00C7    448 _IRCON_STIF	=	0x00c7
                    00C5    449 _IRCON_P0IF	=	0x00c5
                    00C4    450 _IRCON_T4IF	=	0x00c4
                    00C3    451 _IRCON_T3IF	=	0x00c3
                    00C2    452 _IRCON_T2IF	=	0x00c2
                    00C1    453 _IRCON_T1IF	=	0x00c1
                    00C0    454 _IRCON_DMAIF	=	0x00c0
                    00D0    455 _P	=	0x00d0
                    00D1    456 _F1	=	0x00d1
                    00D2    457 _OV	=	0x00d2
                    00D3    458 _RS0	=	0x00d3
                    00D4    459 _RS1	=	0x00d4
                    00D5    460 _F0	=	0x00d5
                    00D6    461 _AC	=	0x00d6
                    00D7    462 _CY	=	0x00d7
                    00EC    463 _IRCON2_WDTIF	=	0x00ec
                    00EB    464 _IRCON2_P1IF	=	0x00eb
                    00EA    465 _IRCON2_UTX1IF	=	0x00ea
                    00E9    466 _IRCON2_UTX0IF	=	0x00e9
                    00E8    467 _IRCON2_P2IF	=	0x00e8
                            468 ;--------------------------------------------------------
                            469 ; overlayable register banks
                            470 ;--------------------------------------------------------
                            471 	.area REG_BANK_0	(REL,OVR,DATA)
   0000                     472 	.ds 8
                            473 ;--------------------------------------------------------
                            474 ; internal ram data
                            475 ;--------------------------------------------------------
                            476 	.area DSEG    (DATA)
                            477 ;--------------------------------------------------------
                            478 ; overlayable items in internal ram 
                            479 ;--------------------------------------------------------
                            480 	.area OSEG    (OVR,DATA)
                            481 ;--------------------------------------------------------
                            482 ; indirectly addressable internal ram data
                            483 ;--------------------------------------------------------
                            484 	.area ISEG    (DATA)
                            485 ;--------------------------------------------------------
                            486 ; absolute internal ram data
                            487 ;--------------------------------------------------------
                            488 	.area IABS    (ABS,DATA)
                            489 	.area IABS    (ABS,DATA)
                            490 ;--------------------------------------------------------
                            491 ; bit data
                            492 ;--------------------------------------------------------
                            493 	.area BSEG    (BIT)
                            494 ;--------------------------------------------------------
                            495 ; paged external ram data
                            496 ;--------------------------------------------------------
                            497 	.area PSEG    (PAG,XDATA)
                            498 ;--------------------------------------------------------
                            499 ; external ram data
                            500 ;--------------------------------------------------------
                            501 	.area XSEG    (XDATA)
                    DF02    502 _MDMCTRL0H	=	0xdf02
                    DF03    503 _MDMCTRL0L	=	0xdf03
                    DF04    504 _MDMCTRL1H	=	0xdf04
                    DF05    505 _MDMCTRL1L	=	0xdf05
                    DF06    506 _RSSIH	=	0xdf06
                    DF07    507 _RSSIL	=	0xdf07
                    DF08    508 _SYNCWORDH	=	0xdf08
                    DF09    509 _SYNCWORDL	=	0xdf09
                    DF0A    510 _TXCTRLH	=	0xdf0a
                    DF0B    511 _TXCTRLL	=	0xdf0b
                    DF0C    512 _RXCTRL0H	=	0xdf0c
                    DF0D    513 _RXCTRL0L	=	0xdf0d
                    DF0E    514 _RXCTRL1H	=	0xdf0e
                    DF0F    515 _RXCTRL1L	=	0xdf0f
                    DF10    516 _FSCTRLH	=	0xdf10
                    DF11    517 _FSCTRLL	=	0xdf11
                    DF12    518 _CSPX	=	0xdf12
                    DF13    519 _CSPY	=	0xdf13
                    DF14    520 _CSPZ	=	0xdf14
                    DF15    521 _CSPCTRL	=	0xdf15
                    DF16    522 _CSPT	=	0xdf16
                    DF17    523 _RFPWR	=	0xdf17
                    DF20    524 _FSMTCH	=	0xdf20
                    DF21    525 _FSMTCL	=	0xdf21
                    DF22    526 _MANANDH	=	0xdf22
                    DF23    527 _MANANDL	=	0xdf23
                    DF24    528 _MANORH	=	0xdf24
                    DF25    529 _MANORL	=	0xdf25
                    DF26    530 _AGCCTRLH	=	0xdf26
                    DF27    531 _AGCCTRLL	=	0xdf27
                    DF39    532 _FSMSTATE	=	0xdf39
                    DF3A    533 _ADCTSTH	=	0xdf3a
                    DF3B    534 _ADCTSTL	=	0xdf3b
                    DF3C    535 _DACTSTH	=	0xdf3c
                    DF3D    536 _DACTSTL	=	0xdf3d
                    DF43    537 _IEEE_ADDR0	=	0xdf43
                    DF44    538 _IEEE_ADDR1	=	0xdf44
                    DF45    539 _IEEE_ADDR2	=	0xdf45
                    DF46    540 _IEEE_ADDR3	=	0xdf46
                    DF47    541 _IEEE_ADDR4	=	0xdf47
                    DF48    542 _IEEE_ADDR5	=	0xdf48
                    DF49    543 _IEEE_ADDR6	=	0xdf49
                    DF4A    544 _IEEE_ADDR7	=	0xdf4a
                    DF4B    545 _PANIDH	=	0xdf4b
                    DF4C    546 _PANIDL	=	0xdf4c
                    DF4D    547 _SHORTADDRH	=	0xdf4d
                    DF4E    548 _SHORTADDRL	=	0xdf4e
                    DF4F    549 _IOCFG0	=	0xdf4f
                    DF50    550 _IOCFG1	=	0xdf50
                    DF51    551 _IOCFG2	=	0xdf51
                    DF52    552 _IOCFG3	=	0xdf52
                    DF53    553 _RXFIFOCNT	=	0xdf53
                    DF54    554 _FSMTC1	=	0xdf54
                    DF60    555 _CHVER	=	0xdf60
                    DF61    556 _CHIPID	=	0xdf61
                    DF62    557 _RFSTATUS	=	0xdf62
                    DFC1    558 _U0BUF_SHADOW	=	0xdfc1
                    DFD9    559 _RFD_SHADOW	=	0xdfd9
                    DFF9    560 _U1BUF_SHADOW	=	0xdff9
                    DFBA    561 _ADC_SHADOW	=	0xdfba
   0000                     562 _databuffer:
   0000                     563 	.ds 108
                            564 ;--------------------------------------------------------
                            565 ; absolute external ram data
                            566 ;--------------------------------------------------------
                            567 	.area XABS    (ABS,XDATA)
                            568 ;--------------------------------------------------------
                            569 ; external initialized ram data
                            570 ;--------------------------------------------------------
                            571 	.area XISEG   (XDATA)
   0000                     572 _simple_udp_process::
   0000                     573 	.ds 9
   0009                     574 _started:
   0009                     575 	.ds 1
                            576 	.area HOME    (CODE)
                            577 	.area GSINIT0 (CODE)
                            578 	.area GSINIT1 (CODE)
                            579 	.area GSINIT2 (CODE)
                            580 	.area GSINIT3 (CODE)
                            581 	.area GSINIT4 (CODE)
                            582 	.area GSINIT5 (CODE)
                            583 	.area GSINIT  (CODE)
                            584 	.area GSFINAL (CODE)
                            585 	.area CSEG    (CODE)
                            586 ;--------------------------------------------------------
                            587 ; global & static initialisations
                            588 ;--------------------------------------------------------
                            589 	.area HOME    (CODE)
                            590 	.area GSINIT  (CODE)
                            591 	.area GSFINAL (CODE)
                            592 	.area GSINIT  (CODE)
                            593 ;--------------------------------------------------------
                            594 ; Home
                            595 ;--------------------------------------------------------
                            596 	.area HOME    (CODE)
                            597 	.area HOME    (CODE)
                            598 ;--------------------------------------------------------
                            599 ; code
                            600 ;--------------------------------------------------------
                            601 	.area CSEG    (CODE)
                            602 ;------------------------------------------------------------
                            603 ;Allocation info for local variables in function 'init_simple_udp'
                            604 ;------------------------------------------------------------
                            605 ;	../../core/net/simple-udp.c:58: init_simple_udp(void)
                            606 ;	-----------------------------------------
                            607 ;	 function init_simple_udp
                            608 ;	-----------------------------------------
   0000                     609 _init_simple_udp:
                    0007    610 	ar7 = 0x07
                    0006    611 	ar6 = 0x06
                    0005    612 	ar5 = 0x05
                    0004    613 	ar4 = 0x04
                    0003    614 	ar3 = 0x03
                    0002    615 	ar2 = 0x02
                    0001    616 	ar1 = 0x01
                    0000    617 	ar0 = 0x00
                            618 ;	../../core/net/simple-udp.c:60: if(started == 0) {
   0000 90s00r09            619 	mov	dptr,#_started
   0003 E0                  620 	movx	a,@dptr
   0004 FF                  621 	mov	r7,a
                            622 ;	../../core/net/simple-udp.c:61: process_start(&simple_udp_process, NULL);
   0005 70 1B               623 	jnz	00103$
   0007 C0 E0               624 	push	acc
   0009 C0 E0               625 	push	acc
   000B C0 E0               626 	push	acc
   000D 90s00r00            627 	mov	dptr,#_simple_udp_process
   0010 75 F0 00            628 	mov	b,#0x00
   0013 12s00r00            629 	lcall	_process_start
   0016 15 81               630 	dec	sp
   0018 15 81               631 	dec	sp
   001A 15 81               632 	dec	sp
                            633 ;	../../core/net/simple-udp.c:62: started = 1;
   001C 90s00r09            634 	mov	dptr,#_started
   001F 74 01               635 	mov	a,#0x01
   0021 F0                  636 	movx	@dptr,a
   0022                     637 00103$:
   0022 22                  638 	ret
                            639 ;------------------------------------------------------------
                            640 ;Allocation info for local variables in function 'simple_udp_send'
                            641 ;------------------------------------------------------------
                            642 ;data                      Allocated to stack - _bp -5
                            643 ;datalen                   Allocated to stack - _bp -7
                            644 ;c                         Allocated to stack - _bp +1
                            645 ;sloc0                     Allocated to stack - _bp +4
                            646 ;sloc1                     Allocated to stack - _bp +6
                            647 ;------------------------------------------------------------
                            648 ;	../../core/net/simple-udp.c:80: simple_udp_send(struct simple_udp_connection *c,
                            649 ;	-----------------------------------------
                            650 ;	 function simple_udp_send
                            651 ;	-----------------------------------------
   0023                     652 _simple_udp_send:
   0023 C0*00               653 	push	_bp
   0025 85 81*00            654 	mov	_bp,sp
   0028 C0 82               655 	push	dpl
   002A C0 83               656 	push	dph
   002C C0 F0               657 	push	b
   002E E5 81               658 	mov	a,sp
   0030 24 05               659 	add	a,#0x05
   0032 F5 81               660 	mov	sp,a
                            661 ;	../../core/net/simple-udp.c:83: if(c->udp_conn != NULL) {
   0034 A8*00               662 	mov	r0,_bp
   0036 08                  663 	inc	r0
   0037 74 0D               664 	mov	a,#0x0D
   0039 26                  665 	add	a,@r0
   003A FA                  666 	mov	r2,a
   003B E4                  667 	clr	a
   003C 08                  668 	inc	r0
   003D 36                  669 	addc	a,@r0
   003E FB                  670 	mov	r3,a
   003F 08                  671 	inc	r0
   0040 86 04               672 	mov	ar4,@r0
   0042 8A 82               673 	mov	dpl,r2
   0044 8B 83               674 	mov	dph,r3
   0046 8C F0               675 	mov	b,r4
   0048 12s00r00            676 	lcall	__gptrget
   004B FA                  677 	mov	r2,a
   004C A3                  678 	inc	dptr
   004D 12s00r00            679 	lcall	__gptrget
   0050 FB                  680 	mov	r3,a
   0051 A3                  681 	inc	dptr
   0052 12s00r00            682 	lcall	__gptrget
   0055 FC                  683 	mov	r4,a
   0056 EA                  684 	mov	a,r2
   0057 4B                  685 	orl	a,r3
   0058 70 03               686 	jnz	00107$
   005A 02s00rE2            687 	ljmp	00102$
   005D                     688 00107$:
                            689 ;	../../core/net/simple-udp.c:85: &c->remote_addr, UIP_HTONS(c->remote_port));
   005D A8*00               690 	mov	r0,_bp
   005F 08                  691 	inc	r0
   0060 74 07               692 	mov	a,#0x07
   0062 26                  693 	add	a,@r0
   0063 FD                  694 	mov	r5,a
   0064 E4                  695 	clr	a
   0065 08                  696 	inc	r0
   0066 36                  697 	addc	a,@r0
   0067 FE                  698 	mov	r6,a
   0068 08                  699 	inc	r0
   0069 86 07               700 	mov	ar7,@r0
   006B 8D 82               701 	mov	dpl,r5
   006D 8E 83               702 	mov	dph,r6
   006F 8F F0               703 	mov	b,r7
   0071 12s00r00            704 	lcall	__gptrget
   0074 FD                  705 	mov	r5,a
   0075 A3                  706 	inc	dptr
   0076 12s00r00            707 	lcall	__gptrget
   0079 FE                  708 	mov	r6,a
   007A E5*00               709 	mov	a,_bp
   007C 24 04               710 	add	a,#0x04
   007E F8                  711 	mov	r0,a
   007F A6 06               712 	mov	@r0,ar6
   0081 08                  713 	inc	r0
   0082 A6 05               714 	mov	@r0,ar5
   0084 A8*00               715 	mov	r0,_bp
   0086 08                  716 	inc	r0
   0087 E5*00               717 	mov	a,_bp
   0089 24 06               718 	add	a,#0x06
   008B F9                  719 	mov	r1,a
   008C 74 03               720 	mov	a,#0x03
   008E 26                  721 	add	a,@r0
   008F F7                  722 	mov	@r1,a
   0090 E4                  723 	clr	a
   0091 08                  724 	inc	r0
   0092 36                  725 	addc	a,@r0
   0093 09                  726 	inc	r1
   0094 F7                  727 	mov	@r1,a
   0095 08                  728 	inc	r0
   0096 09                  729 	inc	r1
   0097 E6                  730 	mov	a,@r0
   0098 F7                  731 	mov	@r1,a
                            732 ;	../../core/net/simple-udp.c:84: uip_udp_packet_sendto(c->udp_conn, data, datalen,
   0099 E5*00               733 	mov	a,_bp
   009B 24 F9               734 	add	a,#0xf9
   009D F8                  735 	mov	r0,a
   009E 86 06               736 	mov	ar6,@r0
   00A0 08                  737 	inc	r0
   00A1 86 07               738 	mov	ar7,@r0
   00A3 E5*00               739 	mov	a,_bp
   00A5 24 04               740 	add	a,#0x04
   00A7 F8                  741 	mov	r0,a
   00A8 E6                  742 	mov	a,@r0
   00A9 C0 E0               743 	push	acc
   00AB 08                  744 	inc	r0
   00AC E6                  745 	mov	a,@r0
   00AD C0 E0               746 	push	acc
   00AF E5*00               747 	mov	a,_bp
   00B1 24 06               748 	add	a,#0x06
   00B3 F8                  749 	mov	r0,a
   00B4 E6                  750 	mov	a,@r0
   00B5 C0 E0               751 	push	acc
   00B7 08                  752 	inc	r0
   00B8 E6                  753 	mov	a,@r0
   00B9 C0 E0               754 	push	acc
   00BB 08                  755 	inc	r0
   00BC E6                  756 	mov	a,@r0
   00BD C0 E0               757 	push	acc
   00BF C0 06               758 	push	ar6
   00C1 C0 07               759 	push	ar7
   00C3 E5*00               760 	mov	a,_bp
   00C5 24 FB               761 	add	a,#0xfb
   00C7 F8                  762 	mov	r0,a
   00C8 E6                  763 	mov	a,@r0
   00C9 C0 E0               764 	push	acc
   00CB 08                  765 	inc	r0
   00CC E6                  766 	mov	a,@r0
   00CD C0 E0               767 	push	acc
   00CF 08                  768 	inc	r0
   00D0 E6                  769 	mov	a,@r0
   00D1 C0 E0               770 	push	acc
   00D3 8A 82               771 	mov	dpl,r2
   00D5 8B 83               772 	mov	dph,r3
   00D7 8C F0               773 	mov	b,r4
   00D9 12s00r00            774 	lcall	_uip_udp_packet_sendto
   00DC E5 81               775 	mov	a,sp
   00DE 24 F6               776 	add	a,#0xf6
   00E0 F5 81               777 	mov	sp,a
   00E2                     778 00102$:
                            779 ;	../../core/net/simple-udp.c:87: return 0;
   00E2 90 00 00            780 	mov	dptr,#0x0000
   00E5 85*00 81            781 	mov	sp,_bp
   00E8 D0*00               782 	pop	_bp
   00EA 22                  783 	ret
                            784 ;------------------------------------------------------------
                            785 ;Allocation info for local variables in function 'simple_udp_sendto'
                            786 ;------------------------------------------------------------
                            787 ;data                      Allocated to stack - _bp -5
                            788 ;datalen                   Allocated to stack - _bp -7
                            789 ;to                        Allocated to stack - _bp -10
                            790 ;c                         Allocated to registers r5 r6 r7 
                            791 ;sloc0                     Allocated to stack - _bp +1
                            792 ;------------------------------------------------------------
                            793 ;	../../core/net/simple-udp.c:105: simple_udp_sendto(struct simple_udp_connection *c,
                            794 ;	-----------------------------------------
                            795 ;	 function simple_udp_sendto
                            796 ;	-----------------------------------------
   00EB                     797 _simple_udp_sendto:
   00EB C0*00               798 	push	_bp
   00ED 85 81*00            799 	mov	_bp,sp
   00F0 05 81               800 	inc	sp
   00F2 05 81               801 	inc	sp
   00F4 AD 82               802 	mov	r5,dpl
   00F6 AE 83               803 	mov	r6,dph
   00F8 AF F0               804 	mov	r7,b
                            805 ;	../../core/net/simple-udp.c:109: if(c->udp_conn != NULL) {
   00FA 74 0D               806 	mov	a,#0x0D
   00FC 2D                  807 	add	a,r5
   00FD FA                  808 	mov	r2,a
   00FE E4                  809 	clr	a
   00FF 3E                  810 	addc	a,r6
   0100 FB                  811 	mov	r3,a
   0101 8F 04               812 	mov	ar4,r7
   0103 8A 82               813 	mov	dpl,r2
   0105 8B 83               814 	mov	dph,r3
   0107 8C F0               815 	mov	b,r4
   0109 12s00r00            816 	lcall	__gptrget
   010C FA                  817 	mov	r2,a
   010D A3                  818 	inc	dptr
   010E 12s00r00            819 	lcall	__gptrget
   0111 FB                  820 	mov	r3,a
   0112 A3                  821 	inc	dptr
   0113 12s00r00            822 	lcall	__gptrget
   0116 FC                  823 	mov	r4,a
   0117 EA                  824 	mov	a,r2
   0118 4B                  825 	orl	a,r3
   0119 60 65               826 	jz	00102$
                            827 ;	../../core/net/simple-udp.c:111: to, UIP_HTONS(c->remote_port));
   011B 74 07               828 	mov	a,#0x07
   011D 2D                  829 	add	a,r5
   011E FD                  830 	mov	r5,a
   011F E4                  831 	clr	a
   0120 3E                  832 	addc	a,r6
   0121 FE                  833 	mov	r6,a
   0122 8D 82               834 	mov	dpl,r5
   0124 8E 83               835 	mov	dph,r6
   0126 8F F0               836 	mov	b,r7
   0128 12s00r00            837 	lcall	__gptrget
   012B FD                  838 	mov	r5,a
   012C A3                  839 	inc	dptr
   012D 12s00r00            840 	lcall	__gptrget
   0130 FE                  841 	mov	r6,a
   0131 A8*00               842 	mov	r0,_bp
   0133 08                  843 	inc	r0
   0134 A6 06               844 	mov	@r0,ar6
   0136 08                  845 	inc	r0
   0137 A6 05               846 	mov	@r0,ar5
                            847 ;	../../core/net/simple-udp.c:110: uip_udp_packet_sendto(c->udp_conn, data, datalen,
   0139 E5*00               848 	mov	a,_bp
   013B 24 F9               849 	add	a,#0xf9
   013D F8                  850 	mov	r0,a
   013E 86 06               851 	mov	ar6,@r0
   0140 08                  852 	inc	r0
   0141 86 07               853 	mov	ar7,@r0
   0143 A8*00               854 	mov	r0,_bp
   0145 08                  855 	inc	r0
   0146 E6                  856 	mov	a,@r0
   0147 C0 E0               857 	push	acc
   0149 08                  858 	inc	r0
   014A E6                  859 	mov	a,@r0
   014B C0 E0               860 	push	acc
   014D E5*00               861 	mov	a,_bp
   014F 24 F6               862 	add	a,#0xf6
   0151 F8                  863 	mov	r0,a
   0152 E6                  864 	mov	a,@r0
   0153 C0 E0               865 	push	acc
   0155 08                  866 	inc	r0
   0156 E6                  867 	mov	a,@r0
   0157 C0 E0               868 	push	acc
   0159 08                  869 	inc	r0
   015A E6                  870 	mov	a,@r0
   015B C0 E0               871 	push	acc
   015D C0 06               872 	push	ar6
   015F C0 07               873 	push	ar7
   0161 E5*00               874 	mov	a,_bp
   0163 24 FB               875 	add	a,#0xfb
   0165 F8                  876 	mov	r0,a
   0166 E6                  877 	mov	a,@r0
   0167 C0 E0               878 	push	acc
   0169 08                  879 	inc	r0
   016A E6                  880 	mov	a,@r0
   016B C0 E0               881 	push	acc
   016D 08                  882 	inc	r0
   016E E6                  883 	mov	a,@r0
   016F C0 E0               884 	push	acc
   0171 8A 82               885 	mov	dpl,r2
   0173 8B 83               886 	mov	dph,r3
   0175 8C F0               887 	mov	b,r4
   0177 12s00r00            888 	lcall	_uip_udp_packet_sendto
   017A E5 81               889 	mov	a,sp
   017C 24 F6               890 	add	a,#0xf6
   017E F5 81               891 	mov	sp,a
   0180                     892 00102$:
                            893 ;	../../core/net/simple-udp.c:113: return 0;
   0180 90 00 00            894 	mov	dptr,#0x0000
   0183 85*00 81            895 	mov	sp,_bp
   0186 D0*00               896 	pop	_bp
   0188 22                  897 	ret
                            898 ;------------------------------------------------------------
                            899 ;Allocation info for local variables in function 'simple_udp_register'
                            900 ;------------------------------------------------------------
                            901 ;local_port                Allocated to stack - _bp -4
                            902 ;remote_addr               Allocated to stack - _bp -7
                            903 ;remote_port               Allocated to stack - _bp -9
                            904 ;receive_callback          Allocated to stack - _bp -11
                            905 ;c                         Allocated to stack - _bp +1
                            906 ;tmp_current               Allocated to stack - _bp +4
                            907 ;sloc0                     Allocated to stack - _bp +7
                            908 ;sloc1                     Allocated to stack - _bp +10
                            909 ;------------------------------------------------------------
                            910 ;	../../core/net/simple-udp.c:136: simple_udp_register(struct simple_udp_connection *c,
                            911 ;	-----------------------------------------
                            912 ;	 function simple_udp_register
                            913 ;	-----------------------------------------
   0189                     914 _simple_udp_register:
   0189 C0*00               915 	push	_bp
   018B 85 81*00            916 	mov	_bp,sp
   018E C0 82               917 	push	dpl
   0190 C0 83               918 	push	dph
   0192 C0 F0               919 	push	b
   0194 E5 81               920 	mov	a,sp
   0196 24 08               921 	add	a,#0x08
   0198 F5 81               922 	mov	sp,a
                            923 ;	../../core/net/simple-udp.c:143: init_simple_udp();
   019A 12s00r00            924 	lcall	_init_simple_udp
                            925 ;	../../core/net/simple-udp.c:145: c->local_port = local_port;
   019D A8*00               926 	mov	r0,_bp
   019F 08                  927 	inc	r0
   01A0 74 09               928 	mov	a,#0x09
   01A2 26                  929 	add	a,@r0
   01A3 FA                  930 	mov	r2,a
   01A4 E4                  931 	clr	a
   01A5 08                  932 	inc	r0
   01A6 36                  933 	addc	a,@r0
   01A7 FB                  934 	mov	r3,a
   01A8 08                  935 	inc	r0
   01A9 86 04               936 	mov	ar4,@r0
   01AB 8A 82               937 	mov	dpl,r2
   01AD 8B 83               938 	mov	dph,r3
   01AF 8C F0               939 	mov	b,r4
   01B1 E5*00               940 	mov	a,_bp
   01B3 24 FC               941 	add	a,#0xfc
   01B5 F8                  942 	mov	r0,a
   01B6 E6                  943 	mov	a,@r0
   01B7 12s00r00            944 	lcall	__gptrput
   01BA A3                  945 	inc	dptr
   01BB 08                  946 	inc	r0
   01BC E6                  947 	mov	a,@r0
   01BD 12s00r00            948 	lcall	__gptrput
                            949 ;	../../core/net/simple-udp.c:146: c->remote_port = remote_port;
   01C0 A8*00               950 	mov	r0,_bp
   01C2 08                  951 	inc	r0
   01C3 74 07               952 	mov	a,#0x07
   01C5 26                  953 	add	a,@r0
   01C6 FA                  954 	mov	r2,a
   01C7 E4                  955 	clr	a
   01C8 08                  956 	inc	r0
   01C9 36                  957 	addc	a,@r0
   01CA FB                  958 	mov	r3,a
   01CB 08                  959 	inc	r0
   01CC 86 04               960 	mov	ar4,@r0
   01CE 8A 82               961 	mov	dpl,r2
   01D0 8B 83               962 	mov	dph,r3
   01D2 8C F0               963 	mov	b,r4
   01D4 E5*00               964 	mov	a,_bp
   01D6 24 F7               965 	add	a,#0xf7
   01D8 F8                  966 	mov	r0,a
   01D9 E6                  967 	mov	a,@r0
   01DA 12s00r00            968 	lcall	__gptrput
   01DD A3                  969 	inc	dptr
   01DE 08                  970 	inc	r0
   01DF E6                  971 	mov	a,@r0
   01E0 12s00r00            972 	lcall	__gptrput
                            973 ;	../../core/net/simple-udp.c:147: if(remote_addr != NULL) {
   01E3 E5*00               974 	mov	a,_bp
   01E5 24 F9               975 	add	a,#0xf9
   01E7 F8                  976 	mov	r0,a
   01E8 E6                  977 	mov	a,@r0
   01E9 08                  978 	inc	r0
   01EA 46                  979 	orl	a,@r0
   01EB 60 37               980 	jz	00102$
                            981 ;	../../core/net/simple-udp.c:148: uip_ipaddr_copy(&c->remote_addr, remote_addr);
   01ED E5*00               982 	mov	a,_bp
   01EF 24 F9               983 	add	a,#0xf9
   01F1 F8                  984 	mov	r0,a
   01F2 86 02               985 	mov	ar2,@r0
   01F4 08                  986 	inc	r0
   01F5 86 03               987 	mov	ar3,@r0
   01F7 08                  988 	inc	r0
   01F8 86 04               989 	mov	ar4,@r0
   01FA A8*00               990 	mov	r0,_bp
   01FC 08                  991 	inc	r0
   01FD 74 03               992 	mov	a,#0x03
   01FF 26                  993 	add	a,@r0
   0200 FD                  994 	mov	r5,a
   0201 E4                  995 	clr	a
   0202 08                  996 	inc	r0
   0203 36                  997 	addc	a,@r0
   0204 FE                  998 	mov	r6,a
   0205 08                  999 	inc	r0
   0206 86 07              1000 	mov	ar7,@r0
   0208 74 04              1001 	mov	a,#0x04
   020A C0 E0              1002 	push	acc
   020C E4                 1003 	clr	a
   020D C0 E0              1004 	push	acc
   020F C0 02              1005 	push	ar2
   0211 C0 03              1006 	push	ar3
   0213 C0 04              1007 	push	ar4
   0215 8D 82              1008 	mov	dpl,r5
   0217 8E 83              1009 	mov	dph,r6
   0219 8F F0              1010 	mov	b,r7
   021B 12s00r00           1011 	lcall	_memcpy
   021E E5 81              1012 	mov	a,sp
   0220 24 FB              1013 	add	a,#0xfb
   0222 F5 81              1014 	mov	sp,a
   0224                    1015 00102$:
                           1016 ;	../../core/net/simple-udp.c:150: c->receive_callback = receive_callback;
   0224 A8*00              1017 	mov	r0,_bp
   0226 08                 1018 	inc	r0
   0227 74 0B              1019 	mov	a,#0x0B
   0229 26                 1020 	add	a,@r0
   022A FD                 1021 	mov	r5,a
   022B E4                 1022 	clr	a
   022C 08                 1023 	inc	r0
   022D 36                 1024 	addc	a,@r0
   022E FE                 1025 	mov	r6,a
   022F 08                 1026 	inc	r0
   0230 86 07              1027 	mov	ar7,@r0
   0232 8D 82              1028 	mov	dpl,r5
   0234 8E 83              1029 	mov	dph,r6
   0236 8F F0              1030 	mov	b,r7
   0238 E5*00              1031 	mov	a,_bp
   023A 24 F5              1032 	add	a,#0xf5
   023C F8                 1033 	mov	r0,a
   023D E6                 1034 	mov	a,@r0
   023E 12s00r00           1035 	lcall	__gptrput
   0241 A3                 1036 	inc	dptr
   0242 08                 1037 	inc	r0
   0243 E6                 1038 	mov	a,@r0
   0244 12s00r00           1039 	lcall	__gptrput
                           1040 ;	../../core/net/simple-udp.c:152: PROCESS_CONTEXT_BEGIN(&simple_udp_process);
   0247 90s00r00           1041 	mov	dptr,#_process_current
   024A E0                 1042 	movx	a,@dptr
   024B FD                 1043 	mov	r5,a
   024C A3                 1044 	inc	dptr
   024D E0                 1045 	movx	a,@dptr
   024E FE                 1046 	mov	r6,a
   024F A3                 1047 	inc	dptr
   0250 E0                 1048 	movx	a,@dptr
   0251 FF                 1049 	mov	r7,a
   0252 E5*00              1050 	mov	a,_bp
   0254 24 04              1051 	add	a,#0x04
   0256 F8                 1052 	mov	r0,a
   0257 A6 05              1053 	mov	@r0,ar5
   0259 08                 1054 	inc	r0
   025A A6 06              1055 	mov	@r0,ar6
   025C 08                 1056 	inc	r0
   025D A6 07              1057 	mov	@r0,ar7
   025F 90s00r00           1058 	mov	dptr,#_process_current
   0262 74r00              1059 	mov	a,#_simple_udp_process
   0264 F0                 1060 	movx	@dptr,a
   0265 A3                 1061 	inc	dptr
   0266 74s00              1062 	mov	a,#(_simple_udp_process >> 8)
   0268 F0                 1063 	movx	@dptr,a
   0269 A3                 1064 	inc	dptr
   026A E4                 1065 	clr	a
   026B F0                 1066 	movx	@dptr,a
                           1067 ;	../../core/net/simple-udp.c:153: c->udp_conn = udp_new(remote_addr, UIP_HTONS(remote_port), c);
   026C A8*00              1068 	mov	r0,_bp
   026E 08                 1069 	inc	r0
   026F 74 0D              1070 	mov	a,#0x0D
   0271 26                 1071 	add	a,@r0
   0272 FA                 1072 	mov	r2,a
   0273 E4                 1073 	clr	a
   0274 08                 1074 	inc	r0
   0275 36                 1075 	addc	a,@r0
   0276 FB                 1076 	mov	r3,a
   0277 08                 1077 	inc	r0
   0278 86 04              1078 	mov	ar4,@r0
   027A A8*00              1079 	mov	r0,_bp
   027C 08                 1080 	inc	r0
   027D E5*00              1081 	mov	a,_bp
   027F 24 07              1082 	add	a,#0x07
   0281 F9                 1083 	mov	r1,a
   0282 E6                 1084 	mov	a,@r0
   0283 F7                 1085 	mov	@r1,a
   0284 08                 1086 	inc	r0
   0285 09                 1087 	inc	r1
   0286 E6                 1088 	mov	a,@r0
   0287 F7                 1089 	mov	@r1,a
   0288 08                 1090 	inc	r0
   0289 09                 1091 	inc	r1
   028A E6                 1092 	mov	a,@r0
   028B F7                 1093 	mov	@r1,a
   028C E5*00              1094 	mov	a,_bp
   028E 24 F7              1095 	add	a,#0xf7
   0290 F8                 1096 	mov	r0,a
   0291 E5*00              1097 	mov	a,_bp
   0293 24 0A              1098 	add	a,#0x0a
   0295 F9                 1099 	mov	r1,a
   0296 E6                 1100 	mov	a,@r0
   0297 09                 1101 	inc	r1
   0298 F7                 1102 	mov	@r1,a
   0299 19                 1103 	dec	r1
   029A 77 00              1104 	mov	@r1,#0x00
   029C E5*00              1105 	mov	a,_bp
   029E 24 F7              1106 	add	a,#0xf7
   02A0 F8                 1107 	mov	r0,a
   02A1 08                 1108 	inc	r0
   02A2 86 05              1109 	mov	ar5,@r0
   02A4 7F 00              1110 	mov	r7,#0x00
   02A6 E5*00              1111 	mov	a,_bp
   02A8 24 0A              1112 	add	a,#0x0a
   02AA F8                 1113 	mov	r0,a
   02AB E6                 1114 	mov	a,@r0
   02AC 42 05              1115 	orl	ar5,a
   02AE 08                 1116 	inc	r0
   02AF E6                 1117 	mov	a,@r0
   02B0 42 07              1118 	orl	ar7,a
   02B2 C0 04              1119 	push	ar4
   02B4 C0 03              1120 	push	ar3
   02B6 C0 02              1121 	push	ar2
   02B8 E5*00              1122 	mov	a,_bp
   02BA 24 07              1123 	add	a,#0x07
   02BC F8                 1124 	mov	r0,a
   02BD E6                 1125 	mov	a,@r0
   02BE C0 E0              1126 	push	acc
   02C0 08                 1127 	inc	r0
   02C1 E6                 1128 	mov	a,@r0
   02C2 C0 E0              1129 	push	acc
   02C4 08                 1130 	inc	r0
   02C5 E6                 1131 	mov	a,@r0
   02C6 C0 E0              1132 	push	acc
   02C8 C0 05              1133 	push	ar5
   02CA C0 07              1134 	push	ar7
   02CC E5*00              1135 	mov	a,_bp
   02CE 24 F9              1136 	add	a,#0xf9
   02D0 F8                 1137 	mov	r0,a
   02D1 86 82              1138 	mov	dpl,@r0
   02D3 08                 1139 	inc	r0
   02D4 86 83              1140 	mov	dph,@r0
   02D6 08                 1141 	inc	r0
   02D7 86 F0              1142 	mov	b,@r0
   02D9 12s00r00           1143 	lcall	_udp_new
   02DC AD 82              1144 	mov	r5,dpl
   02DE AE 83              1145 	mov	r6,dph
   02E0 AF F0              1146 	mov	r7,b
   02E2 E5 81              1147 	mov	a,sp
   02E4 24 FB              1148 	add	a,#0xfb
   02E6 F5 81              1149 	mov	sp,a
   02E8 D0 02              1150 	pop	ar2
   02EA D0 03              1151 	pop	ar3
   02EC D0 04              1152 	pop	ar4
   02EE 8A 82              1153 	mov	dpl,r2
   02F0 8B 83              1154 	mov	dph,r3
   02F2 8C F0              1155 	mov	b,r4
   02F4 ED                 1156 	mov	a,r5
   02F5 12s00r00           1157 	lcall	__gptrput
   02F8 A3                 1158 	inc	dptr
   02F9 EE                 1159 	mov	a,r6
   02FA 12s00r00           1160 	lcall	__gptrput
   02FD A3                 1161 	inc	dptr
   02FE EF                 1162 	mov	a,r7
   02FF 12s00r00           1163 	lcall	__gptrput
                           1164 ;	../../core/net/simple-udp.c:154: if(c->udp_conn != NULL) {
   0302 8A 82              1165 	mov	dpl,r2
   0304 8B 83              1166 	mov	dph,r3
   0306 8C F0              1167 	mov	b,r4
   0308 E5*00              1168 	mov	a,_bp
   030A 24 07              1169 	add	a,#0x07
   030C F8                 1170 	mov	r0,a
   030D 12s00r00           1171 	lcall	__gptrget
   0310 F6                 1172 	mov	@r0,a
   0311 A3                 1173 	inc	dptr
   0312 12s00r00           1174 	lcall	__gptrget
   0315 08                 1175 	inc	r0
   0316 F6                 1176 	mov	@r0,a
   0317 A3                 1177 	inc	dptr
   0318 12s00r00           1178 	lcall	__gptrget
   031B 08                 1179 	inc	r0
   031C F6                 1180 	mov	@r0,a
   031D ED                 1181 	mov	a,r5
   031E 4E                 1182 	orl	a,r6
   031F 60 51              1183 	jz	00104$
                           1184 ;	../../core/net/simple-udp.c:155: udp_bind(c->udp_conn, UIP_HTONS(local_port));
   0321 C0 02              1185 	push	ar2
   0323 C0 03              1186 	push	ar3
   0325 C0 04              1187 	push	ar4
   0327 E5*00              1188 	mov	a,_bp
   0329 24 07              1189 	add	a,#0x07
   032B F8                 1190 	mov	r0,a
   032C 74 04              1191 	mov	a,#0x04
   032E 26                 1192 	add	a,@r0
   032F FD                 1193 	mov	r5,a
   0330 E4                 1194 	clr	a
   0331 08                 1195 	inc	r0
   0332 36                 1196 	addc	a,@r0
   0333 FE                 1197 	mov	r6,a
   0334 08                 1198 	inc	r0
   0335 86 07              1199 	mov	ar7,@r0
   0337 E5*00              1200 	mov	a,_bp
   0339 24 FC              1201 	add	a,#0xfc
   033B F8                 1202 	mov	r0,a
   033C E5*00              1203 	mov	a,_bp
   033E 24 0A              1204 	add	a,#0x0a
   0340 F9                 1205 	mov	r1,a
   0341 E6                 1206 	mov	a,@r0
   0342 09                 1207 	inc	r1
   0343 F7                 1208 	mov	@r1,a
   0344 19                 1209 	dec	r1
   0345 77 00              1210 	mov	@r1,#0x00
   0347 E5*00              1211 	mov	a,_bp
   0349 24 FC              1212 	add	a,#0xfc
   034B F8                 1213 	mov	r0,a
   034C 08                 1214 	inc	r0
   034D 86 02              1215 	mov	ar2,@r0
   034F 7C 00              1216 	mov	r4,#0x00
   0351 E5*00              1217 	mov	a,_bp
   0353 24 0A              1218 	add	a,#0x0a
   0355 F8                 1219 	mov	r0,a
   0356 E6                 1220 	mov	a,@r0
   0357 42 02              1221 	orl	ar2,a
   0359 08                 1222 	inc	r0
   035A E6                 1223 	mov	a,@r0
   035B 42 04              1224 	orl	ar4,a
   035D 8D 82              1225 	mov	dpl,r5
   035F 8E 83              1226 	mov	dph,r6
   0361 8F F0              1227 	mov	b,r7
   0363 EA                 1228 	mov	a,r2
   0364 12s00r00           1229 	lcall	__gptrput
   0367 A3                 1230 	inc	dptr
   0368 EC                 1231 	mov	a,r4
   0369 12s00r00           1232 	lcall	__gptrput
                           1233 ;	../../core/net/simple-udp.c:162: return 1;
   036C D0 04              1234 	pop	ar4
   036E D0 03              1235 	pop	ar3
   0370 D0 02              1236 	pop	ar2
                           1237 ;	../../core/net/simple-udp.c:155: udp_bind(c->udp_conn, UIP_HTONS(local_port));
   0372                    1238 00104$:
                           1239 ;	../../core/net/simple-udp.c:157: PROCESS_CONTEXT_END();
   0372 E5*00              1240 	mov	a,_bp
   0374 24 04              1241 	add	a,#0x04
   0376 F8                 1242 	mov	r0,a
   0377 90s00r00           1243 	mov	dptr,#_process_current
   037A E6                 1244 	mov	a,@r0
   037B F0                 1245 	movx	@dptr,a
   037C 08                 1246 	inc	r0
   037D A3                 1247 	inc	dptr
   037E E6                 1248 	mov	a,@r0
   037F F0                 1249 	movx	@dptr,a
   0380 08                 1250 	inc	r0
   0381 A3                 1251 	inc	dptr
   0382 E6                 1252 	mov	a,@r0
   0383 F0                 1253 	movx	@dptr,a
                           1254 ;	../../core/net/simple-udp.c:159: if(c->udp_conn == NULL) {
   0384 8A 82              1255 	mov	dpl,r2
   0386 8B 83              1256 	mov	dph,r3
   0388 8C F0              1257 	mov	b,r4
   038A 12s00r00           1258 	lcall	__gptrget
   038D FA                 1259 	mov	r2,a
   038E A3                 1260 	inc	dptr
   038F 12s00r00           1261 	lcall	__gptrget
   0392 FB                 1262 	mov	r3,a
   0393 A3                 1263 	inc	dptr
   0394 12s00r00           1264 	lcall	__gptrget
   0397 FC                 1265 	mov	r4,a
   0398 EA                 1266 	mov	a,r2
   0399 4B                 1267 	orl	a,r3
   039A 70 05              1268 	jnz	00106$
                           1269 ;	../../core/net/simple-udp.c:160: return 0;
   039C 90 00 00           1270 	mov	dptr,#0x0000
   039F 80 03              1271 	sjmp	00107$
   03A1                    1272 00106$:
                           1273 ;	../../core/net/simple-udp.c:162: return 1;
   03A1 90 00 01           1274 	mov	dptr,#0x0001
   03A4                    1275 00107$:
   03A4 85*00 81           1276 	mov	sp,_bp
   03A7 D0*00              1277 	pop	_bp
   03A9 22                 1278 	ret
                           1279 ;------------------------------------------------------------
                           1280 ;Allocation info for local variables in function 'process_thread_simple_udp_process'
                           1281 ;------------------------------------------------------------
                           1282 ;ev                        Allocated to stack - _bp -3
                           1283 ;data                      Allocated to stack - _bp -6
                           1284 ;process_pt                Allocated to registers r5 r6 r7 
                           1285 ;c                         Allocated to stack - _bp +1
                           1286 ;PT_YIELD_FLAG             Allocated to registers r4 
                           1287 ;tmp_current               Allocated to stack - _bp +4
                           1288 ;sloc0                     Allocated to stack - _bp +7
                           1289 ;sloc1                     Allocated to stack - _bp +9
                           1290 ;sloc2                     Allocated to stack - _bp +11
                           1291 ;------------------------------------------------------------
                           1292 ;	../../core/net/simple-udp.c:165: PROCESS_THREAD(simple_udp_process, ev, data)
                           1293 ;	-----------------------------------------
                           1294 ;	 function process_thread_simple_udp_process
                           1295 ;	-----------------------------------------
   03AA                    1296 _process_thread_simple_udp_process:
   03AA C0*00              1297 	push	_bp
   03AC E5 81              1298 	mov	a,sp
   03AE F5*00              1299 	mov	_bp,a
   03B0 24 0C              1300 	add	a,#0x0C
   03B2 F5 81              1301 	mov	sp,a
                           1302 ;	../../core/net/simple-udp.c:168: PROCESS_BEGIN();
   03B4 AD 82              1303 	mov	r5,dpl
   03B6 AE 83              1304 	mov	r6,dph
   03B8 AF F0              1305 	mov	r7,b
   03BA 7C 01              1306 	mov	r4,#0x01
   03BC 12s00r00           1307 	lcall	__gptrget
   03BF FA                 1308 	mov	r2,a
   03C0 A3                 1309 	inc	dptr
   03C1 12s00r00           1310 	lcall	__gptrget
   03C4 FB                 1311 	mov	r3,a
   03C5 BA 00 05           1312 	cjne	r2,#0x00,00138$
   03C8 BB 00 02           1313 	cjne	r3,#0x00,00138$
   03CB 80 0B              1314 	sjmp	00117$
   03CD                    1315 00138$:
   03CD BA AB 05           1316 	cjne	r2,#0xAB,00139$
   03D0 BB 00 02           1317 	cjne	r3,#0x00,00139$
   03D3 80 15              1318 	sjmp	00102$
   03D5                    1319 00139$:
   03D5 02s05rF7           1320 	ljmp	00119$
                           1321 ;	../../core/net/simple-udp.c:170: while(1) {
   03D8                    1322 00117$:
                           1323 ;	../../core/net/simple-udp.c:171: PROCESS_WAIT_EVENT();
   03D8 7C 00              1324 	mov	r4,#0x00
   03DA 8D 82              1325 	mov	dpl,r5
   03DC 8E 83              1326 	mov	dph,r6
   03DE 8F F0              1327 	mov	b,r7
   03E0 74 AB              1328 	mov	a,#0xAB
   03E2 12s00r00           1329 	lcall	__gptrput
   03E5 A3                 1330 	inc	dptr
   03E6 E4                 1331 	clr	a
   03E7 12s00r00           1332 	lcall	__gptrput
   03EA                    1333 00102$:
   03EA EC                 1334 	mov	a,r4
   03EB 70 06              1335 	jnz	00106$
   03ED 75 82 01           1336 	mov	dpl,#0x01
   03F0 02s06r09           1337 	ljmp	00120$
   03F3                    1338 00106$:
                           1339 ;	../../core/net/simple-udp.c:172: if(ev == tcpip_event) {
   03F3 90s00r00           1340 	mov	dptr,#_tcpip_event
   03F6 E0                 1341 	movx	a,@dptr
   03F7 FC                 1342 	mov	r4,a
   03F8 E5*00              1343 	mov	a,_bp
   03FA 24 FD              1344 	add	a,#0xfd
   03FC F8                 1345 	mov	r0,a
   03FD E6                 1346 	mov	a,@r0
   03FE B5 04 D7           1347 	cjne	a,ar4,00117$
                           1348 ;	../../core/net/simple-udp.c:179: c = (struct simple_udp_connection *)data;
   0401 E5*00              1349 	mov	a,_bp
   0403 24 FA              1350 	add	a,#0xfa
   0405 F8                 1351 	mov	r0,a
   0406 A9*00              1352 	mov	r1,_bp
   0408 09                 1353 	inc	r1
   0409 E6                 1354 	mov	a,@r0
   040A F7                 1355 	mov	@r1,a
   040B 08                 1356 	inc	r0
   040C 09                 1357 	inc	r1
   040D E6                 1358 	mov	a,@r0
   040E F7                 1359 	mov	@r1,a
   040F 08                 1360 	inc	r0
   0410 09                 1361 	inc	r1
   0411 E6                 1362 	mov	a,@r0
   0412 F7                 1363 	mov	@r1,a
                           1364 ;	../../core/net/simple-udp.c:183: if(c != NULL) {
   0413 A8*00              1365 	mov	r0,_bp
   0415 08                 1366 	inc	r0
   0416 E6                 1367 	mov	a,@r0
   0417 08                 1368 	inc	r0
   0418 46                 1369 	orl	a,@r0
   0419 60 BD              1370 	jz	00117$
                           1371 ;	../../core/net/simple-udp.c:187: if(uip_newdata()) {
   041B C0 05              1372 	push	ar5
   041D C0 06              1373 	push	ar6
   041F C0 07              1374 	push	ar7
   0421 90s00r00           1375 	mov	dptr,#_uip_flags
   0424 E0                 1376 	movx	a,@dptr
   0425 D0 07              1377 	pop	ar7
   0427 D0 06              1378 	pop	ar6
   0429 D0 05              1379 	pop	ar5
   042B 30 E1 AA           1380 	jnb	acc.1,00117$
                           1381 ;	../../core/net/simple-udp.c:191: memcpy(databuffer, uip_appdata, uip_datalen());
   042E C0 05              1382 	push	ar5
   0430 C0 06              1383 	push	ar6
   0432 C0 07              1384 	push	ar7
   0434 C0 07              1385 	push	ar7
   0436 C0 06              1386 	push	ar6
   0438 C0 05              1387 	push	ar5
   043A 90s00r00           1388 	mov	dptr,#_uip_len
   043D E0                 1389 	movx	a,@dptr
   043E C0 E0              1390 	push	acc
   0440 A3                 1391 	inc	dptr
   0441 E0                 1392 	movx	a,@dptr
   0442 C0 E0              1393 	push	acc
   0444 90s00r00           1394 	mov	dptr,#_uip_appdata
   0447 E0                 1395 	movx	a,@dptr
   0448 C0 E0              1396 	push	acc
   044A A3                 1397 	inc	dptr
   044B E0                 1398 	movx	a,@dptr
   044C C0 E0              1399 	push	acc
   044E A3                 1400 	inc	dptr
   044F E0                 1401 	movx	a,@dptr
   0450 C0 E0              1402 	push	acc
   0452 90s00r00           1403 	mov	dptr,#_databuffer
   0455 75 F0 00           1404 	mov	b,#0x00
   0458 12s00r00           1405 	lcall	_memcpy
   045B E5 81              1406 	mov	a,sp
   045D 24 FB              1407 	add	a,#0xfb
   045F F5 81              1408 	mov	sp,a
   0461 D0 05              1409 	pop	ar5
   0463 D0 06              1410 	pop	ar6
   0465 D0 07              1411 	pop	ar7
                           1412 ;	../../core/net/simple-udp.c:196: if(c->receive_callback != NULL) {
   0467 A8*00              1413 	mov	r0,_bp
   0469 08                 1414 	inc	r0
   046A 74 0B              1415 	mov	a,#0x0B
   046C 26                 1416 	add	a,@r0
   046D FD                 1417 	mov	r5,a
   046E E4                 1418 	clr	a
   046F 08                 1419 	inc	r0
   0470 36                 1420 	addc	a,@r0
   0471 FE                 1421 	mov	r6,a
   0472 08                 1422 	inc	r0
   0473 86 07              1423 	mov	ar7,@r0
   0475 8D 82              1424 	mov	dpl,r5
   0477 8E 83              1425 	mov	dph,r6
   0479 8F F0              1426 	mov	b,r7
   047B E5*00              1427 	mov	a,_bp
   047D 24 07              1428 	add	a,#0x07
   047F F8                 1429 	mov	r0,a
   0480 12s00r00           1430 	lcall	__gptrget
   0483 F6                 1431 	mov	@r0,a
   0484 A3                 1432 	inc	dptr
   0485 12s00r00           1433 	lcall	__gptrget
   0488 08                 1434 	inc	r0
   0489 F6                 1435 	mov	@r0,a
   048A D0 07              1436 	pop	ar7
   048C D0 06              1437 	pop	ar6
   048E D0 05              1438 	pop	ar5
   0490 E5*00              1439 	mov	a,_bp
   0492 24 07              1440 	add	a,#0x07
   0494 F8                 1441 	mov	r0,a
   0495 E6                 1442 	mov	a,@r0
   0496 08                 1443 	inc	r0
   0497 46                 1444 	orl	a,@r0
   0498 70 03              1445 	jnz	00145$
   049A 02s03rD8           1446 	ljmp	00117$
   049D                    1447 00145$:
                           1448 ;	../../core/net/simple-udp.c:197: PROCESS_CONTEXT_BEGIN(c->client_process);
   049D C0 05              1449 	push	ar5
   049F C0 06              1450 	push	ar6
   04A1 C0 07              1451 	push	ar7
   04A3 90s00r00           1452 	mov	dptr,#_process_current
   04A6 E0                 1453 	movx	a,@dptr
   04A7 FC                 1454 	mov	r4,a
   04A8 A3                 1455 	inc	dptr
   04A9 E0                 1456 	movx	a,@dptr
   04AA FB                 1457 	mov	r3,a
   04AB A3                 1458 	inc	dptr
   04AC E0                 1459 	movx	a,@dptr
   04AD FA                 1460 	mov	r2,a
   04AE E5*00              1461 	mov	a,_bp
   04B0 24 04              1462 	add	a,#0x04
   04B2 F8                 1463 	mov	r0,a
   04B3 A6 04              1464 	mov	@r0,ar4
   04B5 08                 1465 	inc	r0
   04B6 A6 03              1466 	mov	@r0,ar3
   04B8 08                 1467 	inc	r0
   04B9 A6 02              1468 	mov	@r0,ar2
   04BB A8*00              1469 	mov	r0,_bp
   04BD 08                 1470 	inc	r0
   04BE 74 10              1471 	mov	a,#0x10
   04C0 26                 1472 	add	a,@r0
   04C1 FD                 1473 	mov	r5,a
   04C2 E4                 1474 	clr	a
   04C3 08                 1475 	inc	r0
   04C4 36                 1476 	addc	a,@r0
   04C5 FE                 1477 	mov	r6,a
   04C6 08                 1478 	inc	r0
   04C7 86 07              1479 	mov	ar7,@r0
   04C9 8D 82              1480 	mov	dpl,r5
   04CB 8E 83              1481 	mov	dph,r6
   04CD 8F F0              1482 	mov	b,r7
   04CF 12s00r00           1483 	lcall	__gptrget
   04D2 FD                 1484 	mov	r5,a
   04D3 A3                 1485 	inc	dptr
   04D4 12s00r00           1486 	lcall	__gptrget
   04D7 FE                 1487 	mov	r6,a
   04D8 A3                 1488 	inc	dptr
   04D9 12s00r00           1489 	lcall	__gptrget
   04DC FF                 1490 	mov	r7,a
   04DD 90s00r00           1491 	mov	dptr,#_process_current
   04E0 ED                 1492 	mov	a,r5
   04E1 F0                 1493 	movx	@dptr,a
   04E2 A3                 1494 	inc	dptr
   04E3 EE                 1495 	mov	a,r6
   04E4 F0                 1496 	movx	@dptr,a
   04E5 A3                 1497 	inc	dptr
   04E6 EF                 1498 	mov	a,r7
   04E7 F0                 1499 	movx	@dptr,a
                           1500 ;	../../core/net/simple-udp.c:203: databuffer, uip_datalen());
                           1501 ;	../../core/net/simple-udp.c:202: UIP_HTONS(UIP_IP_BUF->destport),
   04E8 7Er0E              1502 	mov	r6,#(_uip_aligned_buf + 0x000e)
   04EA 7Fs00              1503 	mov	r7,#((_uip_aligned_buf + 0x000e) >> 8)
   04EC 74 16              1504 	mov	a,#0x16
   04EE 2E                 1505 	add	a,r6
   04EF F5 82              1506 	mov	dpl,a
   04F1 E4                 1507 	clr	a
   04F2 3F                 1508 	addc	a,r7
   04F3 F5 83              1509 	mov	dph,a
   04F5 E0                 1510 	movx	a,@dptr
   04F6 FE                 1511 	mov	r6,a
   04F7 A3                 1512 	inc	dptr
   04F8 E0                 1513 	movx	a,@dptr
   04F9 8E 07              1514 	mov	ar7,r6
   04FB 7E 00              1515 	mov	r6,#0x00
   04FD 7Cr0E              1516 	mov	r4,#(_uip_aligned_buf + 0x000e)
   04FF 7Ds00              1517 	mov	r5,#((_uip_aligned_buf + 0x000e) >> 8)
   0501 74 16              1518 	mov	a,#0x16
   0503 2C                 1519 	add	a,r4
   0504 F5 82              1520 	mov	dpl,a
   0506 E4                 1521 	clr	a
   0507 3D                 1522 	addc	a,r5
   0508 F5 83              1523 	mov	dph,a
   050A E0                 1524 	movx	a,@dptr
   050B A3                 1525 	inc	dptr
   050C E0                 1526 	movx	a,@dptr
   050D FC                 1527 	mov	r4,a
   050E 7D 00              1528 	mov	r5,#0x00
   0510 E5*00              1529 	mov	a,_bp
   0512 24 09              1530 	add	a,#0x09
   0514 F8                 1531 	mov	r0,a
   0515 EC                 1532 	mov	a,r4
   0516 4E                 1533 	orl	a,r6
   0517 F6                 1534 	mov	@r0,a
   0518 ED                 1535 	mov	a,r5
   0519 4F                 1536 	orl	a,r7
   051A 08                 1537 	inc	r0
   051B F6                 1538 	mov	@r0,a
                           1539 ;	../../core/net/simple-udp.c:201: &(UIP_IP_BUF->destipaddr),
   051C 7Cr0E              1540 	mov	r4,#(_uip_aligned_buf + 0x000e)
   051E 7Ds00              1541 	mov	r5,#((_uip_aligned_buf + 0x000e) >> 8)
   0520 74 10              1542 	mov	a,#0x10
   0522 2C                 1543 	add	a,r4
   0523 FC                 1544 	mov	r4,a
   0524 E4                 1545 	clr	a
   0525 3D                 1546 	addc	a,r5
   0526 FD                 1547 	mov	r5,a
   0527 7B 00              1548 	mov	r3,#0x00
                           1549 ;	../../core/net/simple-udp.c:200: UIP_HTONS(UIP_IP_BUF->srcport),
   0529 7Ar0E              1550 	mov	r2,#(_uip_aligned_buf + 0x000e)
   052B 7Fs00              1551 	mov	r7,#((_uip_aligned_buf + 0x000e) >> 8)
   052D 74 14              1552 	mov	a,#0x14
   052F 2A                 1553 	add	a,r2
   0530 F5 82              1554 	mov	dpl,a
   0532 E4                 1555 	clr	a
   0533 3F                 1556 	addc	a,r7
   0534 F5 83              1557 	mov	dph,a
   0536 E0                 1558 	movx	a,@dptr
   0537 FE                 1559 	mov	r6,a
   0538 A3                 1560 	inc	dptr
   0539 E0                 1561 	movx	a,@dptr
   053A E5*00              1562 	mov	a,_bp
   053C 24 0B              1563 	add	a,#0x0b
   053E F8                 1564 	mov	r0,a
   053F 08                 1565 	inc	r0
   0540 A6 06              1566 	mov	@r0,ar6
   0542 18                 1567 	dec	r0
   0543 76 00              1568 	mov	@r0,#0x00
   0545 7Ar0E              1569 	mov	r2,#(_uip_aligned_buf + 0x000e)
   0547 7Fs00              1570 	mov	r7,#((_uip_aligned_buf + 0x000e) >> 8)
   0549 74 14              1571 	mov	a,#0x14
   054B 2A                 1572 	add	a,r2
   054C F5 82              1573 	mov	dpl,a
   054E E4                 1574 	clr	a
   054F 3F                 1575 	addc	a,r7
   0550 F5 83              1576 	mov	dph,a
   0552 E0                 1577 	movx	a,@dptr
   0553 A3                 1578 	inc	dptr
   0554 E0                 1579 	movx	a,@dptr
   0555 FE                 1580 	mov	r6,a
   0556 7F 00              1581 	mov	r7,#0x00
   0558 E5*00              1582 	mov	a,_bp
   055A 24 0B              1583 	add	a,#0x0b
   055C F8                 1584 	mov	r0,a
   055D EE                 1585 	mov	a,r6
   055E 46                 1586 	orl	a,@r0
   055F F6                 1587 	mov	@r0,a
   0560 EF                 1588 	mov	a,r7
   0561 08                 1589 	inc	r0
   0562 46                 1590 	orl	a,@r0
   0563 F6                 1591 	mov	@r0,a
                           1592 ;	../../core/net/simple-udp.c:199: &(UIP_IP_BUF->srcipaddr),
   0564 7Ar0E              1593 	mov	r2,#(_uip_aligned_buf + 0x000e)
   0566 7Fs00              1594 	mov	r7,#((_uip_aligned_buf + 0x000e) >> 8)
   0568 74 0C              1595 	mov	a,#0x0C
   056A 2A                 1596 	add	a,r2
   056B FA                 1597 	mov	r2,a
   056C E4                 1598 	clr	a
   056D 3F                 1599 	addc	a,r7
   056E FF                 1600 	mov	r7,a
   056F 7E 00              1601 	mov	r6,#0x00
                           1602 ;	../../core/net/simple-udp.c:198: c->receive_callback(c,
   0571 C0 07              1603 	push	ar7
   0573 C0 06              1604 	push	ar6
   0575 C0 05              1605 	push	ar5
   0577 90s00r00           1606 	mov	dptr,#_uip_len
   057A E0                 1607 	movx	a,@dptr
   057B C0 E0              1608 	push	acc
   057D A3                 1609 	inc	dptr
   057E E0                 1610 	movx	a,@dptr
   057F C0 E0              1611 	push	acc
   0581 74r00              1612 	mov	a,#_databuffer
   0583 C0 E0              1613 	push	acc
   0585 74s00              1614 	mov	a,#(_databuffer >> 8)
   0587 C0 E0              1615 	push	acc
   0589 E4                 1616 	clr	a
   058A C0 E0              1617 	push	acc
   058C E5*00              1618 	mov	a,_bp
   058E 24 09              1619 	add	a,#0x09
   0590 F8                 1620 	mov	r0,a
   0591 E6                 1621 	mov	a,@r0
   0592 C0 E0              1622 	push	acc
   0594 08                 1623 	inc	r0
   0595 E6                 1624 	mov	a,@r0
   0596 C0 E0              1625 	push	acc
   0598 C0 04              1626 	push	ar4
   059A C0 05              1627 	push	ar5
   059C C0 03              1628 	push	ar3
   059E E5*00              1629 	mov	a,_bp
   05A0 24 0B              1630 	add	a,#0x0b
   05A2 F8                 1631 	mov	r0,a
   05A3 E6                 1632 	mov	a,@r0
   05A4 C0 E0              1633 	push	acc
   05A6 08                 1634 	inc	r0
   05A7 E6                 1635 	mov	a,@r0
   05A8 C0 E0              1636 	push	acc
   05AA C0 02              1637 	push	ar2
   05AC C0 07              1638 	push	ar7
   05AE C0 06              1639 	push	ar6
   05B0 74rD0              1640 	mov	a,#00146$
   05B2 C0 E0              1641 	push	acc
   05B4 74s05              1642 	mov	a,#(00146$ >> 8)
   05B6 C0 E0              1643 	push	acc
   05B8 E5*00              1644 	mov	a,_bp
   05BA 24 07              1645 	add	a,#0x07
   05BC F8                 1646 	mov	r0,a
   05BD E6                 1647 	mov	a,@r0
   05BE C0 E0              1648 	push	acc
   05C0 08                 1649 	inc	r0
   05C1 E6                 1650 	mov	a,@r0
   05C2 C0 E0              1651 	push	acc
   05C4 A8*00              1652 	mov	r0,_bp
   05C6 08                 1653 	inc	r0
   05C7 86 82              1654 	mov	dpl,@r0
   05C9 08                 1655 	inc	r0
   05CA 86 83              1656 	mov	dph,@r0
   05CC 08                 1657 	inc	r0
   05CD 86 F0              1658 	mov	b,@r0
   05CF 22                 1659 	ret
   05D0                    1660 00146$:
   05D0 E5 81              1661 	mov	a,sp
   05D2 24 F1              1662 	add	a,#0xf1
   05D4 F5 81              1663 	mov	sp,a
   05D6 D0 05              1664 	pop	ar5
   05D8 D0 06              1665 	pop	ar6
   05DA D0 07              1666 	pop	ar7
                           1667 ;	../../core/net/simple-udp.c:204: PROCESS_CONTEXT_END();
   05DC E5*00              1668 	mov	a,_bp
   05DE 24 04              1669 	add	a,#0x04
   05E0 F8                 1670 	mov	r0,a
   05E1 90s00r00           1671 	mov	dptr,#_process_current
   05E4 E6                 1672 	mov	a,@r0
   05E5 F0                 1673 	movx	@dptr,a
   05E6 08                 1674 	inc	r0
   05E7 A3                 1675 	inc	dptr
   05E8 E6                 1676 	mov	a,@r0
   05E9 F0                 1677 	movx	@dptr,a
   05EA 08                 1678 	inc	r0
   05EB A3                 1679 	inc	dptr
   05EC E6                 1680 	mov	a,@r0
   05ED F0                 1681 	movx	@dptr,a
   05EE D0 07              1682 	pop	ar7
   05F0 D0 06              1683 	pop	ar6
   05F2 D0 05              1684 	pop	ar5
   05F4 02s03rD8           1685 	ljmp	00117$
                           1686 ;	../../core/net/simple-udp.c:212: PROCESS_END();
   05F7                    1687 00119$:
   05F7 8D 82              1688 	mov	dpl,r5
   05F9 8E 83              1689 	mov	dph,r6
   05FB 8F F0              1690 	mov	b,r7
   05FD E4                 1691 	clr	a
   05FE 12s00r00           1692 	lcall	__gptrput
   0601 A3                 1693 	inc	dptr
   0602 E4                 1694 	clr	a
   0603 12s00r00           1695 	lcall	__gptrput
   0606 75 82 03           1696 	mov	dpl,#0x03
   0609                    1697 00120$:
   0609 85*00 81           1698 	mov	sp,_bp
   060C D0*00              1699 	pop	_bp
   060E 22                 1700 	ret
                           1701 	.area CSEG    (CODE)
                           1702 	.area CONST   (CODE)
                           1703 	.area XINIT   (CODE)
   0000                    1704 __xinit__simple_udp_process:
                           1705 ; generic printIvalPtr
   0000 00 00 00           1706 	.byte #0x00,#0x00,#0x00
   0003rAAs03              1707 	.byte _process_thread_simple_udp_process,(_process_thread_simple_udp_process >> 8)
   0005 00 00              1708 	.byte #0x00,#0x00	; 0
   0007 00                 1709 	.db #0x00	; 0
   0008 00                 1710 	.db #0x00	; 0
   0009                    1711 __xinit__started:
   0009 00                 1712 	.db #0x00	; 0
                           1713 	.area CABS    (ABS,CODE)
