                              1 ;--------------------------------------------------------
                              2 ; File Created by SDCC : free open source ANSI-C Compiler
                              3 ; Version 3.1.1 #7100 (Apr  1 2013) (Linux)
                              4 ; This file was generated Tue Apr 23 09:41:28 2013
                              5 ;--------------------------------------------------------
                              6 	.module uip
                              7 	.optsdcc -mmcs51 --model-large
                              8 	
                              9 ;--------------------------------------------------------
                             10 ; Public variables in this module
                             11 ;--------------------------------------------------------
                             12 	.globl _uip_all_zeroes_addr
                             13 	.globl _uip_broadcast_addr
                             14 	.globl _tcpip_uipcall
                             15 	.globl _memset
                             16 	.globl _memcpy
                             17 	.globl _IRCON2_P2IF
                             18 	.globl _IRCON2_UTX0IF
                             19 	.globl _IRCON2_UTX1IF
                             20 	.globl _IRCON2_P1IF
                             21 	.globl _IRCON2_WDTIF
                             22 	.globl _CY
                             23 	.globl _AC
                             24 	.globl _F0
                             25 	.globl _RS1
                             26 	.globl _RS0
                             27 	.globl _OV
                             28 	.globl _F1
                             29 	.globl _P
                             30 	.globl _IRCON_DMAIF
                             31 	.globl _IRCON_T1IF
                             32 	.globl _IRCON_T2IF
                             33 	.globl _IRCON_T3IF
                             34 	.globl _IRCON_T4IF
                             35 	.globl _IRCON_P0IF
                             36 	.globl _IRCON_STIF
                             37 	.globl _IEN1_DMAIE
                             38 	.globl _IEN1_T1IE
                             39 	.globl _IEN1_T2IE
                             40 	.globl _IEN1_T3IE
                             41 	.globl _IEN1_T4IE
                             42 	.globl _IEN1_P0IE
                             43 	.globl _IEN0_RFERRIE
                             44 	.globl _IEN0_ADCIE
                             45 	.globl _IEN0_URX0IE
                             46 	.globl _IEN0_URX1IE
                             47 	.globl _IEN0_ENCIE
                             48 	.globl _IEN0_STIE
                             49 	.globl _IEN0_EA
                             50 	.globl _EA
                             51 	.globl _P2_4
                             52 	.globl _P2_3
                             53 	.globl _P2_2
                             54 	.globl _P2_1
                             55 	.globl _P2_0
                             56 	.globl _S0CON_ENCIF_0
                             57 	.globl _S0CON_ENCIF_1
                             58 	.globl _P1_7
                             59 	.globl _P1_6
                             60 	.globl _P1_5
                             61 	.globl _P1_4
                             62 	.globl _P1_3
                             63 	.globl _P1_2
                             64 	.globl _P1_1
                             65 	.globl _P1_0
                             66 	.globl _TCON_IT0
                             67 	.globl _TCON_RFERRIF
                             68 	.globl _TCON_IT1
                             69 	.globl _TCON_URX0IF
                             70 	.globl _TCON_ADCIF
                             71 	.globl _TCON_URX1IF
                             72 	.globl _P0_0
                             73 	.globl _P0_1
                             74 	.globl _P0_2
                             75 	.globl _P0_3
                             76 	.globl _P0_4
                             77 	.globl _P0_5
                             78 	.globl _P0_6
                             79 	.globl _P0_7
                             80 	.globl _P2DIR
                             81 	.globl _P1DIR
                             82 	.globl _P0DIR
                             83 	.globl _U1GCR
                             84 	.globl _U1UCR
                             85 	.globl _U1BAUD
                             86 	.globl _U1BUF
                             87 	.globl _U1CSR
                             88 	.globl _P2INP
                             89 	.globl _P1INP
                             90 	.globl _P2SEL
                             91 	.globl _P1SEL
                             92 	.globl _P0SEL
                             93 	.globl _ADCCFG
                             94 	.globl _PERCFG
                             95 	.globl _B
                             96 	.globl _T4CC1
                             97 	.globl _T4CCTL1
                             98 	.globl _T4CC0
                             99 	.globl _T4CCTL0
                            100 	.globl _T4CTL
                            101 	.globl _T4CNT
                            102 	.globl _RFIF
                            103 	.globl _IRCON2
                            104 	.globl _T1CCTL2
                            105 	.globl _T1CCTL1
                            106 	.globl _T1CCTL0
                            107 	.globl _T1CTL
                            108 	.globl _T1CNTH
                            109 	.globl _T1CNTL
                            110 	.globl _RFST
                            111 	.globl _ACC
                            112 	.globl _T1CC2H
                            113 	.globl _T1CC2L
                            114 	.globl _T1CC1H
                            115 	.globl _T1CC1L
                            116 	.globl _T1CC0H
                            117 	.globl _T1CC0L
                            118 	.globl _RFD
                            119 	.globl _TIMIF
                            120 	.globl _DMAREQ
                            121 	.globl _DMAARM
                            122 	.globl _DMA0CFGH
                            123 	.globl _DMA0CFGL
                            124 	.globl _DMA1CFGH
                            125 	.globl _DMA1CFGL
                            126 	.globl _DMAIRQ
                            127 	.globl _PSW
                            128 	.globl _T3CC1
                            129 	.globl _T3CCTL1
                            130 	.globl _T3CC0
                            131 	.globl _T3CCTL0
                            132 	.globl _T3CTL
                            133 	.globl _T3CNT
                            134 	.globl _WDCTL
                            135 	.globl _T2CON
                            136 	.globl _MEMCTR
                            137 	.globl _CLKCON
                            138 	.globl _U0GCR
                            139 	.globl _U0UCR
                            140 	.globl _T2CNF
                            141 	.globl _U0BAUD
                            142 	.globl _U0BUF
                            143 	.globl _IRCON
                            144 	.globl _SLEEP
                            145 	.globl _RNDH
                            146 	.globl _RNDL
                            147 	.globl _ADCH
                            148 	.globl _ADCL
                            149 	.globl _IP1
                            150 	.globl _IEN1
                            151 	.globl _RCCTL
                            152 	.globl _ADCCON3
                            153 	.globl _ADCCON2
                            154 	.globl _ADCCON1
                            155 	.globl _ENCCS
                            156 	.globl _ENCDO
                            157 	.globl _ENCDI
                            158 	.globl _FWDATA
                            159 	.globl _FCTL
                            160 	.globl _FADDRH
                            161 	.globl _FADDRL
                            162 	.globl _FWT
                            163 	.globl _IP0
                            164 	.globl _IEN0
                            165 	.globl _IE
                            166 	.globl _T2THD
                            167 	.globl _T2TLD
                            168 	.globl _T2CAPHPH
                            169 	.globl _T2CAPLPL
                            170 	.globl _T2OF2
                            171 	.globl _T2OF1
                            172 	.globl _T2OF0
                            173 	.globl _P2
                            174 	.globl _PSBANK
                            175 	.globl _FMAP
                            176 	.globl _T2PEROF2
                            177 	.globl _T2PEROF1
                            178 	.globl _T2PEROF0
                            179 	.globl _S1CON
                            180 	.globl _IEN2
                            181 	.globl _HSRC
                            182 	.globl _S0CON
                            183 	.globl _ST2
                            184 	.globl _ST1
                            185 	.globl _ST0
                            186 	.globl _T2CMP
                            187 	.globl __XPAGE
                            188 	.globl _DPS
                            189 	.globl _RFIM
                            190 	.globl _P1
                            191 	.globl _P0INP
                            192 	.globl _P1IEN
                            193 	.globl _PICTL
                            194 	.globl _P2IFG
                            195 	.globl _P1IFG
                            196 	.globl _P0IFG
                            197 	.globl _TCON
                            198 	.globl _PCON
                            199 	.globl _U0CSR
                            200 	.globl _DPH1
                            201 	.globl _DPL1
                            202 	.globl _DPH0
                            203 	.globl _DPL0
                            204 	.globl _SP
                            205 	.globl _P0
                            206 	.globl _uip_ethaddr
                            207 	.globl _uip_acc32
                            208 	.globl _uip_udp_conns
                            209 	.globl _uip_udp_conn
                            210 	.globl _uip_listenports
                            211 	.globl _uip_conns
                            212 	.globl _uip_conn
                            213 	.globl _uip_flags
                            214 	.globl _uip_slen
                            215 	.globl _uip_len
                            216 	.globl _uip_sappdata
                            217 	.globl _uip_appdata
                            218 	.globl _uip_aligned_buf
                            219 	.globl _uip_netmask
                            220 	.globl _uip_draddr
                            221 	.globl _uip_hostaddr
                            222 	.globl _ADC_SHADOW
                            223 	.globl _U1BUF_SHADOW
                            224 	.globl _RFD_SHADOW
                            225 	.globl _U0BUF_SHADOW
                            226 	.globl _RFSTATUS
                            227 	.globl _CHIPID
                            228 	.globl _CHVER
                            229 	.globl _FSMTC1
                            230 	.globl _RXFIFOCNT
                            231 	.globl _IOCFG3
                            232 	.globl _IOCFG2
                            233 	.globl _IOCFG1
                            234 	.globl _IOCFG0
                            235 	.globl _SHORTADDRL
                            236 	.globl _SHORTADDRH
                            237 	.globl _PANIDL
                            238 	.globl _PANIDH
                            239 	.globl _IEEE_ADDR7
                            240 	.globl _IEEE_ADDR6
                            241 	.globl _IEEE_ADDR5
                            242 	.globl _IEEE_ADDR4
                            243 	.globl _IEEE_ADDR3
                            244 	.globl _IEEE_ADDR2
                            245 	.globl _IEEE_ADDR1
                            246 	.globl _IEEE_ADDR0
                            247 	.globl _DACTSTL
                            248 	.globl _DACTSTH
                            249 	.globl _ADCTSTL
                            250 	.globl _ADCTSTH
                            251 	.globl _FSMSTATE
                            252 	.globl _AGCCTRLL
                            253 	.globl _AGCCTRLH
                            254 	.globl _MANORL
                            255 	.globl _MANORH
                            256 	.globl _MANANDL
                            257 	.globl _MANANDH
                            258 	.globl _FSMTCL
                            259 	.globl _FSMTCH
                            260 	.globl _RFPWR
                            261 	.globl _CSPT
                            262 	.globl _CSPCTRL
                            263 	.globl _CSPZ
                            264 	.globl _CSPY
                            265 	.globl _CSPX
                            266 	.globl _FSCTRLL
                            267 	.globl _FSCTRLH
                            268 	.globl _RXCTRL1L
                            269 	.globl _RXCTRL1H
                            270 	.globl _RXCTRL0L
                            271 	.globl _RXCTRL0H
                            272 	.globl _TXCTRLL
                            273 	.globl _TXCTRLH
                            274 	.globl _SYNCWORDL
                            275 	.globl _SYNCWORDH
                            276 	.globl _RSSIL
                            277 	.globl _RSSIH
                            278 	.globl _MDMCTRL1L
                            279 	.globl _MDMCTRL1H
                            280 	.globl _MDMCTRL0L
                            281 	.globl _MDMCTRL0H
                            282 	.globl _uip_setipid
                            283 	.globl _uip_add32
                            284 	.globl _uip_chksum
                            285 	.globl _uip_ipchksum
                            286 	.globl _uip_tcpchksum
                            287 	.globl _uip_init
                            288 	.globl _uip_connect
                            289 	.globl _uip_udp_new
                            290 	.globl _uip_unlisten
                            291 	.globl _uip_listen
                            292 	.globl _uip_process
                            293 	.globl _uip_htons
                            294 	.globl _uip_htonl
                            295 	.globl _uip_send
                            296 ;--------------------------------------------------------
                            297 ; special function registers
                            298 ;--------------------------------------------------------
                            299 	.area RSEG    (ABS,DATA)
   0000                     300 	.org 0x0000
                    0080    301 _P0	=	0x0080
                    0081    302 _SP	=	0x0081
                    0082    303 _DPL0	=	0x0082
                    0083    304 _DPH0	=	0x0083
                    0084    305 _DPL1	=	0x0084
                    0085    306 _DPH1	=	0x0085
                    0086    307 _U0CSR	=	0x0086
                    0087    308 _PCON	=	0x0087
                    0088    309 _TCON	=	0x0088
                    0089    310 _P0IFG	=	0x0089
                    008A    311 _P1IFG	=	0x008a
                    008B    312 _P2IFG	=	0x008b
                    008C    313 _PICTL	=	0x008c
                    008D    314 _P1IEN	=	0x008d
                    008F    315 _P0INP	=	0x008f
                    0090    316 _P1	=	0x0090
                    0091    317 _RFIM	=	0x0091
                    0092    318 _DPS	=	0x0092
                    0093    319 __XPAGE	=	0x0093
                    0094    320 _T2CMP	=	0x0094
                    0095    321 _ST0	=	0x0095
                    0096    322 _ST1	=	0x0096
                    0097    323 _ST2	=	0x0097
                    0098    324 _S0CON	=	0x0098
                    0099    325 _HSRC	=	0x0099
                    009A    326 _IEN2	=	0x009a
                    009B    327 _S1CON	=	0x009b
                    009C    328 _T2PEROF0	=	0x009c
                    009D    329 _T2PEROF1	=	0x009d
                    009E    330 _T2PEROF2	=	0x009e
                    009F    331 _FMAP	=	0x009f
                    009F    332 _PSBANK	=	0x009f
                    00A0    333 _P2	=	0x00a0
                    00A1    334 _T2OF0	=	0x00a1
                    00A2    335 _T2OF1	=	0x00a2
                    00A3    336 _T2OF2	=	0x00a3
                    00A4    337 _T2CAPLPL	=	0x00a4
                    00A5    338 _T2CAPHPH	=	0x00a5
                    00A6    339 _T2TLD	=	0x00a6
                    00A7    340 _T2THD	=	0x00a7
                    00A8    341 _IE	=	0x00a8
                    00A8    342 _IEN0	=	0x00a8
                    00A9    343 _IP0	=	0x00a9
                    00AB    344 _FWT	=	0x00ab
                    00AC    345 _FADDRL	=	0x00ac
                    00AD    346 _FADDRH	=	0x00ad
                    00AE    347 _FCTL	=	0x00ae
                    00AF    348 _FWDATA	=	0x00af
                    00B1    349 _ENCDI	=	0x00b1
                    00B2    350 _ENCDO	=	0x00b2
                    00B3    351 _ENCCS	=	0x00b3
                    00B4    352 _ADCCON1	=	0x00b4
                    00B5    353 _ADCCON2	=	0x00b5
                    00B6    354 _ADCCON3	=	0x00b6
                    00B7    355 _RCCTL	=	0x00b7
                    00B8    356 _IEN1	=	0x00b8
                    00B9    357 _IP1	=	0x00b9
                    00BA    358 _ADCL	=	0x00ba
                    00BB    359 _ADCH	=	0x00bb
                    00BC    360 _RNDL	=	0x00bc
                    00BD    361 _RNDH	=	0x00bd
                    00BE    362 _SLEEP	=	0x00be
                    00C0    363 _IRCON	=	0x00c0
                    00C1    364 _U0BUF	=	0x00c1
                    00C2    365 _U0BAUD	=	0x00c2
                    00C3    366 _T2CNF	=	0x00c3
                    00C4    367 _U0UCR	=	0x00c4
                    00C5    368 _U0GCR	=	0x00c5
                    00C6    369 _CLKCON	=	0x00c6
                    00C7    370 _MEMCTR	=	0x00c7
                    00C8    371 _T2CON	=	0x00c8
                    00C9    372 _WDCTL	=	0x00c9
                    00CA    373 _T3CNT	=	0x00ca
                    00CB    374 _T3CTL	=	0x00cb
                    00CC    375 _T3CCTL0	=	0x00cc
                    00CD    376 _T3CC0	=	0x00cd
                    00CE    377 _T3CCTL1	=	0x00ce
                    00CF    378 _T3CC1	=	0x00cf
                    00D0    379 _PSW	=	0x00d0
                    00D1    380 _DMAIRQ	=	0x00d1
                    00D2    381 _DMA1CFGL	=	0x00d2
                    00D3    382 _DMA1CFGH	=	0x00d3
                    00D4    383 _DMA0CFGL	=	0x00d4
                    00D5    384 _DMA0CFGH	=	0x00d5
                    00D6    385 _DMAARM	=	0x00d6
                    00D7    386 _DMAREQ	=	0x00d7
                    00D8    387 _TIMIF	=	0x00d8
                    00D9    388 _RFD	=	0x00d9
                    00DA    389 _T1CC0L	=	0x00da
                    00DB    390 _T1CC0H	=	0x00db
                    00DC    391 _T1CC1L	=	0x00dc
                    00DD    392 _T1CC1H	=	0x00dd
                    00DE    393 _T1CC2L	=	0x00de
                    00DF    394 _T1CC2H	=	0x00df
                    00E0    395 _ACC	=	0x00e0
                    00E1    396 _RFST	=	0x00e1
                    00E2    397 _T1CNTL	=	0x00e2
                    00E3    398 _T1CNTH	=	0x00e3
                    00E4    399 _T1CTL	=	0x00e4
                    00E5    400 _T1CCTL0	=	0x00e5
                    00E6    401 _T1CCTL1	=	0x00e6
                    00E7    402 _T1CCTL2	=	0x00e7
                    00E8    403 _IRCON2	=	0x00e8
                    00E9    404 _RFIF	=	0x00e9
                    00EA    405 _T4CNT	=	0x00ea
                    00EB    406 _T4CTL	=	0x00eb
                    00EC    407 _T4CCTL0	=	0x00ec
                    00ED    408 _T4CC0	=	0x00ed
                    00EE    409 _T4CCTL1	=	0x00ee
                    00EF    410 _T4CC1	=	0x00ef
                    00F0    411 _B	=	0x00f0
                    00F1    412 _PERCFG	=	0x00f1
                    00F2    413 _ADCCFG	=	0x00f2
                    00F3    414 _P0SEL	=	0x00f3
                    00F4    415 _P1SEL	=	0x00f4
                    00F5    416 _P2SEL	=	0x00f5
                    00F6    417 _P1INP	=	0x00f6
                    00F7    418 _P2INP	=	0x00f7
                    00F8    419 _U1CSR	=	0x00f8
                    00F9    420 _U1BUF	=	0x00f9
                    00FA    421 _U1BAUD	=	0x00fa
                    00FB    422 _U1UCR	=	0x00fb
                    00FC    423 _U1GCR	=	0x00fc
                    00FD    424 _P0DIR	=	0x00fd
                    00FE    425 _P1DIR	=	0x00fe
                    00FF    426 _P2DIR	=	0x00ff
                            427 ;--------------------------------------------------------
                            428 ; special function bits
                            429 ;--------------------------------------------------------
                            430 	.area RSEG    (ABS,DATA)
   0000                     431 	.org 0x0000
                    0087    432 _P0_7	=	0x0087
                    0086    433 _P0_6	=	0x0086
                    0085    434 _P0_5	=	0x0085
                    0084    435 _P0_4	=	0x0084
                    0083    436 _P0_3	=	0x0083
                    0082    437 _P0_2	=	0x0082
                    0081    438 _P0_1	=	0x0081
                    0080    439 _P0_0	=	0x0080
                    008F    440 _TCON_URX1IF	=	0x008f
                    008D    441 _TCON_ADCIF	=	0x008d
                    008B    442 _TCON_URX0IF	=	0x008b
                    008A    443 _TCON_IT1	=	0x008a
                    0089    444 _TCON_RFERRIF	=	0x0089
                    0088    445 _TCON_IT0	=	0x0088
                    0090    446 _P1_0	=	0x0090
                    0091    447 _P1_1	=	0x0091
                    0092    448 _P1_2	=	0x0092
                    0093    449 _P1_3	=	0x0093
                    0094    450 _P1_4	=	0x0094
                    0095    451 _P1_5	=	0x0095
                    0096    452 _P1_6	=	0x0096
                    0097    453 _P1_7	=	0x0097
                    0099    454 _S0CON_ENCIF_1	=	0x0099
                    0098    455 _S0CON_ENCIF_0	=	0x0098
                    00A0    456 _P2_0	=	0x00a0
                    00A1    457 _P2_1	=	0x00a1
                    00A2    458 _P2_2	=	0x00a2
                    00A3    459 _P2_3	=	0x00a3
                    00A4    460 _P2_4	=	0x00a4
                    00AF    461 _EA	=	0x00af
                    00AF    462 _IEN0_EA	=	0x00af
                    00AD    463 _IEN0_STIE	=	0x00ad
                    00AC    464 _IEN0_ENCIE	=	0x00ac
                    00AB    465 _IEN0_URX1IE	=	0x00ab
                    00AA    466 _IEN0_URX0IE	=	0x00aa
                    00A9    467 _IEN0_ADCIE	=	0x00a9
                    00A8    468 _IEN0_RFERRIE	=	0x00a8
                    00BD    469 _IEN1_P0IE	=	0x00bd
                    00BC    470 _IEN1_T4IE	=	0x00bc
                    00BB    471 _IEN1_T3IE	=	0x00bb
                    00BA    472 _IEN1_T2IE	=	0x00ba
                    00B9    473 _IEN1_T1IE	=	0x00b9
                    00B8    474 _IEN1_DMAIE	=	0x00b8
                    00C7    475 _IRCON_STIF	=	0x00c7
                    00C5    476 _IRCON_P0IF	=	0x00c5
                    00C4    477 _IRCON_T4IF	=	0x00c4
                    00C3    478 _IRCON_T3IF	=	0x00c3
                    00C2    479 _IRCON_T2IF	=	0x00c2
                    00C1    480 _IRCON_T1IF	=	0x00c1
                    00C0    481 _IRCON_DMAIF	=	0x00c0
                    00D0    482 _P	=	0x00d0
                    00D1    483 _F1	=	0x00d1
                    00D2    484 _OV	=	0x00d2
                    00D3    485 _RS0	=	0x00d3
                    00D4    486 _RS1	=	0x00d4
                    00D5    487 _F0	=	0x00d5
                    00D6    488 _AC	=	0x00d6
                    00D7    489 _CY	=	0x00d7
                    00EC    490 _IRCON2_WDTIF	=	0x00ec
                    00EB    491 _IRCON2_P1IF	=	0x00eb
                    00EA    492 _IRCON2_UTX1IF	=	0x00ea
                    00E9    493 _IRCON2_UTX0IF	=	0x00e9
                    00E8    494 _IRCON2_P2IF	=	0x00e8
                            495 ;--------------------------------------------------------
                            496 ; overlayable register banks
                            497 ;--------------------------------------------------------
                            498 	.area REG_BANK_0	(REL,OVR,DATA)
   0000                     499 	.ds 8
                            500 ;--------------------------------------------------------
                            501 ; internal ram data
                            502 ;--------------------------------------------------------
                            503 	.area DSEG    (DATA)
                            504 ;--------------------------------------------------------
                            505 ; overlayable items in internal ram 
                            506 ;--------------------------------------------------------
                            507 	.area OSEG    (OVR,DATA)
                            508 ;--------------------------------------------------------
                            509 ; indirectly addressable internal ram data
                            510 ;--------------------------------------------------------
                            511 	.area ISEG    (DATA)
                            512 ;--------------------------------------------------------
                            513 ; absolute internal ram data
                            514 ;--------------------------------------------------------
                            515 	.area IABS    (ABS,DATA)
                            516 	.area IABS    (ABS,DATA)
                            517 ;--------------------------------------------------------
                            518 ; bit data
                            519 ;--------------------------------------------------------
                            520 	.area BSEG    (BIT)
                            521 ;--------------------------------------------------------
                            522 ; paged external ram data
                            523 ;--------------------------------------------------------
                            524 	.area PSEG    (PAG,XDATA)
                            525 ;--------------------------------------------------------
                            526 ; external ram data
                            527 ;--------------------------------------------------------
                            528 	.area XSEG    (XDATA)
                    DF02    529 _MDMCTRL0H	=	0xdf02
                    DF03    530 _MDMCTRL0L	=	0xdf03
                    DF04    531 _MDMCTRL1H	=	0xdf04
                    DF05    532 _MDMCTRL1L	=	0xdf05
                    DF06    533 _RSSIH	=	0xdf06
                    DF07    534 _RSSIL	=	0xdf07
                    DF08    535 _SYNCWORDH	=	0xdf08
                    DF09    536 _SYNCWORDL	=	0xdf09
                    DF0A    537 _TXCTRLH	=	0xdf0a
                    DF0B    538 _TXCTRLL	=	0xdf0b
                    DF0C    539 _RXCTRL0H	=	0xdf0c
                    DF0D    540 _RXCTRL0L	=	0xdf0d
                    DF0E    541 _RXCTRL1H	=	0xdf0e
                    DF0F    542 _RXCTRL1L	=	0xdf0f
                    DF10    543 _FSCTRLH	=	0xdf10
                    DF11    544 _FSCTRLL	=	0xdf11
                    DF12    545 _CSPX	=	0xdf12
                    DF13    546 _CSPY	=	0xdf13
                    DF14    547 _CSPZ	=	0xdf14
                    DF15    548 _CSPCTRL	=	0xdf15
                    DF16    549 _CSPT	=	0xdf16
                    DF17    550 _RFPWR	=	0xdf17
                    DF20    551 _FSMTCH	=	0xdf20
                    DF21    552 _FSMTCL	=	0xdf21
                    DF22    553 _MANANDH	=	0xdf22
                    DF23    554 _MANANDL	=	0xdf23
                    DF24    555 _MANORH	=	0xdf24
                    DF25    556 _MANORL	=	0xdf25
                    DF26    557 _AGCCTRLH	=	0xdf26
                    DF27    558 _AGCCTRLL	=	0xdf27
                    DF39    559 _FSMSTATE	=	0xdf39
                    DF3A    560 _ADCTSTH	=	0xdf3a
                    DF3B    561 _ADCTSTL	=	0xdf3b
                    DF3C    562 _DACTSTH	=	0xdf3c
                    DF3D    563 _DACTSTL	=	0xdf3d
                    DF43    564 _IEEE_ADDR0	=	0xdf43
                    DF44    565 _IEEE_ADDR1	=	0xdf44
                    DF45    566 _IEEE_ADDR2	=	0xdf45
                    DF46    567 _IEEE_ADDR3	=	0xdf46
                    DF47    568 _IEEE_ADDR4	=	0xdf47
                    DF48    569 _IEEE_ADDR5	=	0xdf48
                    DF49    570 _IEEE_ADDR6	=	0xdf49
                    DF4A    571 _IEEE_ADDR7	=	0xdf4a
                    DF4B    572 _PANIDH	=	0xdf4b
                    DF4C    573 _PANIDL	=	0xdf4c
                    DF4D    574 _SHORTADDRH	=	0xdf4d
                    DF4E    575 _SHORTADDRL	=	0xdf4e
                    DF4F    576 _IOCFG0	=	0xdf4f
                    DF50    577 _IOCFG1	=	0xdf50
                    DF51    578 _IOCFG2	=	0xdf51
                    DF52    579 _IOCFG3	=	0xdf52
                    DF53    580 _RXFIFOCNT	=	0xdf53
                    DF54    581 _FSMTC1	=	0xdf54
                    DF60    582 _CHVER	=	0xdf60
                    DF61    583 _CHIPID	=	0xdf61
                    DF62    584 _RFSTATUS	=	0xdf62
                    DFC1    585 _U0BUF_SHADOW	=	0xdfc1
                    DFD9    586 _RFD_SHADOW	=	0xdfd9
                    DFF9    587 _U1BUF_SHADOW	=	0xdff9
                    DFBA    588 _ADC_SHADOW	=	0xdfba
   0000                     589 _uip_hostaddr::
   0000                     590 	.ds 4
   0004                     591 _uip_draddr::
   0004                     592 	.ds 4
   0008                     593 _uip_netmask::
   0008                     594 	.ds 4
   000C                     595 _uip_aligned_buf::
   000C                     596 	.ds 108
   0078                     597 _uip_appdata::
   0078                     598 	.ds 3
   007B                     599 _uip_sappdata::
   007B                     600 	.ds 3
   007E                     601 _uip_len::
   007E                     602 	.ds 2
   0080                     603 _uip_slen::
   0080                     604 	.ds 2
   0082                     605 _uip_flags::
   0082                     606 	.ds 1
   0083                     607 _uip_conn::
   0083                     608 	.ds 3
   0086                     609 _uip_conns::
   0086                     610 	.ds 340
   01DA                     611 _uip_listenports::
   01DA                     612 	.ds 40
   0202                     613 _uip_udp_conn::
   0202                     614 	.ds 3
   0205                     615 _uip_udp_conns::
   0205                     616 	.ds 150
   029B                     617 _ipid:
   029B                     618 	.ds 2
   029D                     619 _iss:
   029D                     620 	.ds 4
   02A1                     621 _lastport:
   02A1                     622 	.ds 2
   02A3                     623 _uip_acc32::
   02A3                     624 	.ds 4
   02A7                     625 _c:
   02A7                     626 	.ds 1
   02A8                     627 _opt:
   02A8                     628 	.ds 1
   02A9                     629 _tmp16:
   02A9                     630 	.ds 2
                            631 ;--------------------------------------------------------
                            632 ; absolute external ram data
                            633 ;--------------------------------------------------------
                            634 	.area XABS    (ABS,XDATA)
                            635 ;--------------------------------------------------------
                            636 ; external initialized ram data
                            637 ;--------------------------------------------------------
                            638 	.area XISEG   (XDATA)
   0000                     639 _uip_ethaddr::
   0000                     640 	.ds 6
                            641 	.area HOME    (CODE)
                            642 	.area GSINIT0 (CODE)
                            643 	.area GSINIT1 (CODE)
                            644 	.area GSINIT2 (CODE)
                            645 	.area GSINIT3 (CODE)
                            646 	.area GSINIT4 (CODE)
                            647 	.area GSINIT5 (CODE)
                            648 	.area GSINIT  (CODE)
                            649 	.area GSFINAL (CODE)
                            650 	.area CSEG    (CODE)
                            651 ;--------------------------------------------------------
                            652 ; global & static initialisations
                            653 ;--------------------------------------------------------
                            654 	.area HOME    (CODE)
                            655 	.area GSINIT  (CODE)
                            656 	.area GSFINAL (CODE)
                            657 	.area GSINIT  (CODE)
                            658 ;--------------------------------------------------------
                            659 ; Home
                            660 ;--------------------------------------------------------
                            661 	.area HOME    (CODE)
                            662 	.area HOME    (CODE)
                            663 ;--------------------------------------------------------
                            664 ; code
                            665 ;--------------------------------------------------------
                            666 	.area CSEG    (CODE)
                            667 ;------------------------------------------------------------
                            668 ;Allocation info for local variables in function 'uip_setipid'
                            669 ;------------------------------------------------------------
                            670 ;id                        Allocated to registers 
                            671 ;------------------------------------------------------------
                            672 ;	../../core/net/uip.c:170: void uip_setipid(uint16_t id) { ipid = id; }
                            673 ;	-----------------------------------------
                            674 ;	 function uip_setipid
                            675 ;	-----------------------------------------
   0000                     676 _uip_setipid:
                    0007    677 	ar7 = 0x07
                    0006    678 	ar6 = 0x06
                    0005    679 	ar5 = 0x05
                    0004    680 	ar4 = 0x04
                    0003    681 	ar3 = 0x03
                    0002    682 	ar2 = 0x02
                    0001    683 	ar1 = 0x01
                    0000    684 	ar0 = 0x00
   0000 AF 83               685 	mov	r7,dph
   0002 E5 82               686 	mov	a,dpl
   0004 90s02r9B            687 	mov	dptr,#_ipid
   0007 F0                  688 	movx	@dptr,a
   0008 A3                  689 	inc	dptr
   0009 EF                  690 	mov	a,r7
   000A F0                  691 	movx	@dptr,a
   000B 22                  692 	ret
                            693 ;------------------------------------------------------------
                            694 ;Allocation info for local variables in function 'uip_add32'
                            695 ;------------------------------------------------------------
                            696 ;op16                      Allocated to stack - _bp -4
                            697 ;op32                      Allocated to stack - _bp +1
                            698 ;------------------------------------------------------------
                            699 ;	../../core/net/uip.c:241: uip_add32(uint8_t *op32, uint16_t op16)
                            700 ;	-----------------------------------------
                            701 ;	 function uip_add32
                            702 ;	-----------------------------------------
   000C                     703 _uip_add32:
   000C C0*00               704 	push	_bp
   000E 85 81*00            705 	mov	_bp,sp
   0011 C0 82               706 	push	dpl
   0013 C0 83               707 	push	dph
   0015 C0 F0               708 	push	b
                            709 ;	../../core/net/uip.c:243: uip_acc32[3] = op32[3] + (op16 & 0xff);
   0017 A8*00               710 	mov	r0,_bp
   0019 08                  711 	inc	r0
   001A 74 03               712 	mov	a,#0x03
   001C 26                  713 	add	a,@r0
   001D FA                  714 	mov	r2,a
   001E E4                  715 	clr	a
   001F 08                  716 	inc	r0
   0020 36                  717 	addc	a,@r0
   0021 FB                  718 	mov	r3,a
   0022 08                  719 	inc	r0
   0023 86 04               720 	mov	ar4,@r0
   0025 8A 82               721 	mov	dpl,r2
   0027 8B 83               722 	mov	dph,r3
   0029 8C F0               723 	mov	b,r4
   002B 12s00r00            724 	lcall	__gptrget
   002E FA                  725 	mov	r2,a
   002F E5*00               726 	mov	a,_bp
   0031 24 FC               727 	add	a,#0xfc
   0033 F8                  728 	mov	r0,a
   0034 86 03               729 	mov	ar3,@r0
   0036 EB                  730 	mov	a,r3
   0037 2A                  731 	add	a,r2
   0038 90s02rA6            732 	mov	dptr,#(_uip_acc32 + 0x0003)
   003B F0                  733 	movx	@dptr,a
                            734 ;	../../core/net/uip.c:244: uip_acc32[2] = op32[2] + (op16 >> 8);
   003C A8*00               735 	mov	r0,_bp
   003E 08                  736 	inc	r0
   003F 74 02               737 	mov	a,#0x02
   0041 26                  738 	add	a,@r0
   0042 FA                  739 	mov	r2,a
   0043 E4                  740 	clr	a
   0044 08                  741 	inc	r0
   0045 36                  742 	addc	a,@r0
   0046 FB                  743 	mov	r3,a
   0047 08                  744 	inc	r0
   0048 86 04               745 	mov	ar4,@r0
   004A 8A 82               746 	mov	dpl,r2
   004C 8B 83               747 	mov	dph,r3
   004E 8C F0               748 	mov	b,r4
   0050 12s00r00            749 	lcall	__gptrget
   0053 FA                  750 	mov	r2,a
   0054 E5*00               751 	mov	a,_bp
   0056 24 FC               752 	add	a,#0xfc
   0058 F8                  753 	mov	r0,a
   0059 08                  754 	inc	r0
   005A E6                  755 	mov	a,@r0
   005B 2A                  756 	add	a,r2
   005C FA                  757 	mov	r2,a
   005D 90s02rA5            758 	mov	dptr,#(_uip_acc32 + 0x0002)
   0060 F0                  759 	movx	@dptr,a
                            760 ;	../../core/net/uip.c:245: uip_acc32[1] = op32[1];
   0061 A8*00               761 	mov	r0,_bp
   0063 08                  762 	inc	r0
   0064 74 01               763 	mov	a,#0x01
   0066 26                  764 	add	a,@r0
   0067 FB                  765 	mov	r3,a
   0068 E4                  766 	clr	a
   0069 08                  767 	inc	r0
   006A 36                  768 	addc	a,@r0
   006B FC                  769 	mov	r4,a
   006C 08                  770 	inc	r0
   006D 86 07               771 	mov	ar7,@r0
   006F 8B 82               772 	mov	dpl,r3
   0071 8C 83               773 	mov	dph,r4
   0073 8F F0               774 	mov	b,r7
   0075 12s00r00            775 	lcall	__gptrget
   0078 FB                  776 	mov	r3,a
   0079 90s02rA4            777 	mov	dptr,#(_uip_acc32 + 0x0001)
   007C F0                  778 	movx	@dptr,a
                            779 ;	../../core/net/uip.c:246: uip_acc32[0] = op32[0];
   007D A8*00               780 	mov	r0,_bp
   007F 08                  781 	inc	r0
   0080 86 82               782 	mov	dpl,@r0
   0082 08                  783 	inc	r0
   0083 86 83               784 	mov	dph,@r0
   0085 08                  785 	inc	r0
   0086 86 F0               786 	mov	b,@r0
   0088 12s00r00            787 	lcall	__gptrget
   008B 90s02rA3            788 	mov	dptr,#_uip_acc32
   008E F0                  789 	movx	@dptr,a
                            790 ;	../../core/net/uip.c:248: if(uip_acc32[2] < (op16 >> 8)) {
   008F E5*00               791 	mov	a,_bp
   0091 24 FC               792 	add	a,#0xfc
   0093 F8                  793 	mov	r0,a
   0094 08                  794 	inc	r0
   0095 86 06               795 	mov	ar6,@r0
   0097 7F 00               796 	mov	r7,#0x00
   0099 7D 00               797 	mov	r5,#0x00
   009B C3                  798 	clr	c
   009C EA                  799 	mov	a,r2
   009D 9E                  800 	subb	a,r6
   009E ED                  801 	mov	a,r5
   009F 9F                  802 	subb	a,r7
   00A0 50 19               803 	jnc	00104$
                            804 ;	../../core/net/uip.c:249: ++uip_acc32[1];
   00A2 90s02rA4            805 	mov	dptr,#(_uip_acc32 + 0x0001)
   00A5 E0                  806 	movx	a,@dptr
   00A6 FF                  807 	mov	r7,a
   00A7 0F                  808 	inc	r7
   00A8 90s02rA4            809 	mov	dptr,#(_uip_acc32 + 0x0001)
   00AB EF                  810 	mov	a,r7
   00AC F0                  811 	movx	@dptr,a
                            812 ;	../../core/net/uip.c:250: if(uip_acc32[1] == 0) {
   00AD EF                  813 	mov	a,r7
   00AE 70 0B               814 	jnz	00104$
                            815 ;	../../core/net/uip.c:251: ++uip_acc32[0];
   00B0 90s02rA3            816 	mov	dptr,#_uip_acc32
   00B3 E0                  817 	movx	a,@dptr
   00B4 FF                  818 	mov	r7,a
   00B5 0F                  819 	inc	r7
   00B6 90s02rA3            820 	mov	dptr,#_uip_acc32
   00B9 EF                  821 	mov	a,r7
   00BA F0                  822 	movx	@dptr,a
   00BB                     823 00104$:
                            824 ;	../../core/net/uip.c:256: if(uip_acc32[3] < (op16 & 0xff)) {
   00BB 90s02rA6            825 	mov	dptr,#(_uip_acc32 + 0x0003)
   00BE E0                  826 	movx	a,@dptr
   00BF FF                  827 	mov	r7,a
   00C0 E5*00               828 	mov	a,_bp
   00C2 24 FC               829 	add	a,#0xfc
   00C4 F8                  830 	mov	r0,a
   00C5 86 05               831 	mov	ar5,@r0
   00C7 7E 00               832 	mov	r6,#0x00
   00C9 7C 00               833 	mov	r4,#0x00
   00CB C3                  834 	clr	c
   00CC EF                  835 	mov	a,r7
   00CD 9D                  836 	subb	a,r5
   00CE EC                  837 	mov	a,r4
   00CF 9E                  838 	subb	a,r6
   00D0 50 27               839 	jnc	00111$
                            840 ;	../../core/net/uip.c:257: ++uip_acc32[2];
   00D2 90s02rA5            841 	mov	dptr,#(_uip_acc32 + 0x0002)
   00D5 E0                  842 	movx	a,@dptr
   00D6 FF                  843 	mov	r7,a
   00D7 0F                  844 	inc	r7
   00D8 90s02rA5            845 	mov	dptr,#(_uip_acc32 + 0x0002)
   00DB EF                  846 	mov	a,r7
   00DC F0                  847 	movx	@dptr,a
                            848 ;	../../core/net/uip.c:258: if(uip_acc32[2] == 0) {
   00DD EF                  849 	mov	a,r7
   00DE 70 19               850 	jnz	00111$
                            851 ;	../../core/net/uip.c:259: ++uip_acc32[1];
   00E0 90s02rA4            852 	mov	dptr,#(_uip_acc32 + 0x0001)
   00E3 E0                  853 	movx	a,@dptr
   00E4 FF                  854 	mov	r7,a
   00E5 0F                  855 	inc	r7
   00E6 90s02rA4            856 	mov	dptr,#(_uip_acc32 + 0x0001)
   00E9 EF                  857 	mov	a,r7
   00EA F0                  858 	movx	@dptr,a
                            859 ;	../../core/net/uip.c:260: if(uip_acc32[1] == 0) {
   00EB EF                  860 	mov	a,r7
   00EC 70 0B               861 	jnz	00111$
                            862 ;	../../core/net/uip.c:261: ++uip_acc32[0];
   00EE 90s02rA3            863 	mov	dptr,#_uip_acc32
   00F1 E0                  864 	movx	a,@dptr
   00F2 FF                  865 	mov	r7,a
   00F3 0F                  866 	inc	r7
   00F4 90s02rA3            867 	mov	dptr,#_uip_acc32
   00F7 EF                  868 	mov	a,r7
   00F8 F0                  869 	movx	@dptr,a
   00F9                     870 00111$:
   00F9 85*00 81            871 	mov	sp,_bp
   00FC D0*00               872 	pop	_bp
   00FE 22                  873 	ret
                            874 ;------------------------------------------------------------
                            875 ;Allocation info for local variables in function 'chksum'
                            876 ;------------------------------------------------------------
                            877 ;data                      Allocated to stack - _bp -5
                            878 ;len                       Allocated to stack - _bp -7
                            879 ;sum                       Allocated to stack - _bp +1
                            880 ;t                         Allocated to registers r3 r7 
                            881 ;dataptr                   Allocated to registers r7 r6 r3 
                            882 ;last_byte                 Allocated to stack - _bp +3
                            883 ;sloc0                     Allocated to stack - _bp +6
                            884 ;------------------------------------------------------------
                            885 ;	../../core/net/uip.c:272: chksum(uint16_t sum, const uint8_t *data, uint16_t len)
                            886 ;	-----------------------------------------
                            887 ;	 function chksum
                            888 ;	-----------------------------------------
   00FF                     889 _chksum:
   00FF C0*00               890 	push	_bp
   0101 85 81*00            891 	mov	_bp,sp
   0104 C0 82               892 	push	dpl
   0106 C0 83               893 	push	dph
   0108 E5 81               894 	mov	a,sp
   010A 24 05               895 	add	a,#0x05
   010C F5 81               896 	mov	sp,a
                            897 ;	../../core/net/uip.c:278: dataptr = data;
   010E E5*00               898 	mov	a,_bp
   0110 24 FB               899 	add	a,#0xfb
   0112 F8                  900 	mov	r0,a
   0113 86 07               901 	mov	ar7,@r0
   0115 08                  902 	inc	r0
   0116 86 06               903 	mov	ar6,@r0
   0118 08                  904 	inc	r0
   0119 86 03               905 	mov	ar3,@r0
                            906 ;	../../core/net/uip.c:279: last_byte = data + len - 1;
   011B E5*00               907 	mov	a,_bp
   011D 24 F9               908 	add	a,#0xf9
   011F F8                  909 	mov	r0,a
   0120 E6                  910 	mov	a,@r0
   0121 2F                  911 	add	a,r7
   0122 FA                  912 	mov	r2,a
   0123 08                  913 	inc	r0
   0124 E6                  914 	mov	a,@r0
   0125 3E                  915 	addc	a,r6
   0126 FC                  916 	mov	r4,a
   0127 8B 05               917 	mov	ar5,r3
   0129 E5*00               918 	mov	a,_bp
   012B 24 03               919 	add	a,#0x03
   012D F8                  920 	mov	r0,a
   012E EA                  921 	mov	a,r2
   012F 24 FF               922 	add	a,#0xFF
   0131 F6                  923 	mov	@r0,a
   0132 EC                  924 	mov	a,r4
   0133 34 FF               925 	addc	a,#0xFF
   0135 08                  926 	inc	r0
   0136 F6                  927 	mov	@r0,a
   0137 08                  928 	inc	r0
   0138 A6 05               929 	mov	@r0,ar5
                            930 ;	../../core/net/uip.c:281: while(dataptr < last_byte) {	/* At least two more bytes */
   013A 8F 02               931 	mov	ar2,r7
   013C 8E 04               932 	mov	ar4,r6
   013E 8B 05               933 	mov	ar5,r3
   0140                     934 00103$:
   0140 E5*00               935 	mov	a,_bp
   0142 24 03               936 	add	a,#0x03
   0144 F8                  937 	mov	r0,a
   0145 E6                  938 	mov	a,@r0
   0146 C0 E0               939 	push	acc
   0148 08                  940 	inc	r0
   0149 E6                  941 	mov	a,@r0
   014A C0 E0               942 	push	acc
   014C 08                  943 	inc	r0
   014D E6                  944 	mov	a,@r0
   014E C0 E0               945 	push	acc
   0150 8A 82               946 	mov	dpl,r2
   0152 8C 83               947 	mov	dph,r4
   0154 8D F0               948 	mov	b,r5
   0156 12s00r00            949 	lcall	___gptr_cmp
   0159 15 81               950 	dec	sp
   015B 15 81               951 	dec	sp
   015D 15 81               952 	dec	sp
   015F 50 5E               953 	jnc	00105$
                            954 ;	../../core/net/uip.c:282: t = (dataptr[0] << 8) + dataptr[1];
   0161 8A 82               955 	mov	dpl,r2
   0163 8C 83               956 	mov	dph,r4
   0165 8D F0               957 	mov	b,r5
   0167 12s00r00            958 	lcall	__gptrget
   016A FB                  959 	mov	r3,a
   016B E5*00               960 	mov	a,_bp
   016D 24 06               961 	add	a,#0x06
   016F F8                  962 	mov	r0,a
   0170 08                  963 	inc	r0
   0171 A6 03               964 	mov	@r0,ar3
   0173 18                  965 	dec	r0
   0174 76 00               966 	mov	@r0,#0x00
   0176 74 01               967 	mov	a,#0x01
   0178 2A                  968 	add	a,r2
   0179 FB                  969 	mov	r3,a
   017A E4                  970 	clr	a
   017B 3C                  971 	addc	a,r4
   017C FE                  972 	mov	r6,a
   017D 8D 07               973 	mov	ar7,r5
   017F 8B 82               974 	mov	dpl,r3
   0181 8E 83               975 	mov	dph,r6
   0183 8F F0               976 	mov	b,r7
   0185 12s00r00            977 	lcall	__gptrget
   0188 FB                  978 	mov	r3,a
   0189 7F 00               979 	mov	r7,#0x00
   018B E5*00               980 	mov	a,_bp
   018D 24 06               981 	add	a,#0x06
   018F F8                  982 	mov	r0,a
   0190 EB                  983 	mov	a,r3
   0191 26                  984 	add	a,@r0
   0192 FB                  985 	mov	r3,a
   0193 EF                  986 	mov	a,r7
   0194 08                  987 	inc	r0
   0195 36                  988 	addc	a,@r0
   0196 FF                  989 	mov	r7,a
                            990 ;	../../core/net/uip.c:283: sum += t;
   0197 A8*00               991 	mov	r0,_bp
   0199 08                  992 	inc	r0
   019A EB                  993 	mov	a,r3
   019B 26                  994 	add	a,@r0
   019C F6                  995 	mov	@r0,a
   019D EF                  996 	mov	a,r7
   019E 08                  997 	inc	r0
   019F 36                  998 	addc	a,@r0
   01A0 F6                  999 	mov	@r0,a
                           1000 ;	../../core/net/uip.c:284: if(sum < t) {
   01A1 A8*00              1001 	mov	r0,_bp
   01A3 08                 1002 	inc	r0
   01A4 C3                 1003 	clr	c
   01A5 E6                 1004 	mov	a,@r0
   01A6 9B                 1005 	subb	a,r3
   01A7 08                 1006 	inc	r0
   01A8 E6                 1007 	mov	a,@r0
   01A9 9F                 1008 	subb	a,r7
   01AA 50 09              1009 	jnc	00102$
                           1010 ;	../../core/net/uip.c:285: sum++;		/* carry */
   01AC A8*00              1011 	mov	r0,_bp
   01AE 08                 1012 	inc	r0
   01AF 06                 1013 	inc	@r0
   01B0 B6 00 02           1014 	cjne	@r0,#0x00,00125$
   01B3 08                 1015 	inc	r0
   01B4 06                 1016 	inc	@r0
   01B5                    1017 00125$:
   01B5                    1018 00102$:
                           1019 ;	../../core/net/uip.c:287: dataptr += 2;
   01B5 74 02              1020 	mov	a,#0x02
   01B7 2A                 1021 	add	a,r2
   01B8 FA                 1022 	mov	r2,a
   01B9 E4                 1023 	clr	a
   01BA 3C                 1024 	addc	a,r4
   01BB FC                 1025 	mov	r4,a
   01BC 02s01r40           1026 	ljmp	00103$
   01BF                    1027 00105$:
                           1028 ;	../../core/net/uip.c:290: if(dataptr == last_byte) {
   01BF E5*00              1029 	mov	a,_bp
   01C1 24 03              1030 	add	a,#0x03
   01C3 F8                 1031 	mov	r0,a
   01C4 C0 02              1032 	push	ar2
   01C6 C0 04              1033 	push	ar4
   01C8 C0 05              1034 	push	ar5
   01CA 86 82              1035 	mov	dpl,@r0
   01CC 08                 1036 	inc	r0
   01CD 86 83              1037 	mov	dph,@r0
   01CF 08                 1038 	inc	r0
   01D0 86 F0              1039 	mov	b,@r0
   01D2 12s00r00           1040 	lcall	___gptr_cmp
   01D5 15 81              1041 	dec	sp
   01D7 15 81              1042 	dec	sp
   01D9 15 81              1043 	dec	sp
   01DB 60 02              1044 	jz	00127$
   01DD 80 2E              1045 	sjmp	00109$
   01DF                    1046 00127$:
                           1047 ;	../../core/net/uip.c:291: t = (dataptr[0] << 8) + 0;
   01DF 8A 82              1048 	mov	dpl,r2
   01E1 8C 83              1049 	mov	dph,r4
   01E3 8D F0              1050 	mov	b,r5
   01E5 12s00r00           1051 	lcall	__gptrget
   01E8 FE                 1052 	mov	r6,a
   01E9 7A 00              1053 	mov	r2,#0x00
   01EB 8A 03              1054 	mov	ar3,r2
   01ED 8E 07              1055 	mov	ar7,r6
                           1056 ;	../../core/net/uip.c:292: sum += t;
   01EF A8*00              1057 	mov	r0,_bp
   01F1 08                 1058 	inc	r0
   01F2 EB                 1059 	mov	a,r3
   01F3 26                 1060 	add	a,@r0
   01F4 F6                 1061 	mov	@r0,a
   01F5 EF                 1062 	mov	a,r7
   01F6 08                 1063 	inc	r0
   01F7 36                 1064 	addc	a,@r0
   01F8 F6                 1065 	mov	@r0,a
                           1066 ;	../../core/net/uip.c:293: if(sum < t) {
   01F9 A8*00              1067 	mov	r0,_bp
   01FB 08                 1068 	inc	r0
   01FC C3                 1069 	clr	c
   01FD E6                 1070 	mov	a,@r0
   01FE 9B                 1071 	subb	a,r3
   01FF 08                 1072 	inc	r0
   0200 E6                 1073 	mov	a,@r0
   0201 9F                 1074 	subb	a,r7
   0202 50 09              1075 	jnc	00109$
                           1076 ;	../../core/net/uip.c:294: sum++;		/* carry */
   0204 A8*00              1077 	mov	r0,_bp
   0206 08                 1078 	inc	r0
   0207 06                 1079 	inc	@r0
   0208 B6 00 02           1080 	cjne	@r0,#0x00,00129$
   020B 08                 1081 	inc	r0
   020C 06                 1082 	inc	@r0
   020D                    1083 00129$:
   020D                    1084 00109$:
                           1085 ;	../../core/net/uip.c:299: return sum;
   020D A8*00              1086 	mov	r0,_bp
   020F 08                 1087 	inc	r0
   0210 86 82              1088 	mov	dpl,@r0
   0212 08                 1089 	inc	r0
   0213 86 83              1090 	mov	dph,@r0
   0215 85*00 81           1091 	mov	sp,_bp
   0218 D0*00              1092 	pop	_bp
   021A 22                 1093 	ret
                           1094 ;------------------------------------------------------------
                           1095 ;Allocation info for local variables in function 'uip_chksum'
                           1096 ;------------------------------------------------------------
                           1097 ;len                       Allocated to stack - _bp -4
                           1098 ;data                      Allocated to registers r5 r6 r7 
                           1099 ;------------------------------------------------------------
                           1100 ;	../../core/net/uip.c:303: uip_chksum(uint16_t *data, uint16_t len)
                           1101 ;	-----------------------------------------
                           1102 ;	 function uip_chksum
                           1103 ;	-----------------------------------------
   021B                    1104 _uip_chksum:
   021B C0*00              1105 	push	_bp
   021D 85 81*00           1106 	mov	_bp,sp
   0220 AD 82              1107 	mov	r5,dpl
   0222 AE 83              1108 	mov	r6,dph
   0224 AF F0              1109 	mov	r7,b
                           1110 ;	../../core/net/uip.c:305: return uip_htons(chksum(0, (uint8_t *)data, len));
   0226 E5*00              1111 	mov	a,_bp
   0228 24 FC              1112 	add	a,#0xfc
   022A F8                 1113 	mov	r0,a
   022B E6                 1114 	mov	a,@r0
   022C C0 E0              1115 	push	acc
   022E 08                 1116 	inc	r0
   022F E6                 1117 	mov	a,@r0
   0230 C0 E0              1118 	push	acc
   0232 C0 05              1119 	push	ar5
   0234 C0 06              1120 	push	ar6
   0236 C0 07              1121 	push	ar7
   0238 90 00 00           1122 	mov	dptr,#0x0000
   023B 12s00rFF           1123 	lcall	_chksum
   023E AE 82              1124 	mov	r6,dpl
   0240 AF 83              1125 	mov	r7,dph
   0242 E5 81              1126 	mov	a,sp
   0244 24 FB              1127 	add	a,#0xfb
   0246 F5 81              1128 	mov	sp,a
   0248 8E 82              1129 	mov	dpl,r6
   024A 8F 83              1130 	mov	dph,r7
   024C 12s31r0C           1131 	lcall	_uip_htons
   024F D0*00              1132 	pop	_bp
   0251 22                 1133 	ret
                           1134 ;------------------------------------------------------------
                           1135 ;Allocation info for local variables in function 'uip_ipchksum'
                           1136 ;------------------------------------------------------------
                           1137 ;sum                       Allocated to registers r6 r7 
                           1138 ;------------------------------------------------------------
                           1139 ;	../../core/net/uip.c:310: uip_ipchksum(void)
                           1140 ;	-----------------------------------------
                           1141 ;	 function uip_ipchksum
                           1142 ;	-----------------------------------------
   0252                    1143 _uip_ipchksum:
                           1144 ;	../../core/net/uip.c:314: sum = chksum(0, &uip_buf[UIP_LLH_LEN], UIP_IPH_LEN);
   0252 74 14              1145 	mov	a,#0x14
   0254 C0 E0              1146 	push	acc
   0256 E4                 1147 	clr	a
   0257 C0 E0              1148 	push	acc
   0259 74r1A              1149 	mov	a,#(_uip_aligned_buf + 0x000e)
   025B C0 E0              1150 	push	acc
   025D 74s00              1151 	mov	a,#((_uip_aligned_buf + 0x000e) >> 8)
   025F C0 E0              1152 	push	acc
   0261 E4                 1153 	clr	a
   0262 C0 E0              1154 	push	acc
   0264 90 00 00           1155 	mov	dptr,#0x0000
   0267 12s00rFF           1156 	lcall	_chksum
   026A AE 82              1157 	mov	r6,dpl
   026C AF 83              1158 	mov	r7,dph
   026E E5 81              1159 	mov	a,sp
   0270 24 FB              1160 	add	a,#0xfb
   0272 F5 81              1161 	mov	sp,a
                           1162 ;	../../core/net/uip.c:316: return (sum == 0) ? 0xffff : uip_htons(sum);
   0274 EE                 1163 	mov	a,r6
   0275 4F                 1164 	orl	a,r7
   0276 B4 01 00           1165 	cjne	a,#0x01,00107$
   0279                    1166 00107$:
   0279 E4                 1167 	clr	a
   027A 33                 1168 	rlc	a
   027B FD                 1169 	mov	r5,a
   027C 60 06              1170 	jz	00103$
   027E 7C FF              1171 	mov	r4,#0xFF
   0280 7D FF              1172 	mov	r5,#0xFF
   0282 80 0B              1173 	sjmp	00104$
   0284                    1174 00103$:
   0284 8E 82              1175 	mov	dpl,r6
   0286 8F 83              1176 	mov	dph,r7
   0288 12s31r0C           1177 	lcall	_uip_htons
   028B AC 82              1178 	mov	r4,dpl
   028D AD 83              1179 	mov	r5,dph
   028F                    1180 00104$:
   028F 8C 82              1181 	mov	dpl,r4
   0291 8D 83              1182 	mov	dph,r5
   0293 22                 1183 	ret
                           1184 ;------------------------------------------------------------
                           1185 ;Allocation info for local variables in function 'upper_layer_chksum'
                           1186 ;------------------------------------------------------------
                           1187 ;proto                     Allocated to registers r7 
                           1188 ;upper_layer_len           Allocated to stack - _bp +1
                           1189 ;sum                       Allocated to registers r7 r4 
                           1190 ;------------------------------------------------------------
                           1191 ;	../../core/net/uip.c:321: upper_layer_chksum(uint8_t proto)
                           1192 ;	-----------------------------------------
                           1193 ;	 function upper_layer_chksum
                           1194 ;	-----------------------------------------
   0294                    1195 _upper_layer_chksum:
   0294 C0*00              1196 	push	_bp
   0296 85 81*00           1197 	mov	_bp,sp
   0299 05 81              1198 	inc	sp
   029B 05 81              1199 	inc	sp
   029D AF 82              1200 	mov	r7,dpl
                           1201 ;	../../core/net/uip.c:329: upper_layer_len = (((uint16_t)(BUF->len[0]) << 8) + BUF->len[1]) - UIP_IPH_LEN;
   029F 7Dr1A              1202 	mov	r5,#(_uip_aligned_buf + 0x000e)
   02A1 7Es00              1203 	mov	r6,#((_uip_aligned_buf + 0x000e) >> 8)
   02A3 8D 82              1204 	mov	dpl,r5
   02A5 8E 83              1205 	mov	dph,r6
   02A7 A3                 1206 	inc	dptr
   02A8 A3                 1207 	inc	dptr
   02A9 E0                 1208 	movx	a,@dptr
   02AA FD                 1209 	mov	r5,a
   02AB 7E 00              1210 	mov	r6,#0x00
   02AD 7Br1A              1211 	mov	r3,#(_uip_aligned_buf + 0x000e)
   02AF 7Cs00              1212 	mov	r4,#((_uip_aligned_buf + 0x000e) >> 8)
   02B1 8B 82              1213 	mov	dpl,r3
   02B3 8C 83              1214 	mov	dph,r4
   02B5 A3                 1215 	inc	dptr
   02B6 A3                 1216 	inc	dptr
   02B7 A3                 1217 	inc	dptr
   02B8 E0                 1218 	movx	a,@dptr
   02B9 7B 00              1219 	mov	r3,#0x00
   02BB 2E                 1220 	add	a,r6
   02BC FE                 1221 	mov	r6,a
   02BD EB                 1222 	mov	a,r3
   02BE 3D                 1223 	addc	a,r5
   02BF FD                 1224 	mov	r5,a
   02C0 A8*00              1225 	mov	r0,_bp
   02C2 08                 1226 	inc	r0
   02C3 EE                 1227 	mov	a,r6
   02C4 24 EC              1228 	add	a,#0xEC
   02C6 F6                 1229 	mov	@r0,a
   02C7 ED                 1230 	mov	a,r5
   02C8 34 FF              1231 	addc	a,#0xFF
   02CA 08                 1232 	inc	r0
   02CB F6                 1233 	mov	@r0,a
                           1234 ;	../../core/net/uip.c:335: sum = upper_layer_len + proto;
   02CC 7C 00              1235 	mov	r4,#0x00
   02CE A8*00              1236 	mov	r0,_bp
   02D0 08                 1237 	inc	r0
   02D1 EF                 1238 	mov	a,r7
   02D2 26                 1239 	add	a,@r0
   02D3 FF                 1240 	mov	r7,a
   02D4 EC                 1241 	mov	a,r4
   02D5 08                 1242 	inc	r0
   02D6 36                 1243 	addc	a,@r0
   02D7 FC                 1244 	mov	r4,a
                           1245 ;	../../core/net/uip.c:337: sum = chksum(sum, (uint8_t *)&BUF->srcipaddr, 2 * sizeof(uip_ipaddr_t));
   02D8 7Ar1A              1246 	mov	r2,#(_uip_aligned_buf + 0x000e)
   02DA 7Bs00              1247 	mov	r3,#((_uip_aligned_buf + 0x000e) >> 8)
   02DC 74 0C              1248 	mov	a,#0x0C
   02DE 2A                 1249 	add	a,r2
   02DF FA                 1250 	mov	r2,a
   02E0 E4                 1251 	clr	a
   02E1 3B                 1252 	addc	a,r3
   02E2 FB                 1253 	mov	r3,a
   02E3 7E 00              1254 	mov	r6,#0x00
   02E5 74 08              1255 	mov	a,#0x08
   02E7 C0 E0              1256 	push	acc
   02E9 E4                 1257 	clr	a
   02EA C0 E0              1258 	push	acc
   02EC C0 02              1259 	push	ar2
   02EE C0 03              1260 	push	ar3
   02F0 C0 06              1261 	push	ar6
   02F2 8F 82              1262 	mov	dpl,r7
   02F4 8C 83              1263 	mov	dph,r4
   02F6 12s00rFF           1264 	lcall	_chksum
   02F9 AD 82              1265 	mov	r5,dpl
   02FB AE 83              1266 	mov	r6,dph
   02FD E5 81              1267 	mov	a,sp
   02FF 24 FB              1268 	add	a,#0xfb
   0301 F5 81              1269 	mov	sp,a
   0303 8D 07              1270 	mov	ar7,r5
   0305 8E 04              1271 	mov	ar4,r6
                           1272 ;	../../core/net/uip.c:340: sum = chksum(sum, &uip_buf[UIP_IPH_LEN + UIP_LLH_LEN],
   0307 A8*00              1273 	mov	r0,_bp
   0309 08                 1274 	inc	r0
   030A E6                 1275 	mov	a,@r0
   030B C0 E0              1276 	push	acc
   030D 08                 1277 	inc	r0
   030E E6                 1278 	mov	a,@r0
   030F C0 E0              1279 	push	acc
   0311 74r2E              1280 	mov	a,#(_uip_aligned_buf + 0x0022)
   0313 C0 E0              1281 	push	acc
   0315 74s00              1282 	mov	a,#((_uip_aligned_buf + 0x0022) >> 8)
   0317 C0 E0              1283 	push	acc
   0319 E4                 1284 	clr	a
   031A C0 E0              1285 	push	acc
   031C 8F 82              1286 	mov	dpl,r7
   031E 8C 83              1287 	mov	dph,r4
   0320 12s00rFF           1288 	lcall	_chksum
   0323 AD 82              1289 	mov	r5,dpl
   0325 AE 83              1290 	mov	r6,dph
   0327 E5 81              1291 	mov	a,sp
   0329 24 FB              1292 	add	a,#0xfb
   032B F5 81              1293 	mov	sp,a
   032D 8D 07              1294 	mov	ar7,r5
   032F 8E 04              1295 	mov	ar4,r6
                           1296 ;	../../core/net/uip.c:343: return (sum == 0) ? 0xffff : uip_htons(sum);
   0331 EF                 1297 	mov	a,r7
   0332 4C                 1298 	orl	a,r4
   0333 B4 01 00           1299 	cjne	a,#0x01,00107$
   0336                    1300 00107$:
   0336 E4                 1301 	clr	a
   0337 33                 1302 	rlc	a
   0338 FE                 1303 	mov	r6,a
   0339 60 06              1304 	jz	00103$
   033B 7D FF              1305 	mov	r5,#0xFF
   033D 7E FF              1306 	mov	r6,#0xFF
   033F 80 0B              1307 	sjmp	00104$
   0341                    1308 00103$:
   0341 8F 82              1309 	mov	dpl,r7
   0343 8C 83              1310 	mov	dph,r4
   0345 12s31r0C           1311 	lcall	_uip_htons
   0348 AD 82              1312 	mov	r5,dpl
   034A AE 83              1313 	mov	r6,dph
   034C                    1314 00104$:
   034C 8D 82              1315 	mov	dpl,r5
   034E 8E 83              1316 	mov	dph,r6
   0350 85*00 81           1317 	mov	sp,_bp
   0353 D0*00              1318 	pop	_bp
   0355 22                 1319 	ret
                           1320 ;------------------------------------------------------------
                           1321 ;Allocation info for local variables in function 'uip_tcpchksum'
                           1322 ;------------------------------------------------------------
                           1323 ;	../../core/net/uip.c:356: uip_tcpchksum(void)
                           1324 ;	-----------------------------------------
                           1325 ;	 function uip_tcpchksum
                           1326 ;	-----------------------------------------
   0356                    1327 _uip_tcpchksum:
                           1328 ;	../../core/net/uip.c:358: return upper_layer_chksum(UIP_PROTO_TCP);
   0356 75 82 06           1329 	mov	dpl,#0x06
   0359 02s02r94           1330 	ljmp	_upper_layer_chksum
                           1331 ;------------------------------------------------------------
                           1332 ;Allocation info for local variables in function 'uip_init'
                           1333 ;------------------------------------------------------------
                           1334 ;	../../core/net/uip.c:371: uip_init(void)
                           1335 ;	-----------------------------------------
                           1336 ;	 function uip_init
                           1337 ;	-----------------------------------------
   035C                    1338 _uip_init:
                           1339 ;	../../core/net/uip.c:373: for(c = 0; c < UIP_LISTENPORTS; ++c) {
   035C 90s02rA7           1340 	mov	dptr,#_c
   035F E4                 1341 	clr	a
   0360 F0                 1342 	movx	@dptr,a
   0361                    1343 00101$:
   0361 90s02rA7           1344 	mov	dptr,#_c
   0364 E0                 1345 	movx	a,@dptr
   0365 FF                 1346 	mov	r7,a
   0366 BF 14 00           1347 	cjne	r7,#0x14,00127$
   0369                    1348 00127$:
   0369 50 18              1349 	jnc	00104$
                           1350 ;	../../core/net/uip.c:374: uip_listenports[c] = 0;
   036B EF                 1351 	mov	a,r7
   036C 2F                 1352 	add	a,r7
   036D FE                 1353 	mov	r6,a
   036E 24rDA              1354 	add	a,#_uip_listenports
   0370 F5 82              1355 	mov	dpl,a
   0372 E4                 1356 	clr	a
   0373 34s01              1357 	addc	a,#(_uip_listenports >> 8)
   0375 F5 83              1358 	mov	dph,a
   0377 E4                 1359 	clr	a
   0378 F0                 1360 	movx	@dptr,a
   0379 A3                 1361 	inc	dptr
   037A F0                 1362 	movx	@dptr,a
                           1363 ;	../../core/net/uip.c:373: for(c = 0; c < UIP_LISTENPORTS; ++c) {
   037B 90s02rA7           1364 	mov	dptr,#_c
   037E EF                 1365 	mov	a,r7
   037F 04                 1366 	inc	a
   0380 F0                 1367 	movx	@dptr,a
   0381 80 DE              1368 	sjmp	00101$
   0383                    1369 00104$:
                           1370 ;	../../core/net/uip.c:376: for(c = 0; c < UIP_CONNS; ++c) {
   0383 90s02rA7           1371 	mov	dptr,#_c
   0386 E4                 1372 	clr	a
   0387 F0                 1373 	movx	@dptr,a
   0388                    1374 00105$:
   0388 90s02rA7           1375 	mov	dptr,#_c
   038B E0                 1376 	movx	a,@dptr
   038C FF                 1377 	mov	r7,a
   038D BF 0A 00           1378 	cjne	r7,#0x0A,00129$
   0390                    1379 00129$:
   0390 50 20              1380 	jnc	00108$
                           1381 ;	../../core/net/uip.c:377: uip_conns[c].tcpstateflags = UIP_CLOSED;
   0392 EF                 1382 	mov	a,r7
   0393 75 F0 22           1383 	mov	b,#0x22
   0396 A4                 1384 	mul	ab
   0397 24r86              1385 	add	a,#_uip_conns
   0399 FD                 1386 	mov	r5,a
   039A 74s00              1387 	mov	a,#(_uip_conns >> 8)
   039C 35 F0              1388 	addc	a,b
   039E FE                 1389 	mov	r6,a
   039F 74 19              1390 	mov	a,#0x19
   03A1 2D                 1391 	add	a,r5
   03A2 F5 82              1392 	mov	dpl,a
   03A4 E4                 1393 	clr	a
   03A5 3E                 1394 	addc	a,r6
   03A6 F5 83              1395 	mov	dph,a
   03A8 E4                 1396 	clr	a
   03A9 F0                 1397 	movx	@dptr,a
                           1398 ;	../../core/net/uip.c:376: for(c = 0; c < UIP_CONNS; ++c) {
   03AA 90s02rA7           1399 	mov	dptr,#_c
   03AD EF                 1400 	mov	a,r7
   03AE 04                 1401 	inc	a
   03AF F0                 1402 	movx	@dptr,a
   03B0 80 D6              1403 	sjmp	00105$
   03B2                    1404 00108$:
                           1405 ;	../../core/net/uip.c:380: lastport = 1024;
   03B2 90s02rA1           1406 	mov	dptr,#_lastport
   03B5 E4                 1407 	clr	a
   03B6 F0                 1408 	movx	@dptr,a
   03B7 A3                 1409 	inc	dptr
   03B8 74 04              1410 	mov	a,#0x04
   03BA F0                 1411 	movx	@dptr,a
                           1412 ;	../../core/net/uip.c:384: for(c = 0; c < UIP_UDP_CONNS; ++c) {
   03BB 90s02rA7           1413 	mov	dptr,#_c
   03BE E4                 1414 	clr	a
   03BF F0                 1415 	movx	@dptr,a
   03C0                    1416 00109$:
   03C0 90s02rA7           1417 	mov	dptr,#_c
   03C3 E0                 1418 	movx	a,@dptr
   03C4 FF                 1419 	mov	r7,a
   03C5 BF 0A 00           1420 	cjne	r7,#0x0A,00131$
   03C8                    1421 00131$:
   03C8 50 20              1422 	jnc	00113$
                           1423 ;	../../core/net/uip.c:385: uip_udp_conns[c].lport = 0;
   03CA EF                 1424 	mov	a,r7
   03CB 75 F0 0F           1425 	mov	b,#0x0F
   03CE A4                 1426 	mul	ab
   03CF 24r05              1427 	add	a,#_uip_udp_conns
   03D1 FD                 1428 	mov	r5,a
   03D2 E4                 1429 	clr	a
   03D3 34s02              1430 	addc	a,#(_uip_udp_conns >> 8)
   03D5 FE                 1431 	mov	r6,a
   03D6 8D 82              1432 	mov	dpl,r5
   03D8 8E 83              1433 	mov	dph,r6
   03DA A3                 1434 	inc	dptr
   03DB A3                 1435 	inc	dptr
   03DC A3                 1436 	inc	dptr
   03DD A3                 1437 	inc	dptr
   03DE E4                 1438 	clr	a
   03DF F0                 1439 	movx	@dptr,a
   03E0 A3                 1440 	inc	dptr
   03E1 F0                 1441 	movx	@dptr,a
                           1442 ;	../../core/net/uip.c:384: for(c = 0; c < UIP_UDP_CONNS; ++c) {
   03E2 90s02rA7           1443 	mov	dptr,#_c
   03E5 EF                 1444 	mov	a,r7
   03E6 04                 1445 	inc	a
   03E7 F0                 1446 	movx	@dptr,a
   03E8 80 D6              1447 	sjmp	00109$
   03EA                    1448 00113$:
   03EA 22                 1449 	ret
                           1450 ;------------------------------------------------------------
                           1451 ;Allocation info for local variables in function 'uip_connect'
                           1452 ;------------------------------------------------------------
                           1453 ;rport                     Allocated to stack - _bp -4
                           1454 ;ripaddr                   Allocated to stack - _bp +1
                           1455 ;conn                      Allocated to stack - _bp +4
                           1456 ;cconn                     Allocated to stack - _bp +7
                           1457 ;sloc0                     Allocated to stack - _bp +10
                           1458 ;sloc1                     Allocated to stack - _bp +10
                           1459 ;------------------------------------------------------------
                           1460 ;	../../core/net/uip.c:399: uip_connect(uip_ipaddr_t *ripaddr, uint16_t rport)
                           1461 ;	-----------------------------------------
                           1462 ;	 function uip_connect
                           1463 ;	-----------------------------------------
   03EB                    1464 _uip_connect:
   03EB C0*00              1465 	push	_bp
   03ED 85 81*00           1466 	mov	_bp,sp
   03F0 C0 82              1467 	push	dpl
   03F2 C0 83              1468 	push	dph
   03F4 C0 F0              1469 	push	b
   03F6 E5 81              1470 	mov	a,sp
   03F8 24 09              1471 	add	a,#0x09
   03FA F5 81              1472 	mov	sp,a
                           1473 ;	../../core/net/uip.c:404: again:
   03FC                    1474 00101$:
                           1475 ;	../../core/net/uip.c:405: ++lastport;
   03FC 90s02rA1           1476 	mov	dptr,#_lastport
   03FF E0                 1477 	movx	a,@dptr
   0400 24 01              1478 	add	a,#0x01
   0402 F0                 1479 	movx	@dptr,a
   0403 A3                 1480 	inc	dptr
   0404 E0                 1481 	movx	a,@dptr
   0405 34 00              1482 	addc	a,#0x00
   0407 F0                 1483 	movx	@dptr,a
                           1484 ;	../../core/net/uip.c:407: if(lastport >= 32000) {
   0408 90s02rA1           1485 	mov	dptr,#_lastport
   040B E0                 1486 	movx	a,@dptr
   040C FB                 1487 	mov	r3,a
   040D A3                 1488 	inc	dptr
   040E E0                 1489 	movx	a,@dptr
   040F FC                 1490 	mov	r4,a
   0410 C3                 1491 	clr	c
   0411 94 7D              1492 	subb	a,#0x7D
   0413 40 09              1493 	jc	00103$
                           1494 ;	../../core/net/uip.c:408: lastport = 4096;
   0415 90s02rA1           1495 	mov	dptr,#_lastport
   0418 E4                 1496 	clr	a
   0419 F0                 1497 	movx	@dptr,a
   041A A3                 1498 	inc	dptr
   041B 74 10              1499 	mov	a,#0x10
   041D F0                 1500 	movx	@dptr,a
   041E                    1501 00103$:
                           1502 ;	../../core/net/uip.c:413: for(c = 0; c < UIP_CONNS; ++c) {
   041E 90s02rA7           1503 	mov	dptr,#_c
   0421 E4                 1504 	clr	a
   0422 F0                 1505 	movx	@dptr,a
   0423                    1506 00120$:
   0423 90s02rA7           1507 	mov	dptr,#_c
   0426 E0                 1508 	movx	a,@dptr
   0427 FC                 1509 	mov	r4,a
   0428 BC 0A 00           1510 	cjne	r4,#0x0A,00149$
   042B                    1511 00149$:
   042B 40 03              1512 	jc	00150$
   042D 02s04rB4           1513 	ljmp	00123$
   0430                    1514 00150$:
                           1515 ;	../../core/net/uip.c:414: conn = &uip_conns[c];
   0430 EC                 1516 	mov	a,r4
   0431 75 F0 22           1517 	mov	b,#0x22
   0434 A4                 1518 	mul	ab
   0435 24r86              1519 	add	a,#_uip_conns
   0437 FB                 1520 	mov	r3,a
   0438 74s00              1521 	mov	a,#(_uip_conns >> 8)
   043A 35 F0              1522 	addc	a,b
   043C FC                 1523 	mov	r4,a
   043D E5*00              1524 	mov	a,_bp
   043F 24 04              1525 	add	a,#0x04
   0441 F8                 1526 	mov	r0,a
   0442 A6 03              1527 	mov	@r0,ar3
   0444 08                 1528 	inc	r0
   0445 A6 04              1529 	mov	@r0,ar4
   0447 08                 1530 	inc	r0
   0448 76 00              1531 	mov	@r0,#0x00
                           1532 ;	../../core/net/uip.c:415: if(conn->tcpstateflags != UIP_CLOSED &&
   044A E5*00              1533 	mov	a,_bp
   044C 24 04              1534 	add	a,#0x04
   044E F8                 1535 	mov	r0,a
   044F 74 19              1536 	mov	a,#0x19
   0451 26                 1537 	add	a,@r0
   0452 FD                 1538 	mov	r5,a
   0453 E4                 1539 	clr	a
   0454 08                 1540 	inc	r0
   0455 36                 1541 	addc	a,@r0
   0456 FE                 1542 	mov	r6,a
   0457 08                 1543 	inc	r0
   0458 86 07              1544 	mov	ar7,@r0
   045A 8D 82              1545 	mov	dpl,r5
   045C 8E 83              1546 	mov	dph,r6
   045E 8F F0              1547 	mov	b,r7
   0460 12s00r00           1548 	lcall	__gptrget
   0463 60 45              1549 	jz	00122$
                           1550 ;	../../core/net/uip.c:416: conn->lport == uip_htons(lastport)) {
   0465 E5*00              1551 	mov	a,_bp
   0467 24 04              1552 	add	a,#0x04
   0469 F8                 1553 	mov	r0,a
   046A 74 04              1554 	mov	a,#0x04
   046C 26                 1555 	add	a,@r0
   046D FD                 1556 	mov	r5,a
   046E E4                 1557 	clr	a
   046F 08                 1558 	inc	r0
   0470 36                 1559 	addc	a,@r0
   0471 FE                 1560 	mov	r6,a
   0472 08                 1561 	inc	r0
   0473 86 07              1562 	mov	ar7,@r0
   0475 8D 82              1563 	mov	dpl,r5
   0477 8E 83              1564 	mov	dph,r6
   0479 8F F0              1565 	mov	b,r7
   047B 12s00r00           1566 	lcall	__gptrget
   047E FD                 1567 	mov	r5,a
   047F A3                 1568 	inc	dptr
   0480 12s00r00           1569 	lcall	__gptrget
   0483 FC                 1570 	mov	r4,a
   0484 90s02rA1           1571 	mov	dptr,#_lastport
   0487 E0                 1572 	movx	a,@dptr
   0488 FE                 1573 	mov	r6,a
   0489 A3                 1574 	inc	dptr
   048A E0                 1575 	movx	a,@dptr
   048B FF                 1576 	mov	r7,a
   048C 8E 82              1577 	mov	dpl,r6
   048E 8F 83              1578 	mov	dph,r7
   0490 C0 05              1579 	push	ar5
   0492 C0 04              1580 	push	ar4
   0494 12s31r0C           1581 	lcall	_uip_htons
   0497 AE 82              1582 	mov	r6,dpl
   0499 AF 83              1583 	mov	r7,dph
   049B D0 04              1584 	pop	ar4
   049D D0 05              1585 	pop	ar5
   049F ED                 1586 	mov	a,r5
   04A0 B5 06 07           1587 	cjne	a,ar6,00152$
   04A3 EC                 1588 	mov	a,r4
   04A4 B5 07 03           1589 	cjne	a,ar7,00152$
   04A7 02s03rFC           1590 	ljmp	00101$
   04AA                    1591 00152$:
                           1592 ;	../../core/net/uip.c:417: goto again;
   04AA                    1593 00122$:
                           1594 ;	../../core/net/uip.c:413: for(c = 0; c < UIP_CONNS; ++c) {
   04AA 90s02rA7           1595 	mov	dptr,#_c
   04AD E0                 1596 	movx	a,@dptr
   04AE 24 01              1597 	add	a,#0x01
   04B0 F0                 1598 	movx	@dptr,a
   04B1 02s04r23           1599 	ljmp	00120$
   04B4                    1600 00123$:
                           1601 ;	../../core/net/uip.c:421: conn = 0;
   04B4 E5*00              1602 	mov	a,_bp
   04B6 24 04              1603 	add	a,#0x04
   04B8 F8                 1604 	mov	r0,a
   04B9 E4                 1605 	clr	a
   04BA F6                 1606 	mov	@r0,a
   04BB 08                 1607 	inc	r0
   04BC F6                 1608 	mov	@r0,a
   04BD 08                 1609 	inc	r0
   04BE 76 00              1610 	mov	@r0,#0x00
                           1611 ;	../../core/net/uip.c:422: for(c = 0; c < UIP_CONNS; ++c) {
   04C0 90s02rA7           1612 	mov	dptr,#_c
   04C3 E4                 1613 	clr	a
   04C4 F0                 1614 	movx	@dptr,a
   04C5                    1615 00114$:
   04C5 90s02rA7           1616 	mov	dptr,#_c
   04C8 E0                 1617 	movx	a,@dptr
   04C9 FF                 1618 	mov	r7,a
   04CA BF 0A 00           1619 	cjne	r7,#0x0A,00153$
   04CD                    1620 00153$:
   04CD 40 03              1621 	jc	00154$
   04CF 02s05r81           1622 	ljmp	00117$
   04D2                    1623 00154$:
                           1624 ;	../../core/net/uip.c:423: cconn = &uip_conns[c];
   04D2 EF                 1625 	mov	a,r7
   04D3 75 F0 22           1626 	mov	b,#0x22
   04D6 A4                 1627 	mul	ab
   04D7 24r86              1628 	add	a,#_uip_conns
   04D9 FE                 1629 	mov	r6,a
   04DA 74s00              1630 	mov	a,#(_uip_conns >> 8)
   04DC 35 F0              1631 	addc	a,b
   04DE FF                 1632 	mov	r7,a
   04DF E5*00              1633 	mov	a,_bp
   04E1 24 07              1634 	add	a,#0x07
   04E3 F8                 1635 	mov	r0,a
   04E4 A6 06              1636 	mov	@r0,ar6
   04E6 08                 1637 	inc	r0
   04E7 A6 07              1638 	mov	@r0,ar7
   04E9 08                 1639 	inc	r0
   04EA 76 00              1640 	mov	@r0,#0x00
                           1641 ;	../../core/net/uip.c:424: if(cconn->tcpstateflags == UIP_CLOSED) {
   04EC E5*00              1642 	mov	a,_bp
   04EE 24 07              1643 	add	a,#0x07
   04F0 F8                 1644 	mov	r0,a
   04F1 74 19              1645 	mov	a,#0x19
   04F3 26                 1646 	add	a,@r0
   04F4 FA                 1647 	mov	r2,a
   04F5 E4                 1648 	clr	a
   04F6 08                 1649 	inc	r0
   04F7 36                 1650 	addc	a,@r0
   04F8 FB                 1651 	mov	r3,a
   04F9 08                 1652 	inc	r0
   04FA 86 04              1653 	mov	ar4,@r0
   04FC 8A 82              1654 	mov	dpl,r2
   04FE 8B 83              1655 	mov	dph,r3
   0500 8C F0              1656 	mov	b,r4
   0502 12s00r00           1657 	lcall	__gptrget
   0505 FF                 1658 	mov	r7,a
   0506 70 16              1659 	jnz	00108$
                           1660 ;	../../core/net/uip.c:425: conn = cconn;
   0508 E5*00              1661 	mov	a,_bp
   050A 24 07              1662 	add	a,#0x07
   050C F8                 1663 	mov	r0,a
   050D E5*00              1664 	mov	a,_bp
   050F 24 04              1665 	add	a,#0x04
   0511 F9                 1666 	mov	r1,a
   0512 E6                 1667 	mov	a,@r0
   0513 F7                 1668 	mov	@r1,a
   0514 08                 1669 	inc	r0
   0515 09                 1670 	inc	r1
   0516 E6                 1671 	mov	a,@r0
   0517 F7                 1672 	mov	@r1,a
   0518 08                 1673 	inc	r0
   0519 09                 1674 	inc	r1
   051A E6                 1675 	mov	a,@r0
   051B F7                 1676 	mov	@r1,a
                           1677 ;	../../core/net/uip.c:426: break;
   051C 80 63              1678 	sjmp	00117$
   051E                    1679 00108$:
                           1680 ;	../../core/net/uip.c:428: if(cconn->tcpstateflags == UIP_TIME_WAIT) {
   051E BF 07 56           1681 	cjne	r7,#0x07,00116$
                           1682 ;	../../core/net/uip.c:429: if(conn == 0 ||
   0521 E5*00              1683 	mov	a,_bp
   0523 24 04              1684 	add	a,#0x04
   0525 F8                 1685 	mov	r0,a
   0526 E6                 1686 	mov	a,@r0
   0527 08                 1687 	inc	r0
   0528 46                 1688 	orl	a,@r0
   0529 60 38              1689 	jz	00109$
                           1690 ;	../../core/net/uip.c:430: cconn->timer > conn->timer) {
   052B E5*00              1691 	mov	a,_bp
   052D 24 07              1692 	add	a,#0x07
   052F F8                 1693 	mov	r0,a
   0530 74 1A              1694 	mov	a,#0x1A
   0532 26                 1695 	add	a,@r0
   0533 FD                 1696 	mov	r5,a
   0534 E4                 1697 	clr	a
   0535 08                 1698 	inc	r0
   0536 36                 1699 	addc	a,@r0
   0537 FE                 1700 	mov	r6,a
   0538 08                 1701 	inc	r0
   0539 86 07              1702 	mov	ar7,@r0
   053B 8D 82              1703 	mov	dpl,r5
   053D 8E 83              1704 	mov	dph,r6
   053F 8F F0              1705 	mov	b,r7
   0541 12s00r00           1706 	lcall	__gptrget
   0544 FD                 1707 	mov	r5,a
   0545 E5*00              1708 	mov	a,_bp
   0547 24 04              1709 	add	a,#0x04
   0549 F8                 1710 	mov	r0,a
   054A 74 1A              1711 	mov	a,#0x1A
   054C 26                 1712 	add	a,@r0
   054D FC                 1713 	mov	r4,a
   054E E4                 1714 	clr	a
   054F 08                 1715 	inc	r0
   0550 36                 1716 	addc	a,@r0
   0551 FE                 1717 	mov	r6,a
   0552 08                 1718 	inc	r0
   0553 86 07              1719 	mov	ar7,@r0
   0555 8C 82              1720 	mov	dpl,r4
   0557 8E 83              1721 	mov	dph,r6
   0559 8F F0              1722 	mov	b,r7
   055B 12s00r00           1723 	lcall	__gptrget
   055E FC                 1724 	mov	r4,a
   055F C3                 1725 	clr	c
   0560 9D                 1726 	subb	a,r5
   0561 50 14              1727 	jnc	00116$
   0563                    1728 00109$:
                           1729 ;	../../core/net/uip.c:431: conn = cconn;
   0563 E5*00              1730 	mov	a,_bp
   0565 24 07              1731 	add	a,#0x07
   0567 F8                 1732 	mov	r0,a
   0568 E5*00              1733 	mov	a,_bp
   056A 24 04              1734 	add	a,#0x04
   056C F9                 1735 	mov	r1,a
   056D E6                 1736 	mov	a,@r0
   056E F7                 1737 	mov	@r1,a
   056F 08                 1738 	inc	r0
   0570 09                 1739 	inc	r1
   0571 E6                 1740 	mov	a,@r0
   0572 F7                 1741 	mov	@r1,a
   0573 08                 1742 	inc	r0
   0574 09                 1743 	inc	r1
   0575 E6                 1744 	mov	a,@r0
   0576 F7                 1745 	mov	@r1,a
   0577                    1746 00116$:
                           1747 ;	../../core/net/uip.c:422: for(c = 0; c < UIP_CONNS; ++c) {
   0577 90s02rA7           1748 	mov	dptr,#_c
   057A E0                 1749 	movx	a,@dptr
   057B 24 01              1750 	add	a,#0x01
   057D F0                 1751 	movx	@dptr,a
   057E 02s04rC5           1752 	ljmp	00114$
   0581                    1753 00117$:
                           1754 ;	../../core/net/uip.c:436: if(conn == 0) {
   0581 E5*00              1755 	mov	a,_bp
   0583 24 04              1756 	add	a,#0x04
   0585 F8                 1757 	mov	r0,a
   0586 E6                 1758 	mov	a,@r0
   0587 08                 1759 	inc	r0
   0588 46                 1760 	orl	a,@r0
                           1761 ;	../../core/net/uip.c:437: return 0;
   0589 70 08              1762 	jnz	00119$
   058B 90 00 00           1763 	mov	dptr,#0x0000
   058E F5 F0              1764 	mov	b,a
   0590 02s07rC4           1765 	ljmp	00124$
   0593                    1766 00119$:
                           1767 ;	../../core/net/uip.c:440: conn->tcpstateflags = UIP_SYN_SENT;
   0593 E5*00              1768 	mov	a,_bp
   0595 24 04              1769 	add	a,#0x04
   0597 F8                 1770 	mov	r0,a
   0598 74 19              1771 	mov	a,#0x19
   059A 26                 1772 	add	a,@r0
   059B FD                 1773 	mov	r5,a
   059C E4                 1774 	clr	a
   059D 08                 1775 	inc	r0
   059E 36                 1776 	addc	a,@r0
   059F FE                 1777 	mov	r6,a
   05A0 08                 1778 	inc	r0
   05A1 86 07              1779 	mov	ar7,@r0
   05A3 8D 82              1780 	mov	dpl,r5
   05A5 8E 83              1781 	mov	dph,r6
   05A7 8F F0              1782 	mov	b,r7
   05A9 74 02              1783 	mov	a,#0x02
   05AB 12s00r00           1784 	lcall	__gptrput
                           1785 ;	../../core/net/uip.c:442: conn->snd_nxt[0] = iss[0];
   05AE E5*00              1786 	mov	a,_bp
   05B0 24 04              1787 	add	a,#0x04
   05B2 F8                 1788 	mov	r0,a
   05B3 74 0C              1789 	mov	a,#0x0C
   05B5 26                 1790 	add	a,@r0
   05B6 FD                 1791 	mov	r5,a
   05B7 E4                 1792 	clr	a
   05B8 08                 1793 	inc	r0
   05B9 36                 1794 	addc	a,@r0
   05BA FE                 1795 	mov	r6,a
   05BB 08                 1796 	inc	r0
   05BC 86 07              1797 	mov	ar7,@r0
   05BE 90s02r9D           1798 	mov	dptr,#_iss
   05C1 E0                 1799 	movx	a,@dptr
   05C2 8D 82              1800 	mov	dpl,r5
   05C4 8E 83              1801 	mov	dph,r6
   05C6 8F F0              1802 	mov	b,r7
   05C8 12s00r00           1803 	lcall	__gptrput
                           1804 ;	../../core/net/uip.c:443: conn->snd_nxt[1] = iss[1];
   05CB E5*00              1805 	mov	a,_bp
   05CD 24 04              1806 	add	a,#0x04
   05CF F8                 1807 	mov	r0,a
   05D0 74 0C              1808 	mov	a,#0x0C
   05D2 26                 1809 	add	a,@r0
   05D3 FD                 1810 	mov	r5,a
   05D4 E4                 1811 	clr	a
   05D5 08                 1812 	inc	r0
   05D6 36                 1813 	addc	a,@r0
   05D7 FE                 1814 	mov	r6,a
   05D8 08                 1815 	inc	r0
   05D9 86 07              1816 	mov	ar7,@r0
   05DB E5*00              1817 	mov	a,_bp
   05DD 24 0A              1818 	add	a,#0x0a
   05DF F8                 1819 	mov	r0,a
   05E0 74 01              1820 	mov	a,#0x01
   05E2 2D                 1821 	add	a,r5
   05E3 F6                 1822 	mov	@r0,a
   05E4 E4                 1823 	clr	a
   05E5 3E                 1824 	addc	a,r6
   05E6 08                 1825 	inc	r0
   05E7 F6                 1826 	mov	@r0,a
   05E8 08                 1827 	inc	r0
   05E9 A6 07              1828 	mov	@r0,ar7
   05EB 90s02r9E           1829 	mov	dptr,#(_iss + 0x0001)
   05EE E0                 1830 	movx	a,@dptr
   05EF FC                 1831 	mov	r4,a
   05F0 E5*00              1832 	mov	a,_bp
   05F2 24 0A              1833 	add	a,#0x0a
   05F4 F8                 1834 	mov	r0,a
   05F5 86 82              1835 	mov	dpl,@r0
   05F7 08                 1836 	inc	r0
   05F8 86 83              1837 	mov	dph,@r0
   05FA 08                 1838 	inc	r0
   05FB 86 F0              1839 	mov	b,@r0
   05FD EC                 1840 	mov	a,r4
   05FE 12s00r00           1841 	lcall	__gptrput
                           1842 ;	../../core/net/uip.c:444: conn->snd_nxt[2] = iss[2];
   0601 E5*00              1843 	mov	a,_bp
   0603 24 0A              1844 	add	a,#0x0a
   0605 F8                 1845 	mov	r0,a
   0606 74 02              1846 	mov	a,#0x02
   0608 2D                 1847 	add	a,r5
   0609 F6                 1848 	mov	@r0,a
   060A E4                 1849 	clr	a
   060B 3E                 1850 	addc	a,r6
   060C 08                 1851 	inc	r0
   060D F6                 1852 	mov	@r0,a
   060E 08                 1853 	inc	r0
   060F A6 07              1854 	mov	@r0,ar7
   0611 90s02r9F           1855 	mov	dptr,#(_iss + 0x0002)
   0614 E0                 1856 	movx	a,@dptr
   0615 FC                 1857 	mov	r4,a
   0616 E5*00              1858 	mov	a,_bp
   0618 24 0A              1859 	add	a,#0x0a
   061A F8                 1860 	mov	r0,a
   061B 86 82              1861 	mov	dpl,@r0
   061D 08                 1862 	inc	r0
   061E 86 83              1863 	mov	dph,@r0
   0620 08                 1864 	inc	r0
   0621 86 F0              1865 	mov	b,@r0
   0623 EC                 1866 	mov	a,r4
   0624 12s00r00           1867 	lcall	__gptrput
                           1868 ;	../../core/net/uip.c:445: conn->snd_nxt[3] = iss[3];
   0627 74 03              1869 	mov	a,#0x03
   0629 2D                 1870 	add	a,r5
   062A FD                 1871 	mov	r5,a
   062B E4                 1872 	clr	a
   062C 3E                 1873 	addc	a,r6
   062D FE                 1874 	mov	r6,a
   062E 90s02rA0           1875 	mov	dptr,#(_iss + 0x0003)
   0631 E0                 1876 	movx	a,@dptr
   0632 8D 82              1877 	mov	dpl,r5
   0634 8E 83              1878 	mov	dph,r6
   0636 8F F0              1879 	mov	b,r7
   0638 12s00r00           1880 	lcall	__gptrput
                           1881 ;	../../core/net/uip.c:447: conn->initialmss = conn->mss = UIP_TCP_MSS;
   063B E5*00              1882 	mov	a,_bp
   063D 24 04              1883 	add	a,#0x04
   063F F8                 1884 	mov	r0,a
   0640 74 14              1885 	mov	a,#0x14
   0642 26                 1886 	add	a,@r0
   0643 FD                 1887 	mov	r5,a
   0644 E4                 1888 	clr	a
   0645 08                 1889 	inc	r0
   0646 36                 1890 	addc	a,@r0
   0647 FE                 1891 	mov	r6,a
   0648 08                 1892 	inc	r0
   0649 86 07              1893 	mov	ar7,@r0
   064B E5*00              1894 	mov	a,_bp
   064D 24 04              1895 	add	a,#0x04
   064F F8                 1896 	mov	r0,a
   0650 74 12              1897 	mov	a,#0x12
   0652 26                 1898 	add	a,@r0
   0653 FA                 1899 	mov	r2,a
   0654 E4                 1900 	clr	a
   0655 08                 1901 	inc	r0
   0656 36                 1902 	addc	a,@r0
   0657 FB                 1903 	mov	r3,a
   0658 08                 1904 	inc	r0
   0659 86 04              1905 	mov	ar4,@r0
   065B 8A 82              1906 	mov	dpl,r2
   065D 8B 83              1907 	mov	dph,r3
   065F 8C F0              1908 	mov	b,r4
   0661 74 36              1909 	mov	a,#0x36
   0663 12s00r00           1910 	lcall	__gptrput
   0666 A3                 1911 	inc	dptr
   0667 E4                 1912 	clr	a
   0668 12s00r00           1913 	lcall	__gptrput
   066B 8D 82              1914 	mov	dpl,r5
   066D 8E 83              1915 	mov	dph,r6
   066F 8F F0              1916 	mov	b,r7
   0671 74 36              1917 	mov	a,#0x36
   0673 12s00r00           1918 	lcall	__gptrput
   0676 A3                 1919 	inc	dptr
   0677 E4                 1920 	clr	a
   0678 12s00r00           1921 	lcall	__gptrput
                           1922 ;	../../core/net/uip.c:449: conn->len = 1;   /* TCP length of the SYN is one. */
   067B E5*00              1923 	mov	a,_bp
   067D 24 04              1924 	add	a,#0x04
   067F F8                 1925 	mov	r0,a
   0680 74 10              1926 	mov	a,#0x10
   0682 26                 1927 	add	a,@r0
   0683 FD                 1928 	mov	r5,a
   0684 E4                 1929 	clr	a
   0685 08                 1930 	inc	r0
   0686 36                 1931 	addc	a,@r0
   0687 FE                 1932 	mov	r6,a
   0688 08                 1933 	inc	r0
   0689 86 07              1934 	mov	ar7,@r0
   068B 8D 82              1935 	mov	dpl,r5
   068D 8E 83              1936 	mov	dph,r6
   068F 8F F0              1937 	mov	b,r7
   0691 74 01              1938 	mov	a,#0x01
   0693 12s00r00           1939 	lcall	__gptrput
   0696 A3                 1940 	inc	dptr
   0697 E4                 1941 	clr	a
   0698 12s00r00           1942 	lcall	__gptrput
                           1943 ;	../../core/net/uip.c:450: conn->nrtx = 0;
   069B E5*00              1944 	mov	a,_bp
   069D 24 04              1945 	add	a,#0x04
   069F F8                 1946 	mov	r0,a
   06A0 74 1B              1947 	mov	a,#0x1B
   06A2 26                 1948 	add	a,@r0
   06A3 FD                 1949 	mov	r5,a
   06A4 E4                 1950 	clr	a
   06A5 08                 1951 	inc	r0
   06A6 36                 1952 	addc	a,@r0
   06A7 FE                 1953 	mov	r6,a
   06A8 08                 1954 	inc	r0
   06A9 86 07              1955 	mov	ar7,@r0
   06AB 8D 82              1956 	mov	dpl,r5
   06AD 8E 83              1957 	mov	dph,r6
   06AF 8F F0              1958 	mov	b,r7
   06B1 E4                 1959 	clr	a
   06B2 12s00r00           1960 	lcall	__gptrput
                           1961 ;	../../core/net/uip.c:451: conn->timer = 1; /* Send the SYN next time around. */
   06B5 E5*00              1962 	mov	a,_bp
   06B7 24 04              1963 	add	a,#0x04
   06B9 F8                 1964 	mov	r0,a
   06BA 74 1A              1965 	mov	a,#0x1A
   06BC 26                 1966 	add	a,@r0
   06BD FD                 1967 	mov	r5,a
   06BE E4                 1968 	clr	a
   06BF 08                 1969 	inc	r0
   06C0 36                 1970 	addc	a,@r0
   06C1 FE                 1971 	mov	r6,a
   06C2 08                 1972 	inc	r0
   06C3 86 07              1973 	mov	ar7,@r0
   06C5 8D 82              1974 	mov	dpl,r5
   06C7 8E 83              1975 	mov	dph,r6
   06C9 8F F0              1976 	mov	b,r7
   06CB 74 01              1977 	mov	a,#0x01
   06CD 12s00r00           1978 	lcall	__gptrput
                           1979 ;	../../core/net/uip.c:452: conn->rto = UIP_RTO;
   06D0 E5*00              1980 	mov	a,_bp
   06D2 24 04              1981 	add	a,#0x04
   06D4 F8                 1982 	mov	r0,a
   06D5 74 18              1983 	mov	a,#0x18
   06D7 26                 1984 	add	a,@r0
   06D8 FD                 1985 	mov	r5,a
   06D9 E4                 1986 	clr	a
   06DA 08                 1987 	inc	r0
   06DB 36                 1988 	addc	a,@r0
   06DC FE                 1989 	mov	r6,a
   06DD 08                 1990 	inc	r0
   06DE 86 07              1991 	mov	ar7,@r0
   06E0 8D 82              1992 	mov	dpl,r5
   06E2 8E 83              1993 	mov	dph,r6
   06E4 8F F0              1994 	mov	b,r7
   06E6 74 03              1995 	mov	a,#0x03
   06E8 12s00r00           1996 	lcall	__gptrput
                           1997 ;	../../core/net/uip.c:453: conn->sa = 0;
   06EB E5*00              1998 	mov	a,_bp
   06ED 24 04              1999 	add	a,#0x04
   06EF F8                 2000 	mov	r0,a
   06F0 74 16              2001 	mov	a,#0x16
   06F2 26                 2002 	add	a,@r0
   06F3 FD                 2003 	mov	r5,a
   06F4 E4                 2004 	clr	a
   06F5 08                 2005 	inc	r0
   06F6 36                 2006 	addc	a,@r0
   06F7 FE                 2007 	mov	r6,a
   06F8 08                 2008 	inc	r0
   06F9 86 07              2009 	mov	ar7,@r0
   06FB 8D 82              2010 	mov	dpl,r5
   06FD 8E 83              2011 	mov	dph,r6
   06FF 8F F0              2012 	mov	b,r7
   0701 E4                 2013 	clr	a
   0702 12s00r00           2014 	lcall	__gptrput
                           2015 ;	../../core/net/uip.c:454: conn->sv = 16;   /* Initial value of the RTT variance. */
   0705 E5*00              2016 	mov	a,_bp
   0707 24 04              2017 	add	a,#0x04
   0709 F8                 2018 	mov	r0,a
   070A 74 17              2019 	mov	a,#0x17
   070C 26                 2020 	add	a,@r0
   070D FD                 2021 	mov	r5,a
   070E E4                 2022 	clr	a
   070F 08                 2023 	inc	r0
   0710 36                 2024 	addc	a,@r0
   0711 FE                 2025 	mov	r6,a
   0712 08                 2026 	inc	r0
   0713 86 07              2027 	mov	ar7,@r0
   0715 8D 82              2028 	mov	dpl,r5
   0717 8E 83              2029 	mov	dph,r6
   0719 8F F0              2030 	mov	b,r7
   071B 74 10              2031 	mov	a,#0x10
   071D 12s00r00           2032 	lcall	__gptrput
                           2033 ;	../../core/net/uip.c:455: conn->lport = uip_htons(lastport);
   0720 E5*00              2034 	mov	a,_bp
   0722 24 04              2035 	add	a,#0x04
   0724 F8                 2036 	mov	r0,a
   0725 74 04              2037 	mov	a,#0x04
   0727 26                 2038 	add	a,@r0
   0728 FD                 2039 	mov	r5,a
   0729 E4                 2040 	clr	a
   072A 08                 2041 	inc	r0
   072B 36                 2042 	addc	a,@r0
   072C FE                 2043 	mov	r6,a
   072D 08                 2044 	inc	r0
   072E 86 07              2045 	mov	ar7,@r0
   0730 90s02rA1           2046 	mov	dptr,#_lastport
   0733 E0                 2047 	movx	a,@dptr
   0734 FB                 2048 	mov	r3,a
   0735 A3                 2049 	inc	dptr
   0736 E0                 2050 	movx	a,@dptr
   0737 FC                 2051 	mov	r4,a
   0738 8B 82              2052 	mov	dpl,r3
   073A 8C 83              2053 	mov	dph,r4
   073C C0 07              2054 	push	ar7
   073E C0 06              2055 	push	ar6
   0740 C0 05              2056 	push	ar5
   0742 12s31r0C           2057 	lcall	_uip_htons
   0745 AB 82              2058 	mov	r3,dpl
   0747 AC 83              2059 	mov	r4,dph
   0749 D0 05              2060 	pop	ar5
   074B D0 06              2061 	pop	ar6
   074D D0 07              2062 	pop	ar7
   074F 8D 82              2063 	mov	dpl,r5
   0751 8E 83              2064 	mov	dph,r6
   0753 8F F0              2065 	mov	b,r7
   0755 EB                 2066 	mov	a,r3
   0756 12s00r00           2067 	lcall	__gptrput
   0759 A3                 2068 	inc	dptr
   075A EC                 2069 	mov	a,r4
   075B 12s00r00           2070 	lcall	__gptrput
                           2071 ;	../../core/net/uip.c:456: conn->rport = rport;
   075E E5*00              2072 	mov	a,_bp
   0760 24 04              2073 	add	a,#0x04
   0762 F8                 2074 	mov	r0,a
   0763 74 06              2075 	mov	a,#0x06
   0765 26                 2076 	add	a,@r0
   0766 FD                 2077 	mov	r5,a
   0767 E4                 2078 	clr	a
   0768 08                 2079 	inc	r0
   0769 36                 2080 	addc	a,@r0
   076A FE                 2081 	mov	r6,a
   076B 08                 2082 	inc	r0
   076C 86 07              2083 	mov	ar7,@r0
   076E 8D 82              2084 	mov	dpl,r5
   0770 8E 83              2085 	mov	dph,r6
   0772 8F F0              2086 	mov	b,r7
   0774 E5*00              2087 	mov	a,_bp
   0776 24 FC              2088 	add	a,#0xfc
   0778 F8                 2089 	mov	r0,a
   0779 E6                 2090 	mov	a,@r0
   077A 12s00r00           2091 	lcall	__gptrput
   077D A3                 2092 	inc	dptr
   077E 08                 2093 	inc	r0
   077F E6                 2094 	mov	a,@r0
   0780 12s00r00           2095 	lcall	__gptrput
                           2096 ;	../../core/net/uip.c:457: uip_ipaddr_copy(&conn->ripaddr, ripaddr);
   0783 A8*00              2097 	mov	r0,_bp
   0785 08                 2098 	inc	r0
   0786 86 05              2099 	mov	ar5,@r0
   0788 08                 2100 	inc	r0
   0789 86 06              2101 	mov	ar6,@r0
   078B 08                 2102 	inc	r0
   078C 86 07              2103 	mov	ar7,@r0
   078E E5*00              2104 	mov	a,_bp
   0790 24 04              2105 	add	a,#0x04
   0792 F8                 2106 	mov	r0,a
   0793 86 02              2107 	mov	ar2,@r0
   0795 08                 2108 	inc	r0
   0796 86 03              2109 	mov	ar3,@r0
   0798 08                 2110 	inc	r0
   0799 86 04              2111 	mov	ar4,@r0
   079B 74 04              2112 	mov	a,#0x04
   079D C0 E0              2113 	push	acc
   079F E4                 2114 	clr	a
   07A0 C0 E0              2115 	push	acc
   07A2 C0 05              2116 	push	ar5
   07A4 C0 06              2117 	push	ar6
   07A6 C0 07              2118 	push	ar7
   07A8 8A 82              2119 	mov	dpl,r2
   07AA 8B 83              2120 	mov	dph,r3
   07AC 8C F0              2121 	mov	b,r4
   07AE 12s00r00           2122 	lcall	_memcpy
   07B1 E5 81              2123 	mov	a,sp
   07B3 24 FB              2124 	add	a,#0xfb
   07B5 F5 81              2125 	mov	sp,a
                           2126 ;	../../core/net/uip.c:459: return conn;
   07B7 E5*00              2127 	mov	a,_bp
   07B9 24 04              2128 	add	a,#0x04
   07BB F8                 2129 	mov	r0,a
   07BC 86 82              2130 	mov	dpl,@r0
   07BE 08                 2131 	inc	r0
   07BF 86 83              2132 	mov	dph,@r0
   07C1 08                 2133 	inc	r0
   07C2 86 F0              2134 	mov	b,@r0
   07C4                    2135 00124$:
   07C4 85*00 81           2136 	mov	sp,_bp
   07C7 D0*00              2137 	pop	_bp
   07C9 22                 2138 	ret
                           2139 ;------------------------------------------------------------
                           2140 ;Allocation info for local variables in function 'uip_udp_new'
                           2141 ;------------------------------------------------------------
                           2142 ;rport                     Allocated to stack - _bp -4
                           2143 ;ripaddr                   Allocated to stack - _bp +1
                           2144 ;conn                      Allocated to stack - _bp +4
                           2145 ;sloc0                     Allocated to stack - _bp +7
                           2146 ;------------------------------------------------------------
                           2147 ;	../../core/net/uip.c:465: uip_udp_new(const uip_ipaddr_t *ripaddr, uint16_t rport)
                           2148 ;	-----------------------------------------
                           2149 ;	 function uip_udp_new
                           2150 ;	-----------------------------------------
   07CA                    2151 _uip_udp_new:
   07CA C0*00              2152 	push	_bp
   07CC 85 81*00           2153 	mov	_bp,sp
   07CF C0 82              2154 	push	dpl
   07D1 C0 83              2155 	push	dph
   07D3 C0 F0              2156 	push	b
   07D5 E5 81              2157 	mov	a,sp
   07D7 24 06              2158 	add	a,#0x06
   07D9 F5 81              2159 	mov	sp,a
                           2160 ;	../../core/net/uip.c:470: again:
   07DB                    2161 00101$:
                           2162 ;	../../core/net/uip.c:471: ++lastport;
   07DB 90s02rA1           2163 	mov	dptr,#_lastport
   07DE E0                 2164 	movx	a,@dptr
   07DF 24 01              2165 	add	a,#0x01
   07E1 F0                 2166 	movx	@dptr,a
   07E2 A3                 2167 	inc	dptr
   07E3 E0                 2168 	movx	a,@dptr
   07E4 34 00              2169 	addc	a,#0x00
   07E6 F0                 2170 	movx	@dptr,a
                           2171 ;	../../core/net/uip.c:473: if(lastport >= 32000) {
   07E7 90s02rA1           2172 	mov	dptr,#_lastport
   07EA E0                 2173 	movx	a,@dptr
   07EB FB                 2174 	mov	r3,a
   07EC A3                 2175 	inc	dptr
   07ED E0                 2176 	movx	a,@dptr
   07EE FC                 2177 	mov	r4,a
   07EF C3                 2178 	clr	c
   07F0 94 7D              2179 	subb	a,#0x7D
   07F2 40 09              2180 	jc	00103$
                           2181 ;	../../core/net/uip.c:474: lastport = 4096;
   07F4 90s02rA1           2182 	mov	dptr,#_lastport
   07F7 E4                 2183 	clr	a
   07F8 F0                 2184 	movx	@dptr,a
   07F9 A3                 2185 	inc	dptr
   07FA 74 10              2186 	mov	a,#0x10
   07FC F0                 2187 	movx	@dptr,a
   07FD                    2188 00103$:
                           2189 ;	../../core/net/uip.c:477: for(c = 0; c < UIP_UDP_CONNS; ++c) {
   07FD 90s02rA7           2190 	mov	dptr,#_c
   0800 E4                 2191 	clr	a
   0801 F0                 2192 	movx	@dptr,a
   0802                    2193 00117$:
   0802 90s02rA7           2194 	mov	dptr,#_c
   0805 E0                 2195 	movx	a,@dptr
   0806 FC                 2196 	mov	r4,a
   0807 BC 0A 00           2197 	cjne	r4,#0x0A,00144$
   080A                    2198 00144$:
   080A 50 47              2199 	jnc	00120$
                           2200 ;	../../core/net/uip.c:478: if(uip_udp_conns[c].lport == uip_htons(lastport)) {
   080C EC                 2201 	mov	a,r4
   080D 75 F0 0F           2202 	mov	b,#0x0F
   0810 A4                 2203 	mul	ab
   0811 24r05              2204 	add	a,#_uip_udp_conns
   0813 FB                 2205 	mov	r3,a
   0814 E4                 2206 	clr	a
   0815 34s02              2207 	addc	a,#(_uip_udp_conns >> 8)
   0817 FC                 2208 	mov	r4,a
   0818 8B 82              2209 	mov	dpl,r3
   081A 8C 83              2210 	mov	dph,r4
   081C A3                 2211 	inc	dptr
   081D A3                 2212 	inc	dptr
   081E A3                 2213 	inc	dptr
   081F A3                 2214 	inc	dptr
   0820 E0                 2215 	movx	a,@dptr
   0821 FB                 2216 	mov	r3,a
   0822 A3                 2217 	inc	dptr
   0823 E0                 2218 	movx	a,@dptr
   0824 FC                 2219 	mov	r4,a
   0825 90s02rA1           2220 	mov	dptr,#_lastport
   0828 E0                 2221 	movx	a,@dptr
   0829 FA                 2222 	mov	r2,a
   082A A3                 2223 	inc	dptr
   082B E0                 2224 	movx	a,@dptr
   082C FF                 2225 	mov	r7,a
   082D 8A 82              2226 	mov	dpl,r2
   082F 8F 83              2227 	mov	dph,r7
   0831 C0 04              2228 	push	ar4
   0833 C0 03              2229 	push	ar3
   0835 12s31r0C           2230 	lcall	_uip_htons
   0838 AE 82              2231 	mov	r6,dpl
   083A AF 83              2232 	mov	r7,dph
   083C D0 03              2233 	pop	ar3
   083E D0 04              2234 	pop	ar4
   0840 EB                 2235 	mov	a,r3
   0841 B5 06 06           2236 	cjne	a,ar6,00146$
   0844 EC                 2237 	mov	a,r4
   0845 B5 07 02           2238 	cjne	a,ar7,00146$
   0848 80 91              2239 	sjmp	00101$
   084A                    2240 00146$:
                           2241 ;	../../core/net/uip.c:477: for(c = 0; c < UIP_UDP_CONNS; ++c) {
   084A 90s02rA7           2242 	mov	dptr,#_c
   084D E0                 2243 	movx	a,@dptr
   084E 24 01              2244 	add	a,#0x01
   0850 F0                 2245 	movx	@dptr,a
   0851 80 AF              2246 	sjmp	00117$
   0853                    2247 00120$:
                           2248 ;	../../core/net/uip.c:484: conn = 0;
   0853 E5*00              2249 	mov	a,_bp
   0855 24 04              2250 	add	a,#0x04
   0857 F8                 2251 	mov	r0,a
   0858 E4                 2252 	clr	a
   0859 F6                 2253 	mov	@r0,a
   085A 08                 2254 	inc	r0
   085B F6                 2255 	mov	@r0,a
   085C 08                 2256 	inc	r0
   085D 76 00              2257 	mov	@r0,#0x00
                           2258 ;	../../core/net/uip.c:485: for(c = 0; c < UIP_UDP_CONNS; ++c) {
   085F 90s02rA7           2259 	mov	dptr,#_c
   0862 E4                 2260 	clr	a
   0863 F0                 2261 	movx	@dptr,a
   0864                    2262 00108$:
   0864 90s02rA7           2263 	mov	dptr,#_c
   0867 E0                 2264 	movx	a,@dptr
   0868 FF                 2265 	mov	r7,a
   0869 BF 0A 00           2266 	cjne	r7,#0x0A,00147$
   086C                    2267 00147$:
   086C 50 33              2268 	jnc	00111$
                           2269 ;	../../core/net/uip.c:486: if(uip_udp_conns[c].lport == 0) {
   086E EF                 2270 	mov	a,r7
   086F 75 F0 0F           2271 	mov	b,#0x0F
   0872 A4                 2272 	mul	ab
   0873 24r05              2273 	add	a,#_uip_udp_conns
   0875 FD                 2274 	mov	r5,a
   0876 E4                 2275 	clr	a
   0877 34s02              2276 	addc	a,#(_uip_udp_conns >> 8)
   0879 FE                 2277 	mov	r6,a
   087A 8D 82              2278 	mov	dpl,r5
   087C 8E 83              2279 	mov	dph,r6
   087E A3                 2280 	inc	dptr
   087F A3                 2281 	inc	dptr
   0880 A3                 2282 	inc	dptr
   0881 A3                 2283 	inc	dptr
   0882 E0                 2284 	movx	a,@dptr
   0883 FB                 2285 	mov	r3,a
   0884 A3                 2286 	inc	dptr
   0885 E0                 2287 	movx	a,@dptr
   0886 FC                 2288 	mov	r4,a
   0887 4B                 2289 	orl	a,r3
   0888 70 0F              2290 	jnz	00110$
                           2291 ;	../../core/net/uip.c:487: conn = &uip_udp_conns[c];
   088A E5*00              2292 	mov	a,_bp
   088C 24 04              2293 	add	a,#0x04
   088E F8                 2294 	mov	r0,a
   088F A6 05              2295 	mov	@r0,ar5
   0891 08                 2296 	inc	r0
   0892 A6 06              2297 	mov	@r0,ar6
   0894 08                 2298 	inc	r0
   0895 76 00              2299 	mov	@r0,#0x00
                           2300 ;	../../core/net/uip.c:488: break;
   0897 80 08              2301 	sjmp	00111$
   0899                    2302 00110$:
                           2303 ;	../../core/net/uip.c:485: for(c = 0; c < UIP_UDP_CONNS; ++c) {
   0899 90s02rA7           2304 	mov	dptr,#_c
   089C EF                 2305 	mov	a,r7
   089D 04                 2306 	inc	a
   089E F0                 2307 	movx	@dptr,a
   089F 80 C3              2308 	sjmp	00108$
   08A1                    2309 00111$:
                           2310 ;	../../core/net/uip.c:492: if(conn == 0) {
   08A1 E5*00              2311 	mov	a,_bp
   08A3 24 04              2312 	add	a,#0x04
   08A5 F8                 2313 	mov	r0,a
   08A6 E6                 2314 	mov	a,@r0
   08A7 08                 2315 	inc	r0
   08A8 46                 2316 	orl	a,@r0
                           2317 ;	../../core/net/uip.c:493: return 0;
   08A9 70 08              2318 	jnz	00113$
   08AB 90 00 00           2319 	mov	dptr,#0x0000
   08AE F5 F0              2320 	mov	b,a
   08B0 02s09rA7           2321 	ljmp	00121$
   08B3                    2322 00113$:
                           2323 ;	../../core/net/uip.c:496: conn->lport = UIP_HTONS(lastport);
   08B3 E5*00              2324 	mov	a,_bp
   08B5 24 04              2325 	add	a,#0x04
   08B7 F8                 2326 	mov	r0,a
   08B8 E5*00              2327 	mov	a,_bp
   08BA 24 07              2328 	add	a,#0x07
   08BC F9                 2329 	mov	r1,a
   08BD 74 04              2330 	mov	a,#0x04
   08BF 26                 2331 	add	a,@r0
   08C0 F7                 2332 	mov	@r1,a
   08C1 E4                 2333 	clr	a
   08C2 08                 2334 	inc	r0
   08C3 36                 2335 	addc	a,@r0
   08C4 09                 2336 	inc	r1
   08C5 F7                 2337 	mov	@r1,a
   08C6 08                 2338 	inc	r0
   08C7 09                 2339 	inc	r1
   08C8 E6                 2340 	mov	a,@r0
   08C9 F7                 2341 	mov	@r1,a
   08CA 90s02rA1           2342 	mov	dptr,#_lastport
   08CD E0                 2343 	movx	a,@dptr
   08CE FB                 2344 	mov	r3,a
   08CF A3                 2345 	inc	dptr
   08D0 E0                 2346 	movx	a,@dptr
   08D1 FC                 2347 	mov	r4,a
   08D2 8B 07              2348 	mov	ar7,r3
   08D4 7A 00              2349 	mov	r2,#0x00
   08D6 8C 03              2350 	mov	ar3,r4
   08D8 7C 00              2351 	mov	r4,#0x00
   08DA EB                 2352 	mov	a,r3
   08DB 42 02              2353 	orl	ar2,a
   08DD EC                 2354 	mov	a,r4
   08DE 42 07              2355 	orl	ar7,a
   08E0 E5*00              2356 	mov	a,_bp
   08E2 24 07              2357 	add	a,#0x07
   08E4 F8                 2358 	mov	r0,a
   08E5 86 82              2359 	mov	dpl,@r0
   08E7 08                 2360 	inc	r0
   08E8 86 83              2361 	mov	dph,@r0
   08EA 08                 2362 	inc	r0
   08EB 86 F0              2363 	mov	b,@r0
   08ED EA                 2364 	mov	a,r2
   08EE 12s00r00           2365 	lcall	__gptrput
   08F1 A3                 2366 	inc	dptr
   08F2 EF                 2367 	mov	a,r7
   08F3 12s00r00           2368 	lcall	__gptrput
                           2369 ;	../../core/net/uip.c:497: conn->rport = rport;
   08F6 E5*00              2370 	mov	a,_bp
   08F8 24 04              2371 	add	a,#0x04
   08FA F8                 2372 	mov	r0,a
   08FB 74 06              2373 	mov	a,#0x06
   08FD 26                 2374 	add	a,@r0
   08FE FD                 2375 	mov	r5,a
   08FF E4                 2376 	clr	a
   0900 08                 2377 	inc	r0
   0901 36                 2378 	addc	a,@r0
   0902 FE                 2379 	mov	r6,a
   0903 08                 2380 	inc	r0
   0904 86 07              2381 	mov	ar7,@r0
   0906 8D 82              2382 	mov	dpl,r5
   0908 8E 83              2383 	mov	dph,r6
   090A 8F F0              2384 	mov	b,r7
   090C E5*00              2385 	mov	a,_bp
   090E 24 FC              2386 	add	a,#0xfc
   0910 F8                 2387 	mov	r0,a
   0911 E6                 2388 	mov	a,@r0
   0912 12s00r00           2389 	lcall	__gptrput
   0915 A3                 2390 	inc	dptr
   0916 08                 2391 	inc	r0
   0917 E6                 2392 	mov	a,@r0
   0918 12s00r00           2393 	lcall	__gptrput
                           2394 ;	../../core/net/uip.c:498: if(ripaddr == NULL) {
   091B A8*00              2395 	mov	r0,_bp
   091D 08                 2396 	inc	r0
   091E E6                 2397 	mov	a,@r0
   091F 08                 2398 	inc	r0
   0920 46                 2399 	orl	a,@r0
   0921 70 28              2400 	jnz	00115$
                           2401 ;	../../core/net/uip.c:499: memset(&conn->ripaddr, 0, sizeof(uip_ipaddr_t));
   0923 E5*00              2402 	mov	a,_bp
   0925 24 04              2403 	add	a,#0x04
   0927 F8                 2404 	mov	r0,a
   0928 86 05              2405 	mov	ar5,@r0
   092A 08                 2406 	inc	r0
   092B 86 06              2407 	mov	ar6,@r0
   092D 08                 2408 	inc	r0
   092E 86 07              2409 	mov	ar7,@r0
   0930 74 04              2410 	mov	a,#0x04
   0932 C0 E0              2411 	push	acc
   0934 E4                 2412 	clr	a
   0935 C0 E0              2413 	push	acc
   0937 E4                 2414 	clr	a
   0938 C0 E0              2415 	push	acc
   093A 8D 82              2416 	mov	dpl,r5
   093C 8E 83              2417 	mov	dph,r6
   093E 8F F0              2418 	mov	b,r7
   0940 12s00r00           2419 	lcall	_memset
   0943 15 81              2420 	dec	sp
   0945 15 81              2421 	dec	sp
   0947 15 81              2422 	dec	sp
   0949 80 34              2423 	sjmp	00116$
   094B                    2424 00115$:
                           2425 ;	../../core/net/uip.c:501: uip_ipaddr_copy(&conn->ripaddr, ripaddr);
   094B A8*00              2426 	mov	r0,_bp
   094D 08                 2427 	inc	r0
   094E 86 05              2428 	mov	ar5,@r0
   0950 08                 2429 	inc	r0
   0951 86 06              2430 	mov	ar6,@r0
   0953 08                 2431 	inc	r0
   0954 86 07              2432 	mov	ar7,@r0
   0956 E5*00              2433 	mov	a,_bp
   0958 24 04              2434 	add	a,#0x04
   095A F8                 2435 	mov	r0,a
   095B 86 02              2436 	mov	ar2,@r0
   095D 08                 2437 	inc	r0
   095E 86 03              2438 	mov	ar3,@r0
   0960 08                 2439 	inc	r0
   0961 86 04              2440 	mov	ar4,@r0
   0963 74 04              2441 	mov	a,#0x04
   0965 C0 E0              2442 	push	acc
   0967 E4                 2443 	clr	a
   0968 C0 E0              2444 	push	acc
   096A C0 05              2445 	push	ar5
   096C C0 06              2446 	push	ar6
   096E C0 07              2447 	push	ar7
   0970 8A 82              2448 	mov	dpl,r2
   0972 8B 83              2449 	mov	dph,r3
   0974 8C F0              2450 	mov	b,r4
   0976 12s00r00           2451 	lcall	_memcpy
   0979 E5 81              2452 	mov	a,sp
   097B 24 FB              2453 	add	a,#0xfb
   097D F5 81              2454 	mov	sp,a
   097F                    2455 00116$:
                           2456 ;	../../core/net/uip.c:503: conn->ttl = UIP_TTL;
   097F E5*00              2457 	mov	a,_bp
   0981 24 04              2458 	add	a,#0x04
   0983 F8                 2459 	mov	r0,a
   0984 74 08              2460 	mov	a,#0x08
   0986 26                 2461 	add	a,@r0
   0987 FD                 2462 	mov	r5,a
   0988 E4                 2463 	clr	a
   0989 08                 2464 	inc	r0
   098A 36                 2465 	addc	a,@r0
   098B FE                 2466 	mov	r6,a
   098C 08                 2467 	inc	r0
   098D 86 07              2468 	mov	ar7,@r0
   098F 8D 82              2469 	mov	dpl,r5
   0991 8E 83              2470 	mov	dph,r6
   0993 8F F0              2471 	mov	b,r7
   0995 74 40              2472 	mov	a,#0x40
   0997 12s00r00           2473 	lcall	__gptrput
                           2474 ;	../../core/net/uip.c:505: return conn;
   099A E5*00              2475 	mov	a,_bp
   099C 24 04              2476 	add	a,#0x04
   099E F8                 2477 	mov	r0,a
   099F 86 82              2478 	mov	dpl,@r0
   09A1 08                 2479 	inc	r0
   09A2 86 83              2480 	mov	dph,@r0
   09A4 08                 2481 	inc	r0
   09A5 86 F0              2482 	mov	b,@r0
   09A7                    2483 00121$:
   09A7 85*00 81           2484 	mov	sp,_bp
   09AA D0*00              2485 	pop	_bp
   09AC 22                 2486 	ret
                           2487 ;------------------------------------------------------------
                           2488 ;Allocation info for local variables in function 'uip_unlisten'
                           2489 ;------------------------------------------------------------
                           2490 ;port                      Allocated to registers r6 r7 
                           2491 ;------------------------------------------------------------
                           2492 ;	../../core/net/uip.c:510: uip_unlisten(uint16_t port)
                           2493 ;	-----------------------------------------
                           2494 ;	 function uip_unlisten
                           2495 ;	-----------------------------------------
   09AD                    2496 _uip_unlisten:
   09AD AE 82              2497 	mov	r6,dpl
   09AF AF 83              2498 	mov	r7,dph
                           2499 ;	../../core/net/uip.c:512: for(c = 0; c < UIP_LISTENPORTS; ++c) {
   09B1 90s02rA7           2500 	mov	dptr,#_c
   09B4 E4                 2501 	clr	a
   09B5 F0                 2502 	movx	@dptr,a
   09B6                    2503 00103$:
   09B6 90s02rA7           2504 	mov	dptr,#_c
   09B9 E0                 2505 	movx	a,@dptr
   09BA FD                 2506 	mov	r5,a
   09BB BD 14 00           2507 	cjne	r5,#0x14,00115$
   09BE                    2508 00115$:
   09BE 50 2B              2509 	jnc	00107$
                           2510 ;	../../core/net/uip.c:513: if(uip_listenports[c] == port) {
   09C0 ED                 2511 	mov	a,r5
   09C1 2D                 2512 	add	a,r5
   09C2 24rDA              2513 	add	a,#_uip_listenports
   09C4 FB                 2514 	mov	r3,a
   09C5 E4                 2515 	clr	a
   09C6 34s01              2516 	addc	a,#(_uip_listenports >> 8)
   09C8 FC                 2517 	mov	r4,a
   09C9 8B 82              2518 	mov	dpl,r3
   09CB 8C 83              2519 	mov	dph,r4
   09CD E0                 2520 	movx	a,@dptr
   09CE F9                 2521 	mov	r1,a
   09CF A3                 2522 	inc	dptr
   09D0 E0                 2523 	movx	a,@dptr
   09D1 FA                 2524 	mov	r2,a
   09D2 E9                 2525 	mov	a,r1
   09D3 B5 06 0D           2526 	cjne	a,ar6,00105$
   09D6 EA                 2527 	mov	a,r2
   09D7 B5 07 09           2528 	cjne	a,ar7,00105$
                           2529 ;	../../core/net/uip.c:514: uip_listenports[c] = 0;
   09DA 8B 82              2530 	mov	dpl,r3
   09DC 8C 83              2531 	mov	dph,r4
   09DE E4                 2532 	clr	a
   09DF F0                 2533 	movx	@dptr,a
   09E0 A3                 2534 	inc	dptr
   09E1 F0                 2535 	movx	@dptr,a
                           2536 ;	../../core/net/uip.c:515: return;
   09E2 22                 2537 	ret
   09E3                    2538 00105$:
                           2539 ;	../../core/net/uip.c:512: for(c = 0; c < UIP_LISTENPORTS; ++c) {
   09E3 90s02rA7           2540 	mov	dptr,#_c
   09E6 ED                 2541 	mov	a,r5
   09E7 04                 2542 	inc	a
   09E8 F0                 2543 	movx	@dptr,a
   09E9 80 CB              2544 	sjmp	00103$
   09EB                    2545 00107$:
   09EB 22                 2546 	ret
                           2547 ;------------------------------------------------------------
                           2548 ;Allocation info for local variables in function 'uip_listen'
                           2549 ;------------------------------------------------------------
                           2550 ;port                      Allocated to registers r6 r7 
                           2551 ;------------------------------------------------------------
                           2552 ;	../../core/net/uip.c:521: uip_listen(uint16_t port)
                           2553 ;	-----------------------------------------
                           2554 ;	 function uip_listen
                           2555 ;	-----------------------------------------
   09EC                    2556 _uip_listen:
   09EC AE 82              2557 	mov	r6,dpl
   09EE AF 83              2558 	mov	r7,dph
                           2559 ;	../../core/net/uip.c:523: for(c = 0; c < UIP_LISTENPORTS; ++c) {
   09F0 90s02rA7           2560 	mov	dptr,#_c
   09F3 E4                 2561 	clr	a
   09F4 F0                 2562 	movx	@dptr,a
   09F5                    2563 00103$:
   09F5 90s02rA7           2564 	mov	dptr,#_c
   09F8 E0                 2565 	movx	a,@dptr
   09F9 FD                 2566 	mov	r5,a
   09FA BD 14 00           2567 	cjne	r5,#0x14,00115$
   09FD                    2568 00115$:
   09FD 50 27              2569 	jnc	00107$
                           2570 ;	../../core/net/uip.c:524: if(uip_listenports[c] == 0) {
   09FF ED                 2571 	mov	a,r5
   0A00 2D                 2572 	add	a,r5
   0A01 24rDA              2573 	add	a,#_uip_listenports
   0A03 FB                 2574 	mov	r3,a
   0A04 E4                 2575 	clr	a
   0A05 34s01              2576 	addc	a,#(_uip_listenports >> 8)
   0A07 FC                 2577 	mov	r4,a
   0A08 8B 82              2578 	mov	dpl,r3
   0A0A 8C 83              2579 	mov	dph,r4
   0A0C E0                 2580 	movx	a,@dptr
   0A0D F9                 2581 	mov	r1,a
   0A0E A3                 2582 	inc	dptr
   0A0F E0                 2583 	movx	a,@dptr
   0A10 FA                 2584 	mov	r2,a
   0A11 49                 2585 	orl	a,r1
   0A12 70 0A              2586 	jnz	00105$
                           2587 ;	../../core/net/uip.c:525: uip_listenports[c] = port;
   0A14 8B 82              2588 	mov	dpl,r3
   0A16 8C 83              2589 	mov	dph,r4
   0A18 EE                 2590 	mov	a,r6
   0A19 F0                 2591 	movx	@dptr,a
   0A1A A3                 2592 	inc	dptr
   0A1B EF                 2593 	mov	a,r7
   0A1C F0                 2594 	movx	@dptr,a
                           2595 ;	../../core/net/uip.c:526: return;
   0A1D 22                 2596 	ret
   0A1E                    2597 00105$:
                           2598 ;	../../core/net/uip.c:523: for(c = 0; c < UIP_LISTENPORTS; ++c) {
   0A1E 90s02rA7           2599 	mov	dptr,#_c
   0A21 ED                 2600 	mov	a,r5
   0A22 04                 2601 	inc	a
   0A23 F0                 2602 	movx	@dptr,a
   0A24 80 CF              2603 	sjmp	00103$
   0A26                    2604 00107$:
   0A26 22                 2605 	ret
                           2606 ;------------------------------------------------------------
                           2607 ;Allocation info for local variables in function 'uip_add_rcv_nxt'
                           2608 ;------------------------------------------------------------
                           2609 ;n                         Allocated to registers r6 r7 
                           2610 ;------------------------------------------------------------
                           2611 ;	../../core/net/uip.c:664: uip_add_rcv_nxt(uint16_t n)
                           2612 ;	-----------------------------------------
                           2613 ;	 function uip_add_rcv_nxt
                           2614 ;	-----------------------------------------
   0A27                    2615 _uip_add_rcv_nxt:
   0A27 AE 82              2616 	mov	r6,dpl
   0A29 AF 83              2617 	mov	r7,dph
                           2618 ;	../../core/net/uip.c:666: uip_add32(uip_conn->rcv_nxt, n);
   0A2B 90s00r83           2619 	mov	dptr,#_uip_conn
   0A2E E0                 2620 	movx	a,@dptr
   0A2F FB                 2621 	mov	r3,a
   0A30 A3                 2622 	inc	dptr
   0A31 E0                 2623 	movx	a,@dptr
   0A32 FC                 2624 	mov	r4,a
   0A33 A3                 2625 	inc	dptr
   0A34 E0                 2626 	movx	a,@dptr
   0A35 FD                 2627 	mov	r5,a
   0A36 74 08              2628 	mov	a,#0x08
   0A38 2B                 2629 	add	a,r3
   0A39 FB                 2630 	mov	r3,a
   0A3A E4                 2631 	clr	a
   0A3B 3C                 2632 	addc	a,r4
   0A3C FC                 2633 	mov	r4,a
   0A3D C0 06              2634 	push	ar6
   0A3F C0 07              2635 	push	ar7
   0A41 8B 82              2636 	mov	dpl,r3
   0A43 8C 83              2637 	mov	dph,r4
   0A45 8D F0              2638 	mov	b,r5
   0A47 12s00r0C           2639 	lcall	_uip_add32
   0A4A 15 81              2640 	dec	sp
   0A4C 15 81              2641 	dec	sp
                           2642 ;	../../core/net/uip.c:667: uip_conn->rcv_nxt[0] = uip_acc32[0];
   0A4E 90s00r83           2643 	mov	dptr,#_uip_conn
   0A51 E0                 2644 	movx	a,@dptr
   0A52 FD                 2645 	mov	r5,a
   0A53 A3                 2646 	inc	dptr
   0A54 E0                 2647 	movx	a,@dptr
   0A55 FE                 2648 	mov	r6,a
   0A56 A3                 2649 	inc	dptr
   0A57 E0                 2650 	movx	a,@dptr
   0A58 FF                 2651 	mov	r7,a
   0A59 74 08              2652 	mov	a,#0x08
   0A5B 2D                 2653 	add	a,r5
   0A5C FA                 2654 	mov	r2,a
   0A5D E4                 2655 	clr	a
   0A5E 3E                 2656 	addc	a,r6
   0A5F FB                 2657 	mov	r3,a
   0A60 8F 04              2658 	mov	ar4,r7
   0A62 90s02rA3           2659 	mov	dptr,#_uip_acc32
   0A65 E0                 2660 	movx	a,@dptr
   0A66 8A 82              2661 	mov	dpl,r2
   0A68 8B 83              2662 	mov	dph,r3
   0A6A 8C F0              2663 	mov	b,r4
   0A6C 12s00r00           2664 	lcall	__gptrput
                           2665 ;	../../core/net/uip.c:668: uip_conn->rcv_nxt[1] = uip_acc32[1];
   0A6F 74 09              2666 	mov	a,#0x09
   0A71 2D                 2667 	add	a,r5
   0A72 FA                 2668 	mov	r2,a
   0A73 E4                 2669 	clr	a
   0A74 3E                 2670 	addc	a,r6
   0A75 FB                 2671 	mov	r3,a
   0A76 8F 04              2672 	mov	ar4,r7
   0A78 90s02rA4           2673 	mov	dptr,#(_uip_acc32 + 0x0001)
   0A7B E0                 2674 	movx	a,@dptr
   0A7C 8A 82              2675 	mov	dpl,r2
   0A7E 8B 83              2676 	mov	dph,r3
   0A80 8C F0              2677 	mov	b,r4
   0A82 12s00r00           2678 	lcall	__gptrput
                           2679 ;	../../core/net/uip.c:669: uip_conn->rcv_nxt[2] = uip_acc32[2];
   0A85 74 0A              2680 	mov	a,#0x0A
   0A87 2D                 2681 	add	a,r5
   0A88 FA                 2682 	mov	r2,a
   0A89 E4                 2683 	clr	a
   0A8A 3E                 2684 	addc	a,r6
   0A8B FB                 2685 	mov	r3,a
   0A8C 8F 04              2686 	mov	ar4,r7
   0A8E 90s02rA5           2687 	mov	dptr,#(_uip_acc32 + 0x0002)
   0A91 E0                 2688 	movx	a,@dptr
   0A92 8A 82              2689 	mov	dpl,r2
   0A94 8B 83              2690 	mov	dph,r3
   0A96 8C F0              2691 	mov	b,r4
   0A98 12s00r00           2692 	lcall	__gptrput
                           2693 ;	../../core/net/uip.c:670: uip_conn->rcv_nxt[3] = uip_acc32[3];
   0A9B 74 0B              2694 	mov	a,#0x0B
   0A9D 2D                 2695 	add	a,r5
   0A9E FD                 2696 	mov	r5,a
   0A9F E4                 2697 	clr	a
   0AA0 3E                 2698 	addc	a,r6
   0AA1 FE                 2699 	mov	r6,a
   0AA2 90s02rA6           2700 	mov	dptr,#(_uip_acc32 + 0x0003)
   0AA5 E0                 2701 	movx	a,@dptr
   0AA6 8D 82              2702 	mov	dpl,r5
   0AA8 8E 83              2703 	mov	dph,r6
   0AAA 8F F0              2704 	mov	b,r7
   0AAC 02s00r00           2705 	ljmp	__gptrput
                           2706 ;------------------------------------------------------------
                           2707 ;Allocation info for local variables in function 'uip_process'
                           2708 ;------------------------------------------------------------
                           2709 ;flag                      Allocated to registers r7 
                           2710 ;uip_connr                 Allocated to stack - _bp +1
                           2711 ;m                         Allocated to stack - _bp +4
                           2712 ;sloc0                     Allocated to stack - _bp +5
                           2713 ;sloc1                     Allocated to stack - _bp +8
                           2714 ;sloc2                     Allocated to stack - _bp +11
                           2715 ;sloc3                     Allocated to stack - _bp +14
                           2716 ;------------------------------------------------------------
                           2717 ;	../../core/net/uip.c:674: uip_process(uint8_t flag)
                           2718 ;	-----------------------------------------
                           2719 ;	 function uip_process
                           2720 ;	-----------------------------------------
   0AAF                    2721 _uip_process:
   0AAF C0*00              2722 	push	_bp
   0AB1 E5 81              2723 	mov	a,sp
   0AB3 F5*00              2724 	mov	_bp,a
   0AB5 24 0F              2725 	add	a,#0x0F
   0AB7 F5 81              2726 	mov	sp,a
   0AB9 AF 82              2727 	mov	r7,dpl
                           2728 ;	../../core/net/uip.c:676: register struct uip_conn *uip_connr = uip_conn;
   0ABB 90s00r83           2729 	mov	dptr,#_uip_conn
   0ABE E0                 2730 	movx	a,@dptr
   0ABF FC                 2731 	mov	r4,a
   0AC0 A3                 2732 	inc	dptr
   0AC1 E0                 2733 	movx	a,@dptr
   0AC2 FD                 2734 	mov	r5,a
   0AC3 A3                 2735 	inc	dptr
   0AC4 E0                 2736 	movx	a,@dptr
   0AC5 FE                 2737 	mov	r6,a
   0AC6 A8*00              2738 	mov	r0,_bp
   0AC8 08                 2739 	inc	r0
   0AC9 A6 04              2740 	mov	@r0,ar4
   0ACB 08                 2741 	inc	r0
   0ACC A6 05              2742 	mov	@r0,ar5
   0ACE 08                 2743 	inc	r0
   0ACF A6 06              2744 	mov	@r0,ar6
                           2745 ;	../../core/net/uip.c:679: if(flag == UIP_UDP_SEND_CONN) {
   0AD1 BF 04 03           2746 	cjne	r7,#0x04,00680$
   0AD4 02s13r16           2747 	ljmp	00195$
   0AD7                    2748 00680$:
                           2749 ;	../../core/net/uip.c:684: uip_sappdata = uip_appdata = &uip_buf[UIP_IPTCPH_LEN + UIP_LLH_LEN];
   0AD7 90s00r78           2750 	mov	dptr,#_uip_appdata
   0ADA 74r42              2751 	mov	a,#(_uip_aligned_buf + 0x0036)
   0ADC F0                 2752 	movx	@dptr,a
   0ADD A3                 2753 	inc	dptr
   0ADE 74s00              2754 	mov	a,#((_uip_aligned_buf + 0x0036) >> 8)
   0AE0 F0                 2755 	movx	@dptr,a
   0AE1 A3                 2756 	inc	dptr
   0AE2 E4                 2757 	clr	a
   0AE3 F0                 2758 	movx	@dptr,a
   0AE4 90s00r7B           2759 	mov	dptr,#_uip_sappdata
   0AE7 74r42              2760 	mov	a,#(_uip_aligned_buf + 0x0036)
   0AE9 F0                 2761 	movx	@dptr,a
   0AEA A3                 2762 	inc	dptr
   0AEB 74s00              2763 	mov	a,#((_uip_aligned_buf + 0x0036) >> 8)
   0AED F0                 2764 	movx	@dptr,a
   0AEE A3                 2765 	inc	dptr
   0AEF E4                 2766 	clr	a
   0AF0 F0                 2767 	movx	@dptr,a
                           2768 ;	../../core/net/uip.c:688: if(flag == UIP_POLL_REQUEST) {
   0AF1 BF 03 68           2769 	cjne	r7,#0x03,00145$
                           2770 ;	../../core/net/uip.c:689: if((uip_connr->tcpstateflags & UIP_TS_MASK) == UIP_ESTABLISHED &&
   0AF4 A8*00              2771 	mov	r0,_bp
   0AF6 08                 2772 	inc	r0
   0AF7 74 19              2773 	mov	a,#0x19
   0AF9 26                 2774 	add	a,@r0
   0AFA FA                 2775 	mov	r2,a
   0AFB E4                 2776 	clr	a
   0AFC 08                 2777 	inc	r0
   0AFD 36                 2778 	addc	a,@r0
   0AFE FB                 2779 	mov	r3,a
   0AFF 08                 2780 	inc	r0
   0B00 86 06              2781 	mov	ar6,@r0
   0B02 8A 82              2782 	mov	dpl,r2
   0B04 8B 83              2783 	mov	dph,r3
   0B06 8E F0              2784 	mov	b,r6
   0B08 12s00r00           2785 	lcall	__gptrget
   0B0B FE                 2786 	mov	r6,a
   0B0C 74 0F              2787 	mov	a,#0x0F
   0B0E 5E                 2788 	anl	a,r6
   0B0F FD                 2789 	mov	r5,a
   0B10 BD 03 2C           2790 	cjne	r5,#0x03,00106$
                           2791 ;	../../core/net/uip.c:690: !uip_outstanding(uip_connr)) {
   0B13 A8*00              2792 	mov	r0,_bp
   0B15 08                 2793 	inc	r0
   0B16 74 10              2794 	mov	a,#0x10
   0B18 26                 2795 	add	a,@r0
   0B19 FB                 2796 	mov	r3,a
   0B1A E4                 2797 	clr	a
   0B1B 08                 2798 	inc	r0
   0B1C 36                 2799 	addc	a,@r0
   0B1D FC                 2800 	mov	r4,a
   0B1E 08                 2801 	inc	r0
   0B1F 86 05              2802 	mov	ar5,@r0
   0B21 8B 82              2803 	mov	dpl,r3
   0B23 8C 83              2804 	mov	dph,r4
   0B25 8D F0              2805 	mov	b,r5
   0B27 12s00r00           2806 	lcall	__gptrget
   0B2A FB                 2807 	mov	r3,a
   0B2B A3                 2808 	inc	dptr
   0B2C 12s00r00           2809 	lcall	__gptrget
   0B2F FC                 2810 	mov	r4,a
   0B30 4B                 2811 	orl	a,r3
   0B31 70 0C              2812 	jnz	00106$
                           2813 ;	../../core/net/uip.c:691: uip_flags = UIP_POLL;
   0B33 90s00r82           2814 	mov	dptr,#_uip_flags
   0B36 74 08              2815 	mov	a,#0x08
   0B38 F0                 2816 	movx	@dptr,a
                           2817 ;	../../core/net/uip.c:692: UIP_APPCALL();
   0B39 12s00r00           2818 	lcall	_tcpip_uipcall
                           2819 ;	../../core/net/uip.c:693: goto appsend;
   0B3C 02s29r89           2820 	ljmp	00328$
   0B3F                    2821 00106$:
                           2822 ;	../../core/net/uip.c:695: } else if((uip_connr->tcpstateflags & UIP_TS_MASK) == UIP_SYN_SENT) {
   0B3F 53 06 0F           2823 	anl	ar6,#0x0F
   0B42 BE 02 02           2824 	cjne	r6,#0x02,00686$
   0B45 80 03              2825 	sjmp	00687$
   0B47                    2826 00686$:
   0B47 02s30rFB           2827 	ljmp	00387$
   0B4A                    2828 00687$:
                           2829 ;	../../core/net/uip.c:697: BUF->flags = 0;
   0B4A 7Dr1A              2830 	mov	r5,#(_uip_aligned_buf + 0x000e)
   0B4C 7Es00              2831 	mov	r6,#((_uip_aligned_buf + 0x000e) >> 8)
   0B4E 74 21              2832 	mov	a,#0x21
   0B50 2D                 2833 	add	a,r5
   0B51 F5 82              2834 	mov	dpl,a
   0B53 E4                 2835 	clr	a
   0B54 3E                 2836 	addc	a,r6
   0B55 F5 83              2837 	mov	dph,a
   0B57 E4                 2838 	clr	a
   0B58 F0                 2839 	movx	@dptr,a
                           2840 ;	../../core/net/uip.c:698: goto tcp_send_syn;
   0B59 02s1Er3D           2841 	ljmp	00255$
                           2842 ;	../../core/net/uip.c:701: goto drop;
   0B5C                    2843 00145$:
                           2844 ;	../../core/net/uip.c:704: } else if(flag == UIP_TIMER) {
   0B5C BF 02 02           2845 	cjne	r7,#0x02,00688$
   0B5F 80 03              2846 	sjmp	00689$
   0B61                    2847 00688$:
   0B61 02s0Dr93           2848 	ljmp	00146$
   0B64                    2849 00689$:
                           2850 ;	../../core/net/uip.c:711: if(++iss[3] == 0) {
   0B64 90s02rA0           2851 	mov	dptr,#(_iss + 0x0003)
   0B67 E0                 2852 	movx	a,@dptr
   0B68 FE                 2853 	mov	r6,a
   0B69 0E                 2854 	inc	r6
   0B6A 90s02rA0           2855 	mov	dptr,#(_iss + 0x0003)
   0B6D EE                 2856 	mov	a,r6
   0B6E F0                 2857 	movx	@dptr,a
   0B6F EE                 2858 	mov	a,r6
   0B70 70 27              2859 	jnz	00114$
                           2860 ;	../../core/net/uip.c:712: if(++iss[2] == 0) {
   0B72 90s02r9F           2861 	mov	dptr,#(_iss + 0x0002)
   0B75 E0                 2862 	movx	a,@dptr
   0B76 FE                 2863 	mov	r6,a
   0B77 0E                 2864 	inc	r6
   0B78 90s02r9F           2865 	mov	dptr,#(_iss + 0x0002)
   0B7B EE                 2866 	mov	a,r6
   0B7C F0                 2867 	movx	@dptr,a
   0B7D EE                 2868 	mov	a,r6
   0B7E 70 19              2869 	jnz	00114$
                           2870 ;	../../core/net/uip.c:713: if(++iss[1] == 0) {
   0B80 90s02r9E           2871 	mov	dptr,#(_iss + 0x0001)
   0B83 E0                 2872 	movx	a,@dptr
   0B84 FE                 2873 	mov	r6,a
   0B85 0E                 2874 	inc	r6
   0B86 90s02r9E           2875 	mov	dptr,#(_iss + 0x0001)
   0B89 EE                 2876 	mov	a,r6
   0B8A F0                 2877 	movx	@dptr,a
   0B8B EE                 2878 	mov	a,r6
   0B8C 70 0B              2879 	jnz	00114$
                           2880 ;	../../core/net/uip.c:714: ++iss[0];
   0B8E 90s02r9D           2881 	mov	dptr,#_iss
   0B91 E0                 2882 	movx	a,@dptr
   0B92 FE                 2883 	mov	r6,a
   0B93 0E                 2884 	inc	r6
   0B94 90s02r9D           2885 	mov	dptr,#_iss
   0B97 EE                 2886 	mov	a,r6
   0B98 F0                 2887 	movx	@dptr,a
   0B99                    2888 00114$:
                           2889 ;	../../core/net/uip.c:720: uip_len = 0;
   0B99 90s00r7E           2890 	mov	dptr,#_uip_len
                           2891 ;	../../core/net/uip.c:721: uip_slen = 0;
   0B9C E4                 2892 	clr	a
   0B9D F0                 2893 	movx	@dptr,a
   0B9E A3                 2894 	inc	dptr
   0B9F F0                 2895 	movx	@dptr,a
   0BA0 90s00r80           2896 	mov	dptr,#_uip_slen
   0BA3 F0                 2897 	movx	@dptr,a
   0BA4 A3                 2898 	inc	dptr
   0BA5 E4                 2899 	clr	a
   0BA6 F0                 2900 	movx	@dptr,a
                           2901 ;	../../core/net/uip.c:727: if(uip_connr->tcpstateflags == UIP_TIME_WAIT ||
   0BA7 A8*00              2902 	mov	r0,_bp
   0BA9 08                 2903 	inc	r0
   0BAA 74 19              2904 	mov	a,#0x19
   0BAC 26                 2905 	add	a,@r0
   0BAD FC                 2906 	mov	r4,a
   0BAE E4                 2907 	clr	a
   0BAF 08                 2908 	inc	r0
   0BB0 36                 2909 	addc	a,@r0
   0BB1 FD                 2910 	mov	r5,a
   0BB2 08                 2911 	inc	r0
   0BB3 86 06              2912 	mov	ar6,@r0
   0BB5 8C 82              2913 	mov	dpl,r4
   0BB7 8D 83              2914 	mov	dph,r5
   0BB9 8E F0              2915 	mov	b,r6
   0BBB 12s00r00           2916 	lcall	__gptrget
   0BBE FB                 2917 	mov	r3,a
   0BBF BB 07 02           2918 	cjne	r3,#0x07,00693$
   0BC2 80 03              2919 	sjmp	00138$
   0BC4                    2920 00693$:
                           2921 ;	../../core/net/uip.c:728: uip_connr->tcpstateflags == UIP_FIN_WAIT_2) {
   0BC4 BB 05 4A           2922 	cjne	r3,#0x05,00139$
   0BC7                    2923 00138$:
                           2924 ;	../../core/net/uip.c:729: ++(uip_connr->timer);
   0BC7 C0 04              2925 	push	ar4
   0BC9 C0 05              2926 	push	ar5
   0BCB C0 06              2927 	push	ar6
   0BCD A8*00              2928 	mov	r0,_bp
   0BCF 08                 2929 	inc	r0
   0BD0 74 1A              2930 	mov	a,#0x1A
   0BD2 26                 2931 	add	a,@r0
   0BD3 FA                 2932 	mov	r2,a
   0BD4 E4                 2933 	clr	a
   0BD5 08                 2934 	inc	r0
   0BD6 36                 2935 	addc	a,@r0
   0BD7 FD                 2936 	mov	r5,a
   0BD8 08                 2937 	inc	r0
   0BD9 86 06              2938 	mov	ar6,@r0
   0BDB 8A 82              2939 	mov	dpl,r2
   0BDD 8D 83              2940 	mov	dph,r5
   0BDF 8E F0              2941 	mov	b,r6
   0BE1 12s00r00           2942 	lcall	__gptrget
   0BE4 FC                 2943 	mov	r4,a
   0BE5 0C                 2944 	inc	r4
   0BE6 8A 82              2945 	mov	dpl,r2
   0BE8 8D 83              2946 	mov	dph,r5
   0BEA 8E F0              2947 	mov	b,r6
   0BEC EC                 2948 	mov	a,r4
   0BED 12s00r00           2949 	lcall	__gptrput
                           2950 ;	../../core/net/uip.c:730: if(uip_connr->timer == UIP_TIME_WAIT_TIMEOUT) {
   0BF0 BC 78 02           2951 	cjne	r4,#0x78,00696$
   0BF3 80 09              2952 	sjmp	00697$
   0BF5                    2953 00696$:
   0BF5 D0 06              2954 	pop	ar6
   0BF7 D0 05              2955 	pop	ar5
   0BF9 D0 04              2956 	pop	ar4
   0BFB 02s30rFB           2957 	ljmp	00387$
   0BFE                    2958 00697$:
   0BFE D0 06              2959 	pop	ar6
   0C00 D0 05              2960 	pop	ar5
   0C02 D0 04              2961 	pop	ar4
                           2962 ;	../../core/net/uip.c:731: uip_connr->tcpstateflags = UIP_CLOSED;
   0C04 8C 82              2963 	mov	dpl,r4
   0C06 8D 83              2964 	mov	dph,r5
   0C08 8E F0              2965 	mov	b,r6
   0C0A E4                 2966 	clr	a
   0C0B 12s00r00           2967 	lcall	__gptrput
   0C0E 02s30rFB           2968 	ljmp	00387$
   0C11                    2969 00139$:
                           2970 ;	../../core/net/uip.c:733: } else if(uip_connr->tcpstateflags != UIP_CLOSED) {
   0C11 EB                 2971 	mov	a,r3
   0C12 70 03              2972 	jnz	00698$
   0C14 02s30rFB           2973 	ljmp	00387$
   0C17                    2974 00698$:
                           2975 ;	../../core/net/uip.c:738: if(uip_outstanding(uip_connr)) {
   0C17 C0 04              2976 	push	ar4
   0C19 C0 05              2977 	push	ar5
   0C1B C0 06              2978 	push	ar6
   0C1D A8*00              2979 	mov	r0,_bp
   0C1F 08                 2980 	inc	r0
   0C20 74 10              2981 	mov	a,#0x10
   0C22 26                 2982 	add	a,@r0
   0C23 FA                 2983 	mov	r2,a
   0C24 E4                 2984 	clr	a
   0C25 08                 2985 	inc	r0
   0C26 36                 2986 	addc	a,@r0
   0C27 FD                 2987 	mov	r5,a
   0C28 08                 2988 	inc	r0
   0C29 86 06              2989 	mov	ar6,@r0
   0C2B 8A 82              2990 	mov	dpl,r2
   0C2D 8D 83              2991 	mov	dph,r5
   0C2F 8E F0              2992 	mov	b,r6
   0C31 12s00r00           2993 	lcall	__gptrget
   0C34 FA                 2994 	mov	r2,a
   0C35 A3                 2995 	inc	dptr
   0C36 12s00r00           2996 	lcall	__gptrget
   0C39 4A                 2997 	orl	a,r2
   0C3A D0 06              2998 	pop	ar6
   0C3C D0 05              2999 	pop	ar5
   0C3E D0 04              3000 	pop	ar4
   0C40 70 03              3001 	jnz	00699$
   0C42 02s0Dr7C           3002 	ljmp	00134$
   0C45                    3003 00699$:
                           3004 ;	../../core/net/uip.c:739: if(uip_connr->timer-- == 0) {
   0C45 C0 04              3005 	push	ar4
   0C47 C0 05              3006 	push	ar5
   0C49 C0 06              3007 	push	ar6
   0C4B A8*00              3008 	mov	r0,_bp
   0C4D 08                 3009 	inc	r0
   0C4E E5*00              3010 	mov	a,_bp
   0C50 24 05              3011 	add	a,#0x05
   0C52 F9                 3012 	mov	r1,a
   0C53 74 1A              3013 	mov	a,#0x1A
   0C55 26                 3014 	add	a,@r0
   0C56 F7                 3015 	mov	@r1,a
   0C57 E4                 3016 	clr	a
   0C58 08                 3017 	inc	r0
   0C59 36                 3018 	addc	a,@r0
   0C5A 09                 3019 	inc	r1
   0C5B F7                 3020 	mov	@r1,a
   0C5C 08                 3021 	inc	r0
   0C5D 09                 3022 	inc	r1
   0C5E E6                 3023 	mov	a,@r0
   0C5F F7                 3024 	mov	@r1,a
   0C60 E5*00              3025 	mov	a,_bp
   0C62 24 05              3026 	add	a,#0x05
   0C64 F8                 3027 	mov	r0,a
   0C65 86 82              3028 	mov	dpl,@r0
   0C67 08                 3029 	inc	r0
   0C68 86 83              3030 	mov	dph,@r0
   0C6A 08                 3031 	inc	r0
   0C6B 86 F0              3032 	mov	b,@r0
   0C6D 12s00r00           3033 	lcall	__gptrget
   0C70 FA                 3034 	mov	r2,a
   0C71 14                 3035 	dec	a
   0C72 FE                 3036 	mov	r6,a
   0C73 E5*00              3037 	mov	a,_bp
   0C75 24 05              3038 	add	a,#0x05
   0C77 F8                 3039 	mov	r0,a
   0C78 86 82              3040 	mov	dpl,@r0
   0C7A 08                 3041 	inc	r0
   0C7B 86 83              3042 	mov	dph,@r0
   0C7D 08                 3043 	inc	r0
   0C7E 86 F0              3044 	mov	b,@r0
   0C80 EE                 3045 	mov	a,r6
   0C81 12s00r00           3046 	lcall	__gptrput
   0C84 D0 06              3047 	pop	ar6
   0C86 D0 05              3048 	pop	ar5
   0C88 D0 04              3049 	pop	ar4
   0C8A EA                 3050 	mov	a,r2
   0C8B 60 03              3051 	jz	00700$
   0C8D 02s30rFB           3052 	ljmp	00387$
   0C90                    3053 00700$:
                           3054 ;	../../core/net/uip.c:740: if(uip_connr->nrtx == UIP_MAXRTX ||
   0C90 A8*00              3055 	mov	r0,_bp
   0C92 08                 3056 	inc	r0
   0C93 E5*00              3057 	mov	a,_bp
   0C95 24 08              3058 	add	a,#0x08
   0C97 F9                 3059 	mov	r1,a
   0C98 74 1B              3060 	mov	a,#0x1B
   0C9A 26                 3061 	add	a,@r0
   0C9B F7                 3062 	mov	@r1,a
   0C9C E4                 3063 	clr	a
   0C9D 08                 3064 	inc	r0
   0C9E 36                 3065 	addc	a,@r0
   0C9F 09                 3066 	inc	r1
   0CA0 F7                 3067 	mov	@r1,a
   0CA1 08                 3068 	inc	r0
   0CA2 09                 3069 	inc	r1
   0CA3 E6                 3070 	mov	a,@r0
   0CA4 F7                 3071 	mov	@r1,a
   0CA5 E5*00              3072 	mov	a,_bp
   0CA7 24 08              3073 	add	a,#0x08
   0CA9 F8                 3074 	mov	r0,a
   0CAA 86 82              3075 	mov	dpl,@r0
   0CAC 08                 3076 	inc	r0
   0CAD 86 83              3077 	mov	dph,@r0
   0CAF 08                 3078 	inc	r0
   0CB0 86 F0              3079 	mov	b,@r0
   0CB2 12s00r00           3080 	lcall	__gptrget
   0CB5 FA                 3081 	mov	r2,a
   0CB6 BA 08 02           3082 	cjne	r2,#0x08,00701$
   0CB9 80 0B              3083 	sjmp	00117$
   0CBB                    3084 00701$:
                           3085 ;	../../core/net/uip.c:741: ((uip_connr->tcpstateflags == UIP_SYN_SENT ||
   0CBB BB 02 02           3086 	cjne	r3,#0x02,00702$
   0CBE 80 03              3087 	sjmp	00120$
   0CC0                    3088 00702$:
                           3089 ;	../../core/net/uip.c:742: uip_connr->tcpstateflags == UIP_SYN_RCVD) &&
   0CC0 BB 01 29           3090 	cjne	r3,#0x01,00118$
   0CC3                    3091 00120$:
                           3092 ;	../../core/net/uip.c:743: uip_connr->nrtx == UIP_MAXSYNRTX)) {
   0CC3 BA 05 26           3093 	cjne	r2,#0x05,00118$
   0CC6                    3094 00117$:
                           3095 ;	../../core/net/uip.c:744: uip_connr->tcpstateflags = UIP_CLOSED;
   0CC6 8C 82              3096 	mov	dpl,r4
   0CC8 8D 83              3097 	mov	dph,r5
   0CCA 8E F0              3098 	mov	b,r6
   0CCC E4                 3099 	clr	a
   0CCD 12s00r00           3100 	lcall	__gptrput
                           3101 ;	../../core/net/uip.c:749: uip_flags = UIP_TIMEDOUT;
   0CD0 90s00r82           3102 	mov	dptr,#_uip_flags
   0CD3 74 80              3103 	mov	a,#0x80
   0CD5 F0                 3104 	movx	@dptr,a
                           3105 ;	../../core/net/uip.c:750: UIP_APPCALL();
   0CD6 12s00r00           3106 	lcall	_tcpip_uipcall
                           3107 ;	../../core/net/uip.c:753: BUF->flags = TCP_RST | TCP_ACK;
   0CD9 7Dr1A              3108 	mov	r5,#(_uip_aligned_buf + 0x000e)
   0CDB 7Es00              3109 	mov	r6,#((_uip_aligned_buf + 0x000e) >> 8)
   0CDD 74 21              3110 	mov	a,#0x21
   0CDF 2D                 3111 	add	a,r5
   0CE0 F5 82              3112 	mov	dpl,a
   0CE2 E4                 3113 	clr	a
   0CE3 3E                 3114 	addc	a,r6
   0CE4 F5 83              3115 	mov	dph,a
   0CE6 74 14              3116 	mov	a,#0x14
   0CE8 F0                 3117 	movx	@dptr,a
                           3118 ;	../../core/net/uip.c:754: goto tcp_send_nodata;
   0CE9 02s2Dr32           3119 	ljmp	00379$
   0CEC                    3120 00118$:
                           3121 ;	../../core/net/uip.c:758: uip_connr->timer = UIP_RTO << (uip_connr->nrtx > 4?
   0CEC EA                 3122 	mov	a,r2
   0CED 24 FB              3123 	add	a,#0xff - 0x04
   0CEF 50 04              3124 	jnc	00402$
                           3125 ;	../../core/net/uip.c:759: 4:
   0CF1 7E 04              3126 	mov	r6,#0x04
   0CF3 80 02              3127 	sjmp	00403$
   0CF5                    3128 00402$:
                           3129 ;	../../core/net/uip.c:760: uip_connr->nrtx);
   0CF5 8A 06              3130 	mov	ar6,r2
   0CF7                    3131 00403$:
   0CF7 8E F0              3132 	mov	b,r6
   0CF9 05 F0              3133 	inc	b
   0CFB 74 03              3134 	mov	a,#0x03
   0CFD 80 02              3135 	sjmp	00710$
   0CFF                    3136 00708$:
   0CFF 25 E0              3137 	add	a,acc
   0D01                    3138 00710$:
   0D01 D5 F0 FB           3139 	djnz	b,00708$
   0D04 FE                 3140 	mov	r6,a
   0D05 E5*00              3141 	mov	a,_bp
   0D07 24 05              3142 	add	a,#0x05
   0D09 F8                 3143 	mov	r0,a
   0D0A 86 82              3144 	mov	dpl,@r0
   0D0C 08                 3145 	inc	r0
   0D0D 86 83              3146 	mov	dph,@r0
   0D0F 08                 3147 	inc	r0
   0D10 86 F0              3148 	mov	b,@r0
   0D12 EE                 3149 	mov	a,r6
   0D13 12s00r00           3150 	lcall	__gptrput
                           3151 ;	../../core/net/uip.c:761: ++(uip_connr->nrtx);
   0D16 0A                 3152 	inc	r2
   0D17 E5*00              3153 	mov	a,_bp
   0D19 24 08              3154 	add	a,#0x08
   0D1B F8                 3155 	mov	r0,a
   0D1C 86 82              3156 	mov	dpl,@r0
   0D1E 08                 3157 	inc	r0
   0D1F 86 83              3158 	mov	dph,@r0
   0D21 08                 3159 	inc	r0
   0D22 86 F0              3160 	mov	b,@r0
   0D24 EA                 3161 	mov	a,r2
   0D25 12s00r00           3162 	lcall	__gptrput
                           3163 ;	../../core/net/uip.c:770: switch(uip_connr->tcpstateflags & UIP_TS_MASK) {
   0D28 74 0F              3164 	mov	a,#0x0F
   0D2A 5B                 3165 	anl	a,r3
   0D2B FE                 3166 	mov  r6,a
   0D2C 24 F7              3167 	add	a,#0xff - 0x08
   0D2E 50 03              3168 	jnc	00711$
   0D30 02s30rFB           3169 	ljmp	00387$
   0D33                    3170 00711$:
   0D33 EE                 3171 	mov	a,r6
   0D34 2E                 3172 	add	a,r6
   0D35 2E                 3173 	add	a,r6
   0D36 90s0Dr3A           3174 	mov	dptr,#00712$
   0D39 73                 3175 	jmp	@a+dptr
   0D3A                    3176 00712$:
   0D3A 02s0Dr79           3177 	ljmp	00128$
   0D3D 02s0Dr55           3178 	ljmp	00122$
   0D40 02s0Dr58           3179 	ljmp	00123$
   0D43 02s0Dr6A           3180 	ljmp	00124$
   0D46 02s0Dr76           3181 	ljmp	00125$
   0D49 02s0Dr79           3182 	ljmp	00128$
   0D4C 02s0Dr76           3183 	ljmp	00126$
   0D4F 02s0Dr79           3184 	ljmp	00128$
   0D52 02s0Dr76           3185 	ljmp	00127$
                           3186 ;	../../core/net/uip.c:771: case UIP_SYN_RCVD:
   0D55                    3187 00122$:
                           3188 ;	../../core/net/uip.c:774: goto tcp_send_synack;
   0D55 02s1Er2D           3189 	ljmp	00254$
                           3190 ;	../../core/net/uip.c:777: case UIP_SYN_SENT:
   0D58                    3191 00123$:
                           3192 ;	../../core/net/uip.c:779: BUF->flags = 0;
   0D58 7Dr1A              3193 	mov	r5,#(_uip_aligned_buf + 0x000e)
   0D5A 7Es00              3194 	mov	r6,#((_uip_aligned_buf + 0x000e) >> 8)
   0D5C 74 21              3195 	mov	a,#0x21
   0D5E 2D                 3196 	add	a,r5
   0D5F F5 82              3197 	mov	dpl,a
   0D61 E4                 3198 	clr	a
   0D62 3E                 3199 	addc	a,r6
   0D63 F5 83              3200 	mov	dph,a
   0D65 E4                 3201 	clr	a
   0D66 F0                 3202 	movx	@dptr,a
                           3203 ;	../../core/net/uip.c:780: goto tcp_send_syn;
   0D67 02s1Er3D           3204 	ljmp	00255$
                           3205 ;	../../core/net/uip.c:783: case UIP_ESTABLISHED:
   0D6A                    3206 00124$:
                           3207 ;	../../core/net/uip.c:788: uip_flags = UIP_REXMIT;
   0D6A 90s00r82           3208 	mov	dptr,#_uip_flags
   0D6D 74 04              3209 	mov	a,#0x04
   0D6F F0                 3210 	movx	@dptr,a
                           3211 ;	../../core/net/uip.c:789: UIP_APPCALL();
   0D70 12s00r00           3212 	lcall	_tcpip_uipcall
                           3213 ;	../../core/net/uip.c:790: goto apprexmit;
   0D73 02s2ArF9           3214 	ljmp	00342$
                           3215 ;	../../core/net/uip.c:792: case UIP_FIN_WAIT_1:
   0D76                    3216 00125$:
                           3217 ;	../../core/net/uip.c:793: case UIP_CLOSING:
   0D76                    3218 00126$:
                           3219 ;	../../core/net/uip.c:794: case UIP_LAST_ACK:
   0D76                    3220 00127$:
                           3221 ;	../../core/net/uip.c:796: goto tcp_send_finack;
   0D76 02s28r29           3222 	ljmp	00316$
                           3223 ;	../../core/net/uip.c:798: }
   0D79                    3224 00128$:
   0D79 02s30rFB           3225 	ljmp	00387$
   0D7C                    3226 00134$:
                           3227 ;	../../core/net/uip.c:800: } else if((uip_connr->tcpstateflags & UIP_TS_MASK) == UIP_ESTABLISHED) {
   0D7C 53 03 0F           3228 	anl	ar3,#0x0F
   0D7F BB 03 02           3229 	cjne	r3,#0x03,00713$
   0D82 80 03              3230 	sjmp	00714$
   0D84                    3231 00713$:
   0D84 02s30rFB           3232 	ljmp	00387$
   0D87                    3233 00714$:
                           3234 ;	../../core/net/uip.c:803: uip_flags = UIP_POLL;
   0D87 90s00r82           3235 	mov	dptr,#_uip_flags
   0D8A 74 08              3236 	mov	a,#0x08
   0D8C F0                 3237 	movx	@dptr,a
                           3238 ;	../../core/net/uip.c:804: UIP_APPCALL();
   0D8D 12s00r00           3239 	lcall	_tcpip_uipcall
                           3240 ;	../../core/net/uip.c:805: goto appsend;
   0D90 02s29r89           3241 	ljmp	00328$
                           3242 ;	../../core/net/uip.c:808: goto drop;
   0D93                    3243 00146$:
                           3244 ;	../../core/net/uip.c:811: if(flag == UIP_UDP_TIMER) {
   0D93 BF 05 64           3245 	cjne	r7,#0x05,00151$
                           3246 ;	../../core/net/uip.c:812: if(uip_udp_conn->lport != 0) {
   0D96 90s02r02           3247 	mov	dptr,#_uip_udp_conn
   0D99 E0                 3248 	movx	a,@dptr
   0D9A FD                 3249 	mov	r5,a
   0D9B A3                 3250 	inc	dptr
   0D9C E0                 3251 	movx	a,@dptr
   0D9D FE                 3252 	mov	r6,a
   0D9E A3                 3253 	inc	dptr
   0D9F E0                 3254 	movx	a,@dptr
   0DA0 FF                 3255 	mov	r7,a
   0DA1 74 04              3256 	mov	a,#0x04
   0DA3 2D                 3257 	add	a,r5
   0DA4 FD                 3258 	mov	r5,a
   0DA5 E4                 3259 	clr	a
   0DA6 3E                 3260 	addc	a,r6
   0DA7 FE                 3261 	mov	r6,a
   0DA8 8D 82              3262 	mov	dpl,r5
   0DAA 8E 83              3263 	mov	dph,r6
   0DAC 8F F0              3264 	mov	b,r7
   0DAE 12s00r00           3265 	lcall	__gptrget
   0DB1 FD                 3266 	mov	r5,a
   0DB2 A3                 3267 	inc	dptr
   0DB3 12s00r00           3268 	lcall	__gptrget
   0DB6 FE                 3269 	mov	r6,a
   0DB7 4D                 3270 	orl	a,r5
   0DB8 70 03              3271 	jnz	00717$
   0DBA 02s30rFB           3272 	ljmp	00387$
   0DBD                    3273 00717$:
                           3274 ;	../../core/net/uip.c:813: uip_conn = NULL;
   0DBD 90s00r83           3275 	mov	dptr,#_uip_conn
   0DC0 E4                 3276 	clr	a
   0DC1 F0                 3277 	movx	@dptr,a
   0DC2 A3                 3278 	inc	dptr
   0DC3 F0                 3279 	movx	@dptr,a
   0DC4 A3                 3280 	inc	dptr
   0DC5 F0                 3281 	movx	@dptr,a
                           3282 ;	../../core/net/uip.c:814: uip_sappdata = uip_appdata = &uip_buf[UIP_LLH_LEN + UIP_IPUDPH_LEN];
   0DC6 90s00r78           3283 	mov	dptr,#_uip_appdata
   0DC9 74r36              3284 	mov	a,#(_uip_aligned_buf + 0x002a)
   0DCB F0                 3285 	movx	@dptr,a
   0DCC A3                 3286 	inc	dptr
   0DCD 74s00              3287 	mov	a,#((_uip_aligned_buf + 0x002a) >> 8)
   0DCF F0                 3288 	movx	@dptr,a
   0DD0 A3                 3289 	inc	dptr
   0DD1 E4                 3290 	clr	a
   0DD2 F0                 3291 	movx	@dptr,a
   0DD3 90s00r7B           3292 	mov	dptr,#_uip_sappdata
   0DD6 74r36              3293 	mov	a,#(_uip_aligned_buf + 0x002a)
   0DD8 F0                 3294 	movx	@dptr,a
   0DD9 A3                 3295 	inc	dptr
   0DDA 74s00              3296 	mov	a,#((_uip_aligned_buf + 0x002a) >> 8)
   0DDC F0                 3297 	movx	@dptr,a
   0DDD A3                 3298 	inc	dptr
                           3299 ;	../../core/net/uip.c:815: uip_len = uip_slen = 0;
   0DDE E4                 3300 	clr	a
   0DDF F0                 3301 	movx	@dptr,a
   0DE0 90s00r80           3302 	mov	dptr,#_uip_slen
   0DE3 F0                 3303 	movx	@dptr,a
   0DE4 A3                 3304 	inc	dptr
   0DE5 E4                 3305 	clr	a
   0DE6 F0                 3306 	movx	@dptr,a
   0DE7 90s00r7E           3307 	mov	dptr,#_uip_len
   0DEA F0                 3308 	movx	@dptr,a
   0DEB A3                 3309 	inc	dptr
   0DEC E4                 3310 	clr	a
   0DED F0                 3311 	movx	@dptr,a
                           3312 ;	../../core/net/uip.c:816: uip_flags = UIP_POLL;
   0DEE 90s00r82           3313 	mov	dptr,#_uip_flags
   0DF1 74 08              3314 	mov	a,#0x08
   0DF3 F0                 3315 	movx	@dptr,a
                           3316 ;	../../core/net/uip.c:817: UIP_UDP_APPCALL();
   0DF4 12s00r00           3317 	lcall	_tcpip_uipcall
                           3318 ;	../../core/net/uip.c:818: goto udp_send;
   0DF7 02s13r16           3319 	ljmp	00195$
                           3320 ;	../../core/net/uip.c:820: goto drop;
   0DFA                    3321 00151$:
                           3322 ;	../../core/net/uip.c:840: if(BUF->vhl != 0x45)  { /* IP version and header length. */
   0DFA 90s00r1A           3323 	mov	dptr,#(_uip_aligned_buf + 0x000e)
   0DFD E0                 3324 	movx	a,@dptr
   0DFE FF                 3325 	mov	r7,a
   0DFF BF 45 02           3326 	cjne	r7,#0x45,00718$
   0E02 80 03              3327 	sjmp	00719$
   0E04                    3328 00718$:
   0E04 02s30rFB           3329 	ljmp	00387$
   0E07                    3330 00719$:
                           3331 ;	../../core/net/uip.c:855: if((BUF->len[0] << 8) + BUF->len[1] <= uip_len) {
   0E07 7Er1A              3332 	mov	r6,#(_uip_aligned_buf + 0x000e)
   0E09 7Fs00              3333 	mov	r7,#((_uip_aligned_buf + 0x000e) >> 8)
   0E0B 8E 82              3334 	mov	dpl,r6
   0E0D 8F 83              3335 	mov	dph,r7
   0E0F A3                 3336 	inc	dptr
   0E10 A3                 3337 	inc	dptr
   0E11 E0                 3338 	movx	a,@dptr
   0E12 FE                 3339 	mov	r6,a
   0E13 7F 00              3340 	mov	r7,#0x00
   0E15 7Cr1A              3341 	mov	r4,#(_uip_aligned_buf + 0x000e)
   0E17 7Ds00              3342 	mov	r5,#((_uip_aligned_buf + 0x000e) >> 8)
   0E19 8C 82              3343 	mov	dpl,r4
   0E1B 8D 83              3344 	mov	dph,r5
   0E1D A3                 3345 	inc	dptr
   0E1E A3                 3346 	inc	dptr
   0E1F A3                 3347 	inc	dptr
   0E20 E0                 3348 	movx	a,@dptr
   0E21 7C 00              3349 	mov	r4,#0x00
   0E23 2F                 3350 	add	a,r7
   0E24 FF                 3351 	mov	r7,a
   0E25 EC                 3352 	mov	a,r4
   0E26 3E                 3353 	addc	a,r6
   0E27 FE                 3354 	mov	r6,a
   0E28 90s00r7E           3355 	mov	dptr,#_uip_len
   0E2B E0                 3356 	movx	a,@dptr
   0E2C FC                 3357 	mov	r4,a
   0E2D A3                 3358 	inc	dptr
   0E2E E0                 3359 	movx	a,@dptr
   0E2F FD                 3360 	mov	r5,a
   0E30 C3                 3361 	clr	c
   0E31 EC                 3362 	mov	a,r4
   0E32 9F                 3363 	subb	a,r7
   0E33 ED                 3364 	mov	a,r5
   0E34 9E                 3365 	subb	a,r6
   0E35 50 03              3366 	jnc	00720$
   0E37 02s30rFB           3367 	ljmp	00387$
   0E3A                    3368 00720$:
                           3369 ;	../../core/net/uip.c:856: uip_len = (BUF->len[0] << 8) + BUF->len[1];
   0E3A 7Er1A              3370 	mov	r6,#(_uip_aligned_buf + 0x000e)
   0E3C 7Fs00              3371 	mov	r7,#((_uip_aligned_buf + 0x000e) >> 8)
   0E3E 8E 82              3372 	mov	dpl,r6
   0E40 8F 83              3373 	mov	dph,r7
   0E42 A3                 3374 	inc	dptr
   0E43 A3                 3375 	inc	dptr
   0E44 E0                 3376 	movx	a,@dptr
   0E45 FE                 3377 	mov	r6,a
   0E46 7F 00              3378 	mov	r7,#0x00
   0E48 7Cr1A              3379 	mov	r4,#(_uip_aligned_buf + 0x000e)
   0E4A 7Ds00              3380 	mov	r5,#((_uip_aligned_buf + 0x000e) >> 8)
   0E4C 8C 82              3381 	mov	dpl,r4
   0E4E 8D 83              3382 	mov	dph,r5
   0E50 A3                 3383 	inc	dptr
   0E51 A3                 3384 	inc	dptr
   0E52 A3                 3385 	inc	dptr
   0E53 E0                 3386 	movx	a,@dptr
   0E54 FD                 3387 	mov	r5,a
   0E55 7C 00              3388 	mov	r4,#0x00
   0E57 2F                 3389 	add	a,r7
   0E58 FF                 3390 	mov	r7,a
   0E59 EC                 3391 	mov	a,r4
   0E5A 3E                 3392 	addc	a,r6
   0E5B FE                 3393 	mov	r6,a
   0E5C 90s00r7E           3394 	mov	dptr,#_uip_len
   0E5F EF                 3395 	mov	a,r7
   0E60 F0                 3396 	movx	@dptr,a
   0E61 A3                 3397 	inc	dptr
   0E62 EE                 3398 	mov	a,r6
   0E63 F0                 3399 	movx	@dptr,a
                           3400 ;	../../core/net/uip.c:875: if((BUF->ipoffset[0] & 0x3f) != 0 ||
   0E64 7Er1A              3401 	mov	r6,#(_uip_aligned_buf + 0x000e)
   0E66 7Fs00              3402 	mov	r7,#((_uip_aligned_buf + 0x000e) >> 8)
   0E68 74 06              3403 	mov	a,#0x06
   0E6A 2E                 3404 	add	a,r6
   0E6B F5 82              3405 	mov	dpl,a
   0E6D E4                 3406 	clr	a
   0E6E 3F                 3407 	addc	a,r7
   0E6F F5 83              3408 	mov	dph,a
   0E71 E0                 3409 	movx	a,@dptr
   0E72 FF                 3410 	mov	r7,a
   0E73 54 3F              3411 	anl	a,#0x3F
   0E75 60 03              3412 	jz	00722$
   0E77 02s30rFB           3413 	ljmp	00387$
   0E7A                    3414 00722$:
                           3415 ;	../../core/net/uip.c:876: BUF->ipoffset[1] != 0) {
   0E7A 7Er1A              3416 	mov	r6,#(_uip_aligned_buf + 0x000e)
   0E7C 7Fs00              3417 	mov	r7,#((_uip_aligned_buf + 0x000e) >> 8)
   0E7E 74 07              3418 	mov	a,#0x07
   0E80 2E                 3419 	add	a,r6
   0E81 FE                 3420 	mov	r6,a
   0E82 E4                 3421 	clr	a
   0E83 3F                 3422 	addc	a,r7
   0E84 FF                 3423 	mov	r7,a
   0E85 8E 82              3424 	mov	dpl,r6
   0E87 8F 83              3425 	mov	dph,r7
   0E89 E0                 3426 	movx	a,@dptr
   0E8A 60 03              3427 	jz	00723$
   0E8C 02s30rFB           3428 	ljmp	00387$
   0E8F                    3429 00723$:
                           3430 ;	../../core/net/uip.c:891: if(uip_ipaddr_cmp(&uip_hostaddr, &uip_all_zeroes_addr)) {
   0E8F 90s00r00           3431 	mov	dptr,#_uip_hostaddr
   0E92 E0                 3432 	movx	a,@dptr
   0E93 FE                 3433 	mov	r6,a
   0E94 A3                 3434 	inc	dptr
   0E95 E0                 3435 	movx	a,@dptr
   0E96 FF                 3436 	mov	r7,a
   0E97 90s00r04           3437 	mov	dptr,#_uip_all_zeroes_addr
   0E9A E4                 3438 	clr	a
   0E9B 93                 3439 	movc	a,@a+dptr
   0E9C FC                 3440 	mov	r4,a
   0E9D A3                 3441 	inc	dptr
   0E9E E4                 3442 	clr	a
   0E9F 93                 3443 	movc	a,@a+dptr
   0EA0 FD                 3444 	mov	r5,a
   0EA1 EE                 3445 	mov	a,r6
   0EA2 B5 04 20           3446 	cjne	a,ar4,00164$
   0EA5 EF                 3447 	mov	a,r7
   0EA6 B5 05 1C           3448 	cjne	a,ar5,00164$
   0EA9 90s00r02           3449 	mov	dptr,#(_uip_hostaddr + 0x0002)
   0EAC E0                 3450 	movx	a,@dptr
   0EAD FC                 3451 	mov	r4,a
   0EAE A3                 3452 	inc	dptr
   0EAF E0                 3453 	movx	a,@dptr
   0EB0 FD                 3454 	mov	r5,a
   0EB1 90s00r06           3455 	mov	dptr,#(_uip_all_zeroes_addr + 0x0002)
   0EB4 E4                 3456 	clr	a
   0EB5 93                 3457 	movc	a,@a+dptr
   0EB6 FA                 3458 	mov	r2,a
   0EB7 A3                 3459 	inc	dptr
   0EB8 E4                 3460 	clr	a
   0EB9 93                 3461 	movc	a,@a+dptr
   0EBA FB                 3462 	mov	r3,a
   0EBB EC                 3463 	mov	a,r4
   0EBC B5 02 06           3464 	cjne	a,ar2,00726$
   0EBF ED                 3465 	mov	a,r5
   0EC0 B5 03 02           3466 	cjne	a,ar3,00726$
   0EC3 80 46              3467 	sjmp	00165$
   0EC5                    3468 00726$:
   0EC5                    3469 00164$:
                           3470 ;	../../core/net/uip.c:927: if(!uip_ipaddr_cmp(&BUF->destipaddr, &uip_hostaddr)) {
   0EC5 7Cr1A              3471 	mov	r4,#(_uip_aligned_buf + 0x000e)
   0EC7 7Ds00              3472 	mov	r5,#((_uip_aligned_buf + 0x000e) >> 8)
   0EC9 74 10              3473 	mov	a,#0x10
   0ECB 2C                 3474 	add	a,r4
   0ECC F5 82              3475 	mov	dpl,a
   0ECE E4                 3476 	clr	a
   0ECF 3D                 3477 	addc	a,r5
   0ED0 F5 83              3478 	mov	dph,a
   0ED2 E0                 3479 	movx	a,@dptr
   0ED3 FC                 3480 	mov	r4,a
   0ED4 A3                 3481 	inc	dptr
   0ED5 E0                 3482 	movx	a,@dptr
   0ED6 FD                 3483 	mov	r5,a
   0ED7 EC                 3484 	mov	a,r4
   0ED8 B5 06 06           3485 	cjne	a,ar6,00727$
   0EDB ED                 3486 	mov	a,r5
   0EDC B5 07 02           3487 	cjne	a,ar7,00727$
   0EDF 80 03              3488 	sjmp	00728$
   0EE1                    3489 00727$:
   0EE1 02s30rFB           3490 	ljmp	00387$
   0EE4                    3491 00728$:
   0EE4 7Er1A              3492 	mov	r6,#(_uip_aligned_buf + 0x000e)
   0EE6 7Fs00              3493 	mov	r7,#((_uip_aligned_buf + 0x000e) >> 8)
   0EE8 74 12              3494 	mov	a,#0x12
   0EEA 2E                 3495 	add	a,r6
   0EEB F5 82              3496 	mov	dpl,a
   0EED E4                 3497 	clr	a
   0EEE 3F                 3498 	addc	a,r7
   0EEF F5 83              3499 	mov	dph,a
   0EF1 E0                 3500 	movx	a,@dptr
   0EF2 FE                 3501 	mov	r6,a
   0EF3 A3                 3502 	inc	dptr
   0EF4 E0                 3503 	movx	a,@dptr
   0EF5 FF                 3504 	mov	r7,a
   0EF6 90s00r02           3505 	mov	dptr,#(_uip_hostaddr + 0x0002)
   0EF9 E0                 3506 	movx	a,@dptr
   0EFA FC                 3507 	mov	r4,a
   0EFB A3                 3508 	inc	dptr
   0EFC E0                 3509 	movx	a,@dptr
   0EFD FD                 3510 	mov	r5,a
   0EFE EE                 3511 	mov	a,r6
   0EFF B5 04 06           3512 	cjne	a,ar4,00729$
   0F02 EF                 3513 	mov	a,r7
   0F03 B5 05 02           3514 	cjne	a,ar5,00729$
   0F06 80 03              3515 	sjmp	00730$
   0F08                    3516 00729$:
   0F08 02s30rFB           3517 	ljmp	00387$
   0F0B                    3518 00730$:
                           3519 ;	../../core/net/uip.c:929: goto drop;
   0F0B                    3520 00165$:
                           3521 ;	../../core/net/uip.c:946: if(uip_ipchksum() != 0xffff) { /* Compute and check the IP header
   0F0B 12s02r52           3522 	lcall	_uip_ipchksum
   0F0E AE 82              3523 	mov	r6,dpl
   0F10 AF 83              3524 	mov	r7,dph
   0F12 BE FF 05           3525 	cjne	r6,#0xFF,00731$
   0F15 BF FF 02           3526 	cjne	r7,#0xFF,00731$
   0F18 80 03              3527 	sjmp	00732$
   0F1A                    3528 00731$:
   0F1A 02s30rFB           3529 	ljmp	00387$
   0F1D                    3530 00732$:
                           3531 ;	../../core/net/uip.c:955: if(BUF->proto == UIP_PROTO_TCP) { /* Check for TCP packet. If so,
   0F1D 7Er1A              3532 	mov	r6,#(_uip_aligned_buf + 0x000e)
   0F1F 7Fs00              3533 	mov	r7,#((_uip_aligned_buf + 0x000e) >> 8)
   0F21 74 09              3534 	mov	a,#0x09
   0F23 2E                 3535 	add	a,r6
   0F24 F5 82              3536 	mov	dpl,a
   0F26 E4                 3537 	clr	a
   0F27 3F                 3538 	addc	a,r7
   0F28 F5 83              3539 	mov	dph,a
   0F2A E0                 3540 	movx	a,@dptr
   0F2B FF                 3541 	mov	r7,a
   0F2C BF 06 03           3542 	cjne	r7,#0x06,00733$
   0F2F 02s14rCB           3543 	ljmp	00198$
   0F32                    3544 00733$:
                           3545 ;	../../core/net/uip.c:962: if(BUF->proto == UIP_PROTO_UDP) {
   0F32 7Er1A              3546 	mov	r6,#(_uip_aligned_buf + 0x000e)
   0F34 7Fs00              3547 	mov	r7,#((_uip_aligned_buf + 0x000e) >> 8)
   0F36 74 09              3548 	mov	a,#0x09
   0F38 2E                 3549 	add	a,r6
   0F39 F5 82              3550 	mov	dpl,a
   0F3B E4                 3551 	clr	a
   0F3C 3F                 3552 	addc	a,r7
   0F3D F5 83              3553 	mov	dph,a
   0F3F E0                 3554 	movx	a,@dptr
   0F40 FF                 3555 	mov	r7,a
   0F41 BF 11 03           3556 	cjne	r7,#0x11,00734$
   0F44 02s10r72           3557 	ljmp	00180$
   0F47                    3558 00734$:
                           3559 ;	../../core/net/uip.c:969: if(BUF->proto != UIP_PROTO_ICMP) { /* We only allow ICMP packets from
   0F47 7Er1A              3560 	mov	r6,#(_uip_aligned_buf + 0x000e)
   0F49 7Fs00              3561 	mov	r7,#((_uip_aligned_buf + 0x000e) >> 8)
   0F4B 74 09              3562 	mov	a,#0x09
   0F4D 2E                 3563 	add	a,r6
   0F4E F5 82              3564 	mov	dpl,a
   0F50 E4                 3565 	clr	a
   0F51 3F                 3566 	addc	a,r7
   0F52 F5 83              3567 	mov	dph,a
   0F54 E0                 3568 	movx	a,@dptr
   0F55 FF                 3569 	mov	r7,a
   0F56 BF 01 02           3570 	cjne	r7,#0x01,00735$
   0F59 80 03              3571 	sjmp	00736$
   0F5B                    3572 00735$:
   0F5B 02s30rFB           3573 	ljmp	00387$
   0F5E                    3574 00736$:
                           3575 ;	../../core/net/uip.c:985: if(ICMPBUF->type != ICMP_ECHO) {
   0F5E 7Er1A              3576 	mov	r6,#(_uip_aligned_buf + 0x000e)
   0F60 7Fs00              3577 	mov	r7,#((_uip_aligned_buf + 0x000e) >> 8)
   0F62 74 14              3578 	mov	a,#0x14
   0F64 2E                 3579 	add	a,r6
   0F65 F5 82              3580 	mov	dpl,a
   0F67 E4                 3581 	clr	a
   0F68 3F                 3582 	addc	a,r7
   0F69 F5 83              3583 	mov	dph,a
   0F6B E0                 3584 	movx	a,@dptr
   0F6C FF                 3585 	mov	r7,a
   0F6D BF 08 02           3586 	cjne	r7,#0x08,00737$
   0F70 80 03              3587 	sjmp	00738$
   0F72                    3588 00737$:
   0F72 02s30rFB           3589 	ljmp	00387$
   0F75                    3590 00738$:
                           3591 ;	../../core/net/uip.c:1001: ICMPBUF->type = ICMP_ECHO_REPLY;
   0F75 7Er1A              3592 	mov	r6,#(_uip_aligned_buf + 0x000e)
   0F77 7Fs00              3593 	mov	r7,#((_uip_aligned_buf + 0x000e) >> 8)
   0F79 74 14              3594 	mov	a,#0x14
   0F7B 2E                 3595 	add	a,r6
   0F7C F5 82              3596 	mov	dpl,a
   0F7E E4                 3597 	clr	a
   0F7F 3F                 3598 	addc	a,r7
   0F80 F5 83              3599 	mov	dph,a
   0F82 E4                 3600 	clr	a
   0F83 F0                 3601 	movx	@dptr,a
                           3602 ;	../../core/net/uip.c:1003: if(ICMPBUF->icmpchksum >= UIP_HTONS(0xffff - (ICMP_ECHO << 8))) {
   0F84 7Er1A              3603 	mov	r6,#(_uip_aligned_buf + 0x000e)
   0F86 7Fs00              3604 	mov	r7,#((_uip_aligned_buf + 0x000e) >> 8)
   0F88 74 16              3605 	mov	a,#0x16
   0F8A 2E                 3606 	add	a,r6
   0F8B F5 82              3607 	mov	dpl,a
   0F8D E4                 3608 	clr	a
   0F8E 3F                 3609 	addc	a,r7
   0F8F F5 83              3610 	mov	dph,a
   0F91 E0                 3611 	movx	a,@dptr
   0F92 FE                 3612 	mov	r6,a
   0F93 A3                 3613 	inc	dptr
   0F94 E0                 3614 	movx	a,@dptr
   0F95 FF                 3615 	mov	r7,a
   0F96 C3                 3616 	clr	c
   0F97 EE                 3617 	mov	a,r6
   0F98 94 F7              3618 	subb	a,#0xF7
   0F9A EF                 3619 	mov	a,r7
   0F9B 94 FF              3620 	subb	a,#0xFF
   0F9D 40 2F              3621 	jc	00178$
                           3622 ;	../../core/net/uip.c:1004: ICMPBUF->icmpchksum += UIP_HTONS(ICMP_ECHO << 8) + 1;
   0F9F 7Er1A              3623 	mov	r6,#(_uip_aligned_buf + 0x000e)
   0FA1 7Fs00              3624 	mov	r7,#((_uip_aligned_buf + 0x000e) >> 8)
   0FA3 74 16              3625 	mov	a,#0x16
   0FA5 2E                 3626 	add	a,r6
   0FA6 FE                 3627 	mov	r6,a
   0FA7 E4                 3628 	clr	a
   0FA8 3F                 3629 	addc	a,r7
   0FA9 FF                 3630 	mov	r7,a
   0FAA 7Cr1A              3631 	mov	r4,#(_uip_aligned_buf + 0x000e)
   0FAC 7Ds00              3632 	mov	r5,#((_uip_aligned_buf + 0x000e) >> 8)
   0FAE 74 16              3633 	mov	a,#0x16
   0FB0 2C                 3634 	add	a,r4
   0FB1 F5 82              3635 	mov	dpl,a
   0FB3 E4                 3636 	clr	a
   0FB4 3D                 3637 	addc	a,r5
   0FB5 F5 83              3638 	mov	dph,a
   0FB7 E0                 3639 	movx	a,@dptr
   0FB8 FC                 3640 	mov	r4,a
   0FB9 A3                 3641 	inc	dptr
   0FBA E0                 3642 	movx	a,@dptr
   0FBB FD                 3643 	mov	r5,a
   0FBC 74 09              3644 	mov	a,#0x09
   0FBE 2C                 3645 	add	a,r4
   0FBF FC                 3646 	mov	r4,a
   0FC0 E4                 3647 	clr	a
   0FC1 3D                 3648 	addc	a,r5
   0FC2 FD                 3649 	mov	r5,a
   0FC3 8E 82              3650 	mov	dpl,r6
   0FC5 8F 83              3651 	mov	dph,r7
   0FC7 EC                 3652 	mov	a,r4
   0FC8 F0                 3653 	movx	@dptr,a
   0FC9 A3                 3654 	inc	dptr
   0FCA ED                 3655 	mov	a,r5
   0FCB F0                 3656 	movx	@dptr,a
   0FCC 80 2D              3657 	sjmp	00179$
   0FCE                    3658 00178$:
                           3659 ;	../../core/net/uip.c:1006: ICMPBUF->icmpchksum += UIP_HTONS(ICMP_ECHO << 8);
   0FCE 7Er1A              3660 	mov	r6,#(_uip_aligned_buf + 0x000e)
   0FD0 7Fs00              3661 	mov	r7,#((_uip_aligned_buf + 0x000e) >> 8)
   0FD2 74 16              3662 	mov	a,#0x16
   0FD4 2E                 3663 	add	a,r6
   0FD5 FE                 3664 	mov	r6,a
   0FD6 E4                 3665 	clr	a
   0FD7 3F                 3666 	addc	a,r7
   0FD8 FF                 3667 	mov	r7,a
   0FD9 7Cr1A              3668 	mov	r4,#(_uip_aligned_buf + 0x000e)
   0FDB 7Ds00              3669 	mov	r5,#((_uip_aligned_buf + 0x000e) >> 8)
   0FDD 74 16              3670 	mov	a,#0x16
   0FDF 2C                 3671 	add	a,r4
   0FE0 F5 82              3672 	mov	dpl,a
   0FE2 E4                 3673 	clr	a
   0FE3 3D                 3674 	addc	a,r5
   0FE4 F5 83              3675 	mov	dph,a
   0FE6 E0                 3676 	movx	a,@dptr
   0FE7 FC                 3677 	mov	r4,a
   0FE8 A3                 3678 	inc	dptr
   0FE9 E0                 3679 	movx	a,@dptr
   0FEA FD                 3680 	mov	r5,a
   0FEB 74 08              3681 	mov	a,#0x08
   0FED 2C                 3682 	add	a,r4
   0FEE FC                 3683 	mov	r4,a
   0FEF E4                 3684 	clr	a
   0FF0 3D                 3685 	addc	a,r5
   0FF1 FD                 3686 	mov	r5,a
   0FF2 8E 82              3687 	mov	dpl,r6
   0FF4 8F 83              3688 	mov	dph,r7
   0FF6 EC                 3689 	mov	a,r4
   0FF7 F0                 3690 	movx	@dptr,a
   0FF8 A3                 3691 	inc	dptr
   0FF9 ED                 3692 	mov	a,r5
   0FFA F0                 3693 	movx	@dptr,a
   0FFB                    3694 00179$:
                           3695 ;	../../core/net/uip.c:1010: uip_ipaddr_copy(&BUF->destipaddr, &BUF->srcipaddr);
   0FFB 7Er1A              3696 	mov	r6,#(_uip_aligned_buf + 0x000e)
   0FFD 7Fs00              3697 	mov	r7,#((_uip_aligned_buf + 0x000e) >> 8)
   0FFF 74 0C              3698 	mov	a,#0x0C
   1001 2E                 3699 	add	a,r6
   1002 FE                 3700 	mov	r6,a
   1003 E4                 3701 	clr	a
   1004 3F                 3702 	addc	a,r7
   1005 FF                 3703 	mov	r7,a
   1006 7D 00              3704 	mov	r5,#0x00
   1008 7Br1A              3705 	mov	r3,#(_uip_aligned_buf + 0x000e)
   100A 7Cs00              3706 	mov	r4,#((_uip_aligned_buf + 0x000e) >> 8)
   100C 74 10              3707 	mov	a,#0x10
   100E 2B                 3708 	add	a,r3
   100F FB                 3709 	mov	r3,a
   1010 E4                 3710 	clr	a
   1011 3C                 3711 	addc	a,r4
   1012 FC                 3712 	mov	r4,a
   1013 7A 00              3713 	mov	r2,#0x00
   1015 74 04              3714 	mov	a,#0x04
   1017 C0 E0              3715 	push	acc
   1019 E4                 3716 	clr	a
   101A C0 E0              3717 	push	acc
   101C C0 06              3718 	push	ar6
   101E C0 07              3719 	push	ar7
   1020 C0 05              3720 	push	ar5
   1022 8B 82              3721 	mov	dpl,r3
   1024 8C 83              3722 	mov	dph,r4
   1026 8A F0              3723 	mov	b,r2
   1028 12s00r00           3724 	lcall	_memcpy
   102B E5 81              3725 	mov	a,sp
   102D 24 FB              3726 	add	a,#0xfb
   102F F5 81              3727 	mov	sp,a
                           3728 ;	../../core/net/uip.c:1011: uip_ipaddr_copy(&BUF->srcipaddr, &uip_hostaddr);
   1031 7Er1A              3729 	mov	r6,#(_uip_aligned_buf + 0x000e)
   1033 7Fs00              3730 	mov	r7,#((_uip_aligned_buf + 0x000e) >> 8)
   1035 74 0C              3731 	mov	a,#0x0C
   1037 2E                 3732 	add	a,r6
   1038 FE                 3733 	mov	r6,a
   1039 E4                 3734 	clr	a
   103A 3F                 3735 	addc	a,r7
   103B FF                 3736 	mov	r7,a
   103C 7D 00              3737 	mov	r5,#0x00
   103E 74 04              3738 	mov	a,#0x04
   1040 C0 E0              3739 	push	acc
   1042 E4                 3740 	clr	a
   1043 C0 E0              3741 	push	acc
   1045 74r00              3742 	mov	a,#_uip_hostaddr
   1047 C0 E0              3743 	push	acc
   1049 74s00              3744 	mov	a,#(_uip_hostaddr >> 8)
   104B C0 E0              3745 	push	acc
   104D E4                 3746 	clr	a
   104E C0 E0              3747 	push	acc
   1050 8E 82              3748 	mov	dpl,r6
   1052 8F 83              3749 	mov	dph,r7
   1054 8D F0              3750 	mov	b,r5
   1056 12s00r00           3751 	lcall	_memcpy
   1059 E5 81              3752 	mov	a,sp
   105B 24 FB              3753 	add	a,#0xfb
   105D F5 81              3754 	mov	sp,a
                           3755 ;	../../core/net/uip.c:1014: BUF->ttl = UIP_TTL;
   105F 7Er1A              3756 	mov	r6,#(_uip_aligned_buf + 0x000e)
   1061 7Fs00              3757 	mov	r7,#((_uip_aligned_buf + 0x000e) >> 8)
   1063 74 08              3758 	mov	a,#0x08
   1065 2E                 3759 	add	a,r6
   1066 F5 82              3760 	mov	dpl,a
   1068 E4                 3761 	clr	a
   1069 3F                 3762 	addc	a,r7
   106A F5 83              3763 	mov	dph,a
   106C 74 40              3764 	mov	a,#0x40
   106E F0                 3765 	movx	@dptr,a
                           3766 ;	../../core/net/uip.c:1015: goto ip_send_nolen;
   106F 02s30r57           3767 	ljmp	00386$
                           3768 ;	../../core/net/uip.c:1090: udp_input:
   1072                    3769 00180$:
                           3770 ;	../../core/net/uip.c:1105: uip_len = uip_len - UIP_IPUDPH_LEN;
   1072 90s00r7E           3771 	mov	dptr,#_uip_len
   1075 E0                 3772 	movx	a,@dptr
   1076 FE                 3773 	mov	r6,a
   1077 A3                 3774 	inc	dptr
   1078 E0                 3775 	movx	a,@dptr
   1079 FF                 3776 	mov	r7,a
   107A EE                 3777 	mov	a,r6
   107B 24 E4              3778 	add	a,#0xE4
   107D FE                 3779 	mov	r6,a
   107E EF                 3780 	mov	a,r7
   107F 34 FF              3781 	addc	a,#0xFF
   1081 FF                 3782 	mov	r7,a
   1082 90s00r7E           3783 	mov	dptr,#_uip_len
   1085 EE                 3784 	mov	a,r6
   1086 F0                 3785 	movx	@dptr,a
   1087 A3                 3786 	inc	dptr
   1088 EF                 3787 	mov	a,r7
   1089 F0                 3788 	movx	@dptr,a
                           3789 ;	../../core/net/uip.c:1109: if(UDPBUF->destport == 0) {
   108A 7Er1A              3790 	mov	r6,#(_uip_aligned_buf + 0x000e)
   108C 7Fs00              3791 	mov	r7,#((_uip_aligned_buf + 0x000e) >> 8)
   108E 74 16              3792 	mov	a,#0x16
   1090 2E                 3793 	add	a,r6
   1091 F5 82              3794 	mov	dpl,a
   1093 E4                 3795 	clr	a
   1094 3F                 3796 	addc	a,r7
   1095 F5 83              3797 	mov	dph,a
   1097 E0                 3798 	movx	a,@dptr
   1098 FE                 3799 	mov	r6,a
   1099 A3                 3800 	inc	dptr
   109A E0                 3801 	movx	a,@dptr
   109B FF                 3802 	mov	r7,a
   109C 4E                 3803 	orl	a,r6
   109D 70 03              3804 	jnz	00740$
   109F 02s30rFB           3805 	ljmp	00387$
   10A2                    3806 00740$:
                           3807 ;	../../core/net/uip.c:1115: for(uip_udp_conn = &uip_udp_conns[0];
   10A2 90s02r02           3808 	mov	dptr,#_uip_udp_conn
   10A5 74r05              3809 	mov	a,#_uip_udp_conns
   10A7 F0                 3810 	movx	@dptr,a
   10A8 A3                 3811 	inc	dptr
   10A9 74s02              3812 	mov	a,#(_uip_udp_conns >> 8)
   10AB F0                 3813 	movx	@dptr,a
   10AC A3                 3814 	inc	dptr
   10AD E4                 3815 	clr	a
   10AE F0                 3816 	movx	@dptr,a
   10AF                    3817 00388$:
                           3818 ;	../../core/net/uip.c:1116: uip_udp_conn < &uip_udp_conns[UIP_UDP_CONNS];
   10AF 90s02r02           3819 	mov	dptr,#_uip_udp_conn
   10B2 E0                 3820 	movx	a,@dptr
   10B3 FD                 3821 	mov	r5,a
   10B4 A3                 3822 	inc	dptr
   10B5 E0                 3823 	movx	a,@dptr
   10B6 FE                 3824 	mov	r6,a
   10B7 A3                 3825 	inc	dptr
   10B8 E0                 3826 	movx	a,@dptr
   10B9 FF                 3827 	mov	r7,a
   10BA 74r9B              3828 	mov	a,#(_uip_udp_conns + 0x0096)
   10BC C0 E0              3829 	push	acc
   10BE 74s02              3830 	mov	a,#((_uip_udp_conns + 0x0096) >> 8)
   10C0 C0 E0              3831 	push	acc
   10C2 E4                 3832 	clr	a
   10C3 C0 E0              3833 	push	acc
   10C5 8D 82              3834 	mov	dpl,r5
   10C7 8E 83              3835 	mov	dph,r6
   10C9 8F F0              3836 	mov	b,r7
   10CB 12s00r00           3837 	lcall	___gptr_cmp
   10CE 15 81              3838 	dec	sp
   10D0 15 81              3839 	dec	sp
   10D2 15 81              3840 	dec	sp
   10D4 40 03              3841 	jc	00741$
   10D6 02s30rFB           3842 	ljmp	00387$
   10D9                    3843 00741$:
                           3844 ;	../../core/net/uip.c:1125: if(uip_udp_conn->lport != 0 &&
   10D9 74 04              3845 	mov	a,#0x04
   10DB 2D                 3846 	add	a,r5
   10DC FA                 3847 	mov	r2,a
   10DD E4                 3848 	clr	a
   10DE 3E                 3849 	addc	a,r6
   10DF FB                 3850 	mov	r3,a
   10E0 8F 04              3851 	mov	ar4,r7
   10E2 8A 82              3852 	mov	dpl,r2
   10E4 8B 83              3853 	mov	dph,r3
   10E6 8C F0              3854 	mov	b,r4
   10E8 12s00r00           3855 	lcall	__gptrget
   10EB FB                 3856 	mov	r3,a
   10EC A3                 3857 	inc	dptr
   10ED 12s00r00           3858 	lcall	__gptrget
   10F0 FC                 3859 	mov	r4,a
   10F1 4B                 3860 	orl	a,r3
   10F2 70 03              3861 	jnz	00742$
   10F4 02s12rD4           3862 	ljmp	00390$
   10F7                    3863 00742$:
                           3864 ;	../../core/net/uip.c:1126: UDPBUF->destport == uip_udp_conn->lport &&
   10F7 C0 05              3865 	push	ar5
   10F9 C0 06              3866 	push	ar6
   10FB C0 07              3867 	push	ar7
   10FD 7Ar1A              3868 	mov	r2,#(_uip_aligned_buf + 0x000e)
   10FF 7Fs00              3869 	mov	r7,#((_uip_aligned_buf + 0x000e) >> 8)
   1101 74 16              3870 	mov	a,#0x16
   1103 2A                 3871 	add	a,r2
   1104 F5 82              3872 	mov	dpl,a
   1106 E4                 3873 	clr	a
   1107 3F                 3874 	addc	a,r7
   1108 F5 83              3875 	mov	dph,a
   110A E0                 3876 	movx	a,@dptr
   110B FE                 3877 	mov	r6,a
   110C A3                 3878 	inc	dptr
   110D E0                 3879 	movx	a,@dptr
   110E FF                 3880 	mov	r7,a
   110F EE                 3881 	mov	a,r6
   1110 B5 03 06           3882 	cjne	a,ar3,00743$
   1113 EF                 3883 	mov	a,r7
   1114 B5 04 02           3884 	cjne	a,ar4,00743$
   1117 80 09              3885 	sjmp	00744$
   1119                    3886 00743$:
   1119 D0 07              3887 	pop	ar7
   111B D0 06              3888 	pop	ar6
   111D D0 05              3889 	pop	ar5
   111F 02s12rD4           3890 	ljmp	00390$
   1122                    3891 00744$:
   1122 D0 07              3892 	pop	ar7
   1124 D0 06              3893 	pop	ar6
   1126 D0 05              3894 	pop	ar5
                           3895 ;	../../core/net/uip.c:1127: (uip_udp_conn->rport == 0 ||
   1128 74 06              3896 	mov	a,#0x06
   112A 2D                 3897 	add	a,r5
   112B FD                 3898 	mov	r5,a
   112C E4                 3899 	clr	a
   112D 3E                 3900 	addc	a,r6
   112E FE                 3901 	mov	r6,a
   112F 8D 82              3902 	mov	dpl,r5
   1131 8E 83              3903 	mov	dph,r6
   1133 8F F0              3904 	mov	b,r7
   1135 12s00r00           3905 	lcall	__gptrget
   1138 FE                 3906 	mov	r6,a
   1139 A3                 3907 	inc	dptr
   113A 12s00r00           3908 	lcall	__gptrget
   113D FF                 3909 	mov	r7,a
   113E 4E                 3910 	orl	a,r6
   113F 60 1F              3911 	jz	00193$
                           3912 ;	../../core/net/uip.c:1128: UDPBUF->srcport == uip_udp_conn->rport) &&
   1141 7Cr1A              3913 	mov	r4,#(_uip_aligned_buf + 0x000e)
   1143 7Ds00              3914 	mov	r5,#((_uip_aligned_buf + 0x000e) >> 8)
   1145 74 14              3915 	mov	a,#0x14
   1147 2C                 3916 	add	a,r4
   1148 F5 82              3917 	mov	dpl,a
   114A E4                 3918 	clr	a
   114B 3D                 3919 	addc	a,r5
   114C F5 83              3920 	mov	dph,a
   114E E0                 3921 	movx	a,@dptr
   114F FC                 3922 	mov	r4,a
   1150 A3                 3923 	inc	dptr
   1151 E0                 3924 	movx	a,@dptr
   1152 FD                 3925 	mov	r5,a
   1153 EC                 3926 	mov	a,r4
   1154 B5 06 06           3927 	cjne	a,ar6,00746$
   1157 ED                 3928 	mov	a,r5
   1158 B5 07 02           3929 	cjne	a,ar7,00746$
   115B 80 03              3930 	sjmp	00747$
   115D                    3931 00746$:
   115D 02s12rD4           3932 	ljmp	00390$
   1160                    3933 00747$:
   1160                    3934 00193$:
                           3935 ;	../../core/net/uip.c:1129: (uip_ipaddr_cmp(&uip_udp_conn->ripaddr, &uip_all_zeroes_addr) ||
   1160 90s02r02           3936 	mov	dptr,#_uip_udp_conn
   1163 E0                 3937 	movx	a,@dptr
   1164 FD                 3938 	mov	r5,a
   1165 A3                 3939 	inc	dptr
   1166 E0                 3940 	movx	a,@dptr
   1167 FE                 3941 	mov	r6,a
   1168 A3                 3942 	inc	dptr
   1169 E0                 3943 	movx	a,@dptr
   116A FF                 3944 	mov	r7,a
   116B 8D 02              3945 	mov	ar2,r5
   116D 8E 03              3946 	mov	ar3,r6
   116F 8F 04              3947 	mov	ar4,r7
   1171 8A 82              3948 	mov	dpl,r2
   1173 8B 83              3949 	mov	dph,r3
   1175 8C F0              3950 	mov	b,r4
   1177 E5*00              3951 	mov	a,_bp
   1179 24 08              3952 	add	a,#0x08
   117B F8                 3953 	mov	r0,a
   117C 12s00r00           3954 	lcall	__gptrget
   117F F6                 3955 	mov	@r0,a
   1180 A3                 3956 	inc	dptr
   1181 12s00r00           3957 	lcall	__gptrget
   1184 08                 3958 	inc	r0
   1185 F6                 3959 	mov	@r0,a
   1186 90s00r04           3960 	mov	dptr,#_uip_all_zeroes_addr
   1189 E4                 3961 	clr	a
   118A 93                 3962 	movc	a,@a+dptr
   118B FB                 3963 	mov	r3,a
   118C A3                 3964 	inc	dptr
   118D E4                 3965 	clr	a
   118E 93                 3966 	movc	a,@a+dptr
   118F FC                 3967 	mov	r4,a
   1190 E5*00              3968 	mov	a,_bp
   1192 24 08              3969 	add	a,#0x08
   1194 F8                 3970 	mov	r0,a
   1195 E6                 3971 	mov	a,@r0
   1196 B5 03 07           3972 	cjne	a,ar3,00748$
   1199 08                 3973 	inc	r0
   119A E6                 3974 	mov	a,@r0
   119B B5 04 02           3975 	cjne	a,ar4,00748$
   119E 80 02              3976 	sjmp	00749$
   11A0                    3977 00748$:
   11A0 80 3F              3978 	sjmp	00190$
   11A2                    3979 00749$:
   11A2 74 02              3980 	mov	a,#0x02
   11A4 2D                 3981 	add	a,r5
   11A5 FA                 3982 	mov	r2,a
   11A6 E4                 3983 	clr	a
   11A7 3E                 3984 	addc	a,r6
   11A8 FB                 3985 	mov	r3,a
   11A9 8F 04              3986 	mov	ar4,r7
   11AB 8A 82              3987 	mov	dpl,r2
   11AD 8B 83              3988 	mov	dph,r3
   11AF 8C F0              3989 	mov	b,r4
   11B1 12s00r00           3990 	lcall	__gptrget
   11B4 FA                 3991 	mov	r2,a
   11B5 A3                 3992 	inc	dptr
   11B6 12s00r00           3993 	lcall	__gptrget
   11B9 FB                 3994 	mov	r3,a
   11BA C0 05              3995 	push	ar5
   11BC C0 06              3996 	push	ar6
   11BE C0 07              3997 	push	ar7
   11C0 90s00r06           3998 	mov	dptr,#(_uip_all_zeroes_addr + 0x0002)
   11C3 E4                 3999 	clr	a
   11C4 93                 4000 	movc	a,@a+dptr
   11C5 FC                 4001 	mov	r4,a
   11C6 A3                 4002 	inc	dptr
   11C7 E4                 4003 	clr	a
   11C8 93                 4004 	movc	a,@a+dptr
   11C9 FF                 4005 	mov	r7,a
   11CA EA                 4006 	mov	a,r2
   11CB B5 04 0D           4007 	cjne	a,ar4,00750$
   11CE EB                 4008 	mov	a,r3
   11CF B5 07 09           4009 	cjne	a,ar7,00750$
   11D2 D0 07              4010 	pop	ar7
   11D4 D0 06              4011 	pop	ar6
   11D6 D0 05              4012 	pop	ar5
   11D8 02s12rE3           4013 	ljmp	00194$
   11DB                    4014 00750$:
   11DB D0 07              4015 	pop	ar7
   11DD D0 06              4016 	pop	ar6
   11DF D0 05              4017 	pop	ar5
   11E1                    4018 00190$:
                           4019 ;	../../core/net/uip.c:1130: uip_ipaddr_cmp(&uip_udp_conn->ripaddr, &uip_broadcast_addr) ||
   11E1 8D 02              4020 	mov	ar2,r5
   11E3 8E 03              4021 	mov	ar3,r6
   11E5 8F 04              4022 	mov	ar4,r7
   11E7 8A 82              4023 	mov	dpl,r2
   11E9 8B 83              4024 	mov	dph,r3
   11EB 8C F0              4025 	mov	b,r4
   11ED 12s00r00           4026 	lcall	__gptrget
   11F0 FA                 4027 	mov	r2,a
   11F1 A3                 4028 	inc	dptr
   11F2 12s00r00           4029 	lcall	__gptrget
   11F5 FB                 4030 	mov	r3,a
   11F6 C0 05              4031 	push	ar5
   11F8 C0 06              4032 	push	ar6
   11FA C0 07              4033 	push	ar7
   11FC 90s00r00           4034 	mov	dptr,#_uip_broadcast_addr
   11FF E4                 4035 	clr	a
   1200 93                 4036 	movc	a,@a+dptr
   1201 FC                 4037 	mov	r4,a
   1202 A3                 4038 	inc	dptr
   1203 E4                 4039 	clr	a
   1204 93                 4040 	movc	a,@a+dptr
   1205 FF                 4041 	mov	r7,a
   1206 EA                 4042 	mov	a,r2
   1207 B5 04 06           4043 	cjne	a,ar4,00751$
   120A EB                 4044 	mov	a,r3
   120B B5 07 02           4045 	cjne	a,ar7,00751$
   120E 80 08              4046 	sjmp	00752$
   1210                    4047 00751$:
   1210 D0 07              4048 	pop	ar7
   1212 D0 06              4049 	pop	ar6
   1214 D0 05              4050 	pop	ar5
   1216 80 45              4051 	sjmp	00192$
   1218                    4052 00752$:
   1218 D0 07              4053 	pop	ar7
   121A D0 06              4054 	pop	ar6
   121C D0 05              4055 	pop	ar5
   121E 74 02              4056 	mov	a,#0x02
   1220 2D                 4057 	add	a,r5
   1221 FA                 4058 	mov	r2,a
   1222 E4                 4059 	clr	a
   1223 3E                 4060 	addc	a,r6
   1224 FB                 4061 	mov	r3,a
   1225 8F 04              4062 	mov	ar4,r7
   1227 8A 82              4063 	mov	dpl,r2
   1229 8B 83              4064 	mov	dph,r3
   122B 8C F0              4065 	mov	b,r4
   122D 12s00r00           4066 	lcall	__gptrget
   1230 FA                 4067 	mov	r2,a
   1231 A3                 4068 	inc	dptr
   1232 12s00r00           4069 	lcall	__gptrget
   1235 FB                 4070 	mov	r3,a
   1236 C0 05              4071 	push	ar5
   1238 C0 06              4072 	push	ar6
   123A C0 07              4073 	push	ar7
   123C 90s00r02           4074 	mov	dptr,#(_uip_broadcast_addr + 0x0002)
   123F E4                 4075 	clr	a
   1240 93                 4076 	movc	a,@a+dptr
   1241 FC                 4077 	mov	r4,a
   1242 A3                 4078 	inc	dptr
   1243 E4                 4079 	clr	a
   1244 93                 4080 	movc	a,@a+dptr
   1245 FF                 4081 	mov	r7,a
   1246 EA                 4082 	mov	a,r2
   1247 B5 04 0D           4083 	cjne	a,ar4,00753$
   124A EB                 4084 	mov	a,r3
   124B B5 07 09           4085 	cjne	a,ar7,00753$
   124E D0 07              4086 	pop	ar7
   1250 D0 06              4087 	pop	ar6
   1252 D0 05              4088 	pop	ar5
   1254 02s12rE3           4089 	ljmp	00194$
   1257                    4090 00753$:
   1257 D0 07              4091 	pop	ar7
   1259 D0 06              4092 	pop	ar6
   125B D0 05              4093 	pop	ar5
   125D                    4094 00192$:
                           4095 ;	../../core/net/uip.c:1131: uip_ipaddr_cmp(&BUF->srcipaddr, &uip_udp_conn->ripaddr))) {
   125D 7Br1A              4096 	mov	r3,#(_uip_aligned_buf + 0x000e)
   125F 7Cs00              4097 	mov	r4,#((_uip_aligned_buf + 0x000e) >> 8)
   1261 74 0C              4098 	mov	a,#0x0C
   1263 2B                 4099 	add	a,r3
   1264 F5 82              4100 	mov	dpl,a
   1266 E4                 4101 	clr	a
   1267 3C                 4102 	addc	a,r4
   1268 F5 83              4103 	mov	dph,a
   126A 8D 02              4104 	mov	ar2,r5
   126C 8E 03              4105 	mov	ar3,r6
   126E 8F 04              4106 	mov	ar4,r7
   1270 C0 05              4107 	push	ar5
   1272 C0 06              4108 	push	ar6
   1274 C0 07              4109 	push	ar7
   1276 E0                 4110 	movx	a,@dptr
   1277 FE                 4111 	mov	r6,a
   1278 A3                 4112 	inc	dptr
   1279 E0                 4113 	movx	a,@dptr
   127A FF                 4114 	mov	r7,a
   127B 8A 82              4115 	mov	dpl,r2
   127D 8B 83              4116 	mov	dph,r3
   127F 8C F0              4117 	mov	b,r4
   1281 12s00r00           4118 	lcall	__gptrget
   1284 FA                 4119 	mov	r2,a
   1285 A3                 4120 	inc	dptr
   1286 12s00r00           4121 	lcall	__gptrget
   1289 FB                 4122 	mov	r3,a
   128A EE                 4123 	mov	a,r6
   128B B5 02 06           4124 	cjne	a,ar2,00754$
   128E EF                 4125 	mov	a,r7
   128F B5 03 02           4126 	cjne	a,ar3,00754$
   1292 80 08              4127 	sjmp	00755$
   1294                    4128 00754$:
   1294 D0 07              4129 	pop	ar7
   1296 D0 06              4130 	pop	ar6
   1298 D0 05              4131 	pop	ar5
   129A 80 38              4132 	sjmp	00390$
   129C                    4133 00755$:
   129C D0 07              4134 	pop	ar7
   129E D0 06              4135 	pop	ar6
   12A0 D0 05              4136 	pop	ar5
   12A2 7Br1A              4137 	mov	r3,#(_uip_aligned_buf + 0x000e)
   12A4 7Cs00              4138 	mov	r4,#((_uip_aligned_buf + 0x000e) >> 8)
   12A6 74 0E              4139 	mov	a,#0x0E
   12A8 2B                 4140 	add	a,r3
   12A9 F5 82              4141 	mov	dpl,a
   12AB E4                 4142 	clr	a
   12AC 3C                 4143 	addc	a,r4
   12AD F5 83              4144 	mov	dph,a
   12AF 74 02              4145 	mov	a,#0x02
   12B1 2D                 4146 	add	a,r5
   12B2 FD                 4147 	mov	r5,a
   12B3 E4                 4148 	clr	a
   12B4 3E                 4149 	addc	a,r6
   12B5 FE                 4150 	mov	r6,a
   12B6 E0                 4151 	movx	a,@dptr
   12B7 FB                 4152 	mov	r3,a
   12B8 A3                 4153 	inc	dptr
   12B9 E0                 4154 	movx	a,@dptr
   12BA FC                 4155 	mov	r4,a
   12BB 8D 82              4156 	mov	dpl,r5
   12BD 8E 83              4157 	mov	dph,r6
   12BF 8F F0              4158 	mov	b,r7
   12C1 12s00r00           4159 	lcall	__gptrget
   12C4 FD                 4160 	mov	r5,a
   12C5 A3                 4161 	inc	dptr
   12C6 12s00r00           4162 	lcall	__gptrget
   12C9 FE                 4163 	mov	r6,a
   12CA EB                 4164 	mov	a,r3
   12CB B5 05 06           4165 	cjne	a,ar5,00756$
   12CE EC                 4166 	mov	a,r4
   12CF B5 06 02           4167 	cjne	a,ar6,00756$
   12D2 80 0F              4168 	sjmp	00194$
   12D4                    4169 00756$:
                           4170 ;	../../core/net/uip.c:1132: goto udp_found;
   12D4                    4171 00390$:
                           4172 ;	../../core/net/uip.c:1117: ++uip_udp_conn) {
   12D4 90s02r02           4173 	mov	dptr,#_uip_udp_conn
   12D7 E0                 4174 	movx	a,@dptr
   12D8 24 0F              4175 	add	a,#0x0F
   12DA F0                 4176 	movx	@dptr,a
   12DB A3                 4177 	inc	dptr
   12DC E0                 4178 	movx	a,@dptr
   12DD 34 00              4179 	addc	a,#0x00
   12DF F0                 4180 	movx	@dptr,a
   12E0 02s10rAF           4181 	ljmp	00388$
                           4182 ;	../../core/net/uip.c:1168: udp_found:
   12E3                    4183 00194$:
                           4184 ;	../../core/net/uip.c:1169: uip_conn = NULL;
   12E3 90s00r83           4185 	mov	dptr,#_uip_conn
   12E6 E4                 4186 	clr	a
   12E7 F0                 4187 	movx	@dptr,a
   12E8 A3                 4188 	inc	dptr
   12E9 F0                 4189 	movx	@dptr,a
   12EA A3                 4190 	inc	dptr
   12EB F0                 4191 	movx	@dptr,a
                           4192 ;	../../core/net/uip.c:1170: uip_flags = UIP_NEWDATA;
   12EC 90s00r82           4193 	mov	dptr,#_uip_flags
   12EF 74 02              4194 	mov	a,#0x02
   12F1 F0                 4195 	movx	@dptr,a
                           4196 ;	../../core/net/uip.c:1171: uip_sappdata = uip_appdata = &uip_buf[UIP_LLH_LEN + UIP_IPUDPH_LEN];
   12F2 90s00r78           4197 	mov	dptr,#_uip_appdata
   12F5 74r36              4198 	mov	a,#(_uip_aligned_buf + 0x002a)
   12F7 F0                 4199 	movx	@dptr,a
   12F8 A3                 4200 	inc	dptr
   12F9 74s00              4201 	mov	a,#((_uip_aligned_buf + 0x002a) >> 8)
   12FB F0                 4202 	movx	@dptr,a
   12FC A3                 4203 	inc	dptr
   12FD E4                 4204 	clr	a
   12FE F0                 4205 	movx	@dptr,a
   12FF 90s00r7B           4206 	mov	dptr,#_uip_sappdata
   1302 74r36              4207 	mov	a,#(_uip_aligned_buf + 0x002a)
   1304 F0                 4208 	movx	@dptr,a
   1305 A3                 4209 	inc	dptr
   1306 74s00              4210 	mov	a,#((_uip_aligned_buf + 0x002a) >> 8)
   1308 F0                 4211 	movx	@dptr,a
   1309 A3                 4212 	inc	dptr
                           4213 ;	../../core/net/uip.c:1172: uip_slen = 0;
   130A E4                 4214 	clr	a
   130B F0                 4215 	movx	@dptr,a
   130C 90s00r80           4216 	mov	dptr,#_uip_slen
   130F F0                 4217 	movx	@dptr,a
   1310 A3                 4218 	inc	dptr
   1311 E4                 4219 	clr	a
   1312 F0                 4220 	movx	@dptr,a
                           4221 ;	../../core/net/uip.c:1173: UIP_UDP_APPCALL();
   1313 12s00r00           4222 	lcall	_tcpip_uipcall
                           4223 ;	../../core/net/uip.c:1175: udp_send:
   1316                    4224 00195$:
                           4225 ;	../../core/net/uip.c:1176: if(uip_slen == 0) {
   1316 90s00r80           4226 	mov	dptr,#_uip_slen
   1319 E5*00              4227 	mov	a,_bp
   131B 24 05              4228 	add	a,#0x05
   131D F8                 4229 	mov	r0,a
   131E E0                 4230 	movx	a,@dptr
   131F F6                 4231 	mov	@r0,a
   1320 A3                 4232 	inc	dptr
   1321 E0                 4233 	movx	a,@dptr
   1322 08                 4234 	inc	r0
   1323 F6                 4235 	mov	@r0,a
   1324 E5*00              4236 	mov	a,_bp
   1326 24 05              4237 	add	a,#0x05
   1328 F8                 4238 	mov	r0,a
   1329 E6                 4239 	mov	a,@r0
   132A 08                 4240 	inc	r0
   132B 46                 4241 	orl	a,@r0
   132C 70 03              4242 	jnz	00757$
   132E 02s30rFB           4243 	ljmp	00387$
   1331                    4244 00757$:
                           4245 ;	../../core/net/uip.c:1179: uip_len = uip_slen + UIP_IPUDPH_LEN;
   1331 E5*00              4246 	mov	a,_bp
   1333 24 05              4247 	add	a,#0x05
   1335 F8                 4248 	mov	r0,a
   1336 74 1C              4249 	mov	a,#0x1C
   1338 26                 4250 	add	a,@r0
   1339 FC                 4251 	mov	r4,a
   133A E4                 4252 	clr	a
   133B 08                 4253 	inc	r0
   133C 36                 4254 	addc	a,@r0
   133D FD                 4255 	mov	r5,a
   133E 90s00r7E           4256 	mov	dptr,#_uip_len
   1341 EC                 4257 	mov	a,r4
   1342 F0                 4258 	movx	@dptr,a
   1343 A3                 4259 	inc	dptr
   1344 ED                 4260 	mov	a,r5
   1345 F0                 4261 	movx	@dptr,a
                           4262 ;	../../core/net/uip.c:1187: BUF->len[0] = (uip_len >> 8);
   1346 7Ar1A              4263 	mov	r2,#(_uip_aligned_buf + 0x000e)
   1348 7Bs00              4264 	mov	r3,#((_uip_aligned_buf + 0x000e) >> 8)
   134A 8A 82              4265 	mov	dpl,r2
   134C 8B 83              4266 	mov	dph,r3
   134E A3                 4267 	inc	dptr
   134F A3                 4268 	inc	dptr
   1350 8D 03              4269 	mov	ar3,r5
   1352 EB                 4270 	mov	a,r3
   1353 F0                 4271 	movx	@dptr,a
                           4272 ;	../../core/net/uip.c:1188: BUF->len[1] = (uip_len & 0xff);
   1354 7Ar1A              4273 	mov	r2,#(_uip_aligned_buf + 0x000e)
   1356 7Bs00              4274 	mov	r3,#((_uip_aligned_buf + 0x000e) >> 8)
   1358 8A 82              4275 	mov	dpl,r2
   135A 8B 83              4276 	mov	dph,r3
   135C A3                 4277 	inc	dptr
   135D A3                 4278 	inc	dptr
   135E A3                 4279 	inc	dptr
   135F EC                 4280 	mov	a,r4
   1360 F0                 4281 	movx	@dptr,a
                           4282 ;	../../core/net/uip.c:1191: BUF->ttl = uip_udp_conn->ttl;
   1361 7Cr1A              4283 	mov	r4,#(_uip_aligned_buf + 0x000e)
   1363 7Ds00              4284 	mov	r5,#((_uip_aligned_buf + 0x000e) >> 8)
   1365 E5*00              4285 	mov	a,_bp
   1367 24 08              4286 	add	a,#0x08
   1369 F8                 4287 	mov	r0,a
   136A 74 08              4288 	mov	a,#0x08
   136C 2C                 4289 	add	a,r4
   136D F6                 4290 	mov	@r0,a
   136E E4                 4291 	clr	a
   136F 3D                 4292 	addc	a,r5
   1370 08                 4293 	inc	r0
   1371 F6                 4294 	mov	@r0,a
   1372 90s02r02           4295 	mov	dptr,#_uip_udp_conn
   1375 E0                 4296 	movx	a,@dptr
   1376 FA                 4297 	mov	r2,a
   1377 A3                 4298 	inc	dptr
   1378 E0                 4299 	movx	a,@dptr
   1379 FB                 4300 	mov	r3,a
   137A A3                 4301 	inc	dptr
   137B E0                 4302 	movx	a,@dptr
   137C FD                 4303 	mov	r5,a
   137D 74 08              4304 	mov	a,#0x08
   137F 2A                 4305 	add	a,r2
   1380 FC                 4306 	mov	r4,a
   1381 E4                 4307 	clr	a
   1382 3B                 4308 	addc	a,r3
   1383 FE                 4309 	mov	r6,a
   1384 8D 07              4310 	mov	ar7,r5
   1386 8C 82              4311 	mov	dpl,r4
   1388 8E 83              4312 	mov	dph,r6
   138A 8F F0              4313 	mov	b,r7
   138C 12s00r00           4314 	lcall	__gptrget
   138F FC                 4315 	mov	r4,a
   1390 E5*00              4316 	mov	a,_bp
   1392 24 08              4317 	add	a,#0x08
   1394 F8                 4318 	mov	r0,a
   1395 86 82              4319 	mov	dpl,@r0
   1397 08                 4320 	inc	r0
   1398 86 83              4321 	mov	dph,@r0
   139A EC                 4322 	mov	a,r4
   139B F0                 4323 	movx	@dptr,a
                           4324 ;	../../core/net/uip.c:1192: BUF->proto = UIP_PROTO_UDP;
   139C 7Er1A              4325 	mov	r6,#(_uip_aligned_buf + 0x000e)
   139E 7Fs00              4326 	mov	r7,#((_uip_aligned_buf + 0x000e) >> 8)
   13A0 74 09              4327 	mov	a,#0x09
   13A2 2E                 4328 	add	a,r6
   13A3 F5 82              4329 	mov	dpl,a
   13A5 E4                 4330 	clr	a
   13A6 3F                 4331 	addc	a,r7
   13A7 F5 83              4332 	mov	dph,a
   13A9 74 11              4333 	mov	a,#0x11
   13AB F0                 4334 	movx	@dptr,a
                           4335 ;	../../core/net/uip.c:1194: UDPBUF->udplen = UIP_HTONS(uip_slen + UIP_UDPH_LEN);
   13AC 7Er1A              4336 	mov	r6,#(_uip_aligned_buf + 0x000e)
   13AE 7Fs00              4337 	mov	r7,#((_uip_aligned_buf + 0x000e) >> 8)
   13B0 74 18              4338 	mov	a,#0x18
   13B2 2E                 4339 	add	a,r6
   13B3 F5 82              4340 	mov	dpl,a
   13B5 E4                 4341 	clr	a
   13B6 3F                 4342 	addc	a,r7
   13B7 F5 83              4343 	mov	dph,a
   13B9 E5*00              4344 	mov	a,_bp
   13BB 24 05              4345 	add	a,#0x05
   13BD F8                 4346 	mov	r0,a
   13BE 74 08              4347 	mov	a,#0x08
   13C0 26                 4348 	add	a,@r0
   13C1 FE                 4349 	mov	r6,a
   13C2 E4                 4350 	clr	a
   13C3 08                 4351 	inc	r0
   13C4 36                 4352 	addc	a,@r0
   13C5 FF                 4353 	mov	r7,a
   13C6 E5*00              4354 	mov	a,_bp
   13C8 24 05              4355 	add	a,#0x05
   13CA F8                 4356 	mov	r0,a
   13CB 08                 4357 	inc	r0
   13CC A6 06              4358 	mov	@r0,ar6
   13CE 18                 4359 	dec	r0
   13CF 76 00              4360 	mov	@r0,#0x00
   13D1 8F 06              4361 	mov	ar6,r7
   13D3 7F 00              4362 	mov	r7,#0x00
   13D5 E5*00              4363 	mov	a,_bp
   13D7 24 05              4364 	add	a,#0x05
   13D9 F8                 4365 	mov	r0,a
   13DA E6                 4366 	mov	a,@r0
   13DB 42 06              4367 	orl	ar6,a
   13DD 08                 4368 	inc	r0
   13DE E6                 4369 	mov	a,@r0
   13DF 42 07              4370 	orl	ar7,a
   13E1 EE                 4371 	mov	a,r6
   13E2 F0                 4372 	movx	@dptr,a
   13E3 A3                 4373 	inc	dptr
   13E4 EF                 4374 	mov	a,r7
   13E5 F0                 4375 	movx	@dptr,a
                           4376 ;	../../core/net/uip.c:1195: UDPBUF->udpchksum = 0;
   13E6 7Er1A              4377 	mov	r6,#(_uip_aligned_buf + 0x000e)
   13E8 7Fs00              4378 	mov	r7,#((_uip_aligned_buf + 0x000e) >> 8)
   13EA 74 1A              4379 	mov	a,#0x1A
   13EC 2E                 4380 	add	a,r6
   13ED F5 82              4381 	mov	dpl,a
   13EF E4                 4382 	clr	a
   13F0 3F                 4383 	addc	a,r7
   13F1 F5 83              4384 	mov	dph,a
   13F3 E4                 4385 	clr	a
   13F4 F0                 4386 	movx	@dptr,a
   13F5 A3                 4387 	inc	dptr
   13F6 F0                 4388 	movx	@dptr,a
                           4389 ;	../../core/net/uip.c:1197: BUF->srcport  = uip_udp_conn->lport;
   13F7 7Er1A              4390 	mov	r6,#(_uip_aligned_buf + 0x000e)
   13F9 7Fs00              4391 	mov	r7,#((_uip_aligned_buf + 0x000e) >> 8)
   13FB E5*00              4392 	mov	a,_bp
   13FD 24 08              4393 	add	a,#0x08
   13FF F8                 4394 	mov	r0,a
   1400 74 14              4395 	mov	a,#0x14
   1402 2E                 4396 	add	a,r6
   1403 F6                 4397 	mov	@r0,a
   1404 E4                 4398 	clr	a
   1405 3F                 4399 	addc	a,r7
   1406 08                 4400 	inc	r0
   1407 F6                 4401 	mov	@r0,a
   1408 74 04              4402 	mov	a,#0x04
   140A 2A                 4403 	add	a,r2
   140B FC                 4404 	mov	r4,a
   140C E4                 4405 	clr	a
   140D 3B                 4406 	addc	a,r3
   140E FE                 4407 	mov	r6,a
   140F 8D 07              4408 	mov	ar7,r5
   1411 8C 82              4409 	mov	dpl,r4
   1413 8E 83              4410 	mov	dph,r6
   1415 8F F0              4411 	mov	b,r7
   1417 12s00r00           4412 	lcall	__gptrget
   141A FC                 4413 	mov	r4,a
   141B A3                 4414 	inc	dptr
   141C 12s00r00           4415 	lcall	__gptrget
   141F FE                 4416 	mov	r6,a
   1420 E5*00              4417 	mov	a,_bp
   1422 24 08              4418 	add	a,#0x08
   1424 F8                 4419 	mov	r0,a
   1425 86 82              4420 	mov	dpl,@r0
   1427 08                 4421 	inc	r0
   1428 86 83              4422 	mov	dph,@r0
   142A EC                 4423 	mov	a,r4
   142B F0                 4424 	movx	@dptr,a
   142C A3                 4425 	inc	dptr
   142D EE                 4426 	mov	a,r6
   142E F0                 4427 	movx	@dptr,a
                           4428 ;	../../core/net/uip.c:1198: BUF->destport = uip_udp_conn->rport;
   142F 7Er1A              4429 	mov	r6,#(_uip_aligned_buf + 0x000e)
   1431 7Fs00              4430 	mov	r7,#((_uip_aligned_buf + 0x000e) >> 8)
   1433 74 16              4431 	mov	a,#0x16
   1435 2E                 4432 	add	a,r6
   1436 FE                 4433 	mov	r6,a
   1437 E4                 4434 	clr	a
   1438 3F                 4435 	addc	a,r7
   1439 FF                 4436 	mov	r7,a
   143A 74 06              4437 	mov	a,#0x06
   143C 2A                 4438 	add	a,r2
   143D FA                 4439 	mov	r2,a
   143E E4                 4440 	clr	a
   143F 3B                 4441 	addc	a,r3
   1440 FB                 4442 	mov	r3,a
   1441 8A 82              4443 	mov	dpl,r2
   1443 8B 83              4444 	mov	dph,r3
   1445 8D F0              4445 	mov	b,r5
   1447 12s00r00           4446 	lcall	__gptrget
   144A FA                 4447 	mov	r2,a
   144B A3                 4448 	inc	dptr
   144C 12s00r00           4449 	lcall	__gptrget
   144F FB                 4450 	mov	r3,a
   1450 8E 82              4451 	mov	dpl,r6
   1452 8F 83              4452 	mov	dph,r7
   1454 EA                 4453 	mov	a,r2
   1455 F0                 4454 	movx	@dptr,a
   1456 A3                 4455 	inc	dptr
   1457 EB                 4456 	mov	a,r3
   1458 F0                 4457 	movx	@dptr,a
                           4458 ;	../../core/net/uip.c:1200: uip_ipaddr_copy(&BUF->srcipaddr, &uip_hostaddr);
   1459 7Er1A              4459 	mov	r6,#(_uip_aligned_buf + 0x000e)
   145B 7Fs00              4460 	mov	r7,#((_uip_aligned_buf + 0x000e) >> 8)
   145D 74 0C              4461 	mov	a,#0x0C
   145F 2E                 4462 	add	a,r6
   1460 FE                 4463 	mov	r6,a
   1461 E4                 4464 	clr	a
   1462 3F                 4465 	addc	a,r7
   1463 FF                 4466 	mov	r7,a
   1464 7D 00              4467 	mov	r5,#0x00
   1466 74 04              4468 	mov	a,#0x04
   1468 C0 E0              4469 	push	acc
   146A E4                 4470 	clr	a
   146B C0 E0              4471 	push	acc
   146D 74r00              4472 	mov	a,#_uip_hostaddr
   146F C0 E0              4473 	push	acc
   1471 74s00              4474 	mov	a,#(_uip_hostaddr >> 8)
   1473 C0 E0              4475 	push	acc
   1475 E4                 4476 	clr	a
   1476 C0 E0              4477 	push	acc
   1478 8E 82              4478 	mov	dpl,r6
   147A 8F 83              4479 	mov	dph,r7
   147C 8D F0              4480 	mov	b,r5
   147E 12s00r00           4481 	lcall	_memcpy
   1481 E5 81              4482 	mov	a,sp
   1483 24 FB              4483 	add	a,#0xfb
   1485 F5 81              4484 	mov	sp,a
                           4485 ;	../../core/net/uip.c:1201: uip_ipaddr_copy(&BUF->destipaddr, &uip_udp_conn->ripaddr);
   1487 90s02r02           4486 	mov	dptr,#_uip_udp_conn
   148A E0                 4487 	movx	a,@dptr
   148B FD                 4488 	mov	r5,a
   148C A3                 4489 	inc	dptr
   148D E0                 4490 	movx	a,@dptr
   148E FE                 4491 	mov	r6,a
   148F A3                 4492 	inc	dptr
   1490 E0                 4493 	movx	a,@dptr
   1491 FF                 4494 	mov	r7,a
   1492 7Br1A              4495 	mov	r3,#(_uip_aligned_buf + 0x000e)
   1494 7Cs00              4496 	mov	r4,#((_uip_aligned_buf + 0x000e) >> 8)
   1496 74 10              4497 	mov	a,#0x10
   1498 2B                 4498 	add	a,r3
   1499 FB                 4499 	mov	r3,a
   149A E4                 4500 	clr	a
   149B 3C                 4501 	addc	a,r4
   149C FC                 4502 	mov	r4,a
   149D 7A 00              4503 	mov	r2,#0x00
   149F 74 04              4504 	mov	a,#0x04
   14A1 C0 E0              4505 	push	acc
   14A3 E4                 4506 	clr	a
   14A4 C0 E0              4507 	push	acc
   14A6 C0 05              4508 	push	ar5
   14A8 C0 06              4509 	push	ar6
   14AA C0 07              4510 	push	ar7
   14AC 8B 82              4511 	mov	dpl,r3
   14AE 8C 83              4512 	mov	dph,r4
   14B0 8A F0              4513 	mov	b,r2
   14B2 12s00r00           4514 	lcall	_memcpy
   14B5 E5 81              4515 	mov	a,sp
   14B7 24 FB              4516 	add	a,#0xfb
   14B9 F5 81              4517 	mov	sp,a
                           4518 ;	../../core/net/uip.c:1203: uip_appdata = &uip_buf[UIP_LLH_LEN + UIP_IPTCPH_LEN];
   14BB 90s00r78           4519 	mov	dptr,#_uip_appdata
   14BE 74r42              4520 	mov	a,#(_uip_aligned_buf + 0x0036)
   14C0 F0                 4521 	movx	@dptr,a
   14C1 A3                 4522 	inc	dptr
   14C2 74s00              4523 	mov	a,#((_uip_aligned_buf + 0x0036) >> 8)
   14C4 F0                 4524 	movx	@dptr,a
   14C5 A3                 4525 	inc	dptr
   14C6 E4                 4526 	clr	a
   14C7 F0                 4527 	movx	@dptr,a
                           4528 ;	../../core/net/uip.c:1213: goto ip_send_nolen;
   14C8 02s30r57           4529 	ljmp	00386$
                           4530 ;	../../core/net/uip.c:1217: tcp_input:
   14CB                    4531 00198$:
                           4532 ;	../../core/net/uip.c:1222: if(uip_tcpchksum() != 0xffff) {   /* Compute and check the TCP
   14CB 12s03r56           4533 	lcall	_uip_tcpchksum
   14CE AE 82              4534 	mov	r6,dpl
   14D0 AF 83              4535 	mov	r7,dph
   14D2 BE FF 05           4536 	cjne	r6,#0xFF,00758$
   14D5 BF FF 02           4537 	cjne	r7,#0xFF,00758$
   14D8 80 03              4538 	sjmp	00759$
   14DA                    4539 00758$:
   14DA 02s30rFB           4540 	ljmp	00387$
   14DD                    4541 00759$:
                           4542 ;	../../core/net/uip.c:1231: if(BUF->destport == 0 || BUF->srcport == 0) {
   14DD 7Er1A              4543 	mov	r6,#(_uip_aligned_buf + 0x000e)
   14DF 7Fs00              4544 	mov	r7,#((_uip_aligned_buf + 0x000e) >> 8)
   14E1 74 16              4545 	mov	a,#0x16
   14E3 2E                 4546 	add	a,r6
   14E4 F5 82              4547 	mov	dpl,a
   14E6 E4                 4548 	clr	a
   14E7 3F                 4549 	addc	a,r7
   14E8 F5 83              4550 	mov	dph,a
   14EA E0                 4551 	movx	a,@dptr
   14EB FE                 4552 	mov	r6,a
   14EC A3                 4553 	inc	dptr
   14ED E0                 4554 	movx	a,@dptr
   14EE FF                 4555 	mov	r7,a
   14EF 4E                 4556 	orl	a,r6
   14F0 70 03              4557 	jnz	00760$
   14F2 02s30rFB           4558 	ljmp	00387$
   14F5                    4559 00760$:
   14F5 7Er1A              4560 	mov	r6,#(_uip_aligned_buf + 0x000e)
   14F7 7Fs00              4561 	mov	r7,#((_uip_aligned_buf + 0x000e) >> 8)
   14F9 74 14              4562 	mov	a,#0x14
   14FB 2E                 4563 	add	a,r6
   14FC F5 82              4564 	mov	dpl,a
   14FE E4                 4565 	clr	a
   14FF 3F                 4566 	addc	a,r7
   1500 F5 83              4567 	mov	dph,a
   1502 E0                 4568 	movx	a,@dptr
   1503 FE                 4569 	mov	r6,a
   1504 A3                 4570 	inc	dptr
   1505 E0                 4571 	movx	a,@dptr
   1506 FF                 4572 	mov	r7,a
   1507 4E                 4573 	orl	a,r6
   1508 70 03              4574 	jnz	00761$
   150A 02s30rFB           4575 	ljmp	00387$
   150D                    4576 00761$:
                           4577 ;	../../core/net/uip.c:1238: for(uip_connr = &uip_conns[0]; uip_connr <= &uip_conns[UIP_CONNS - 1];
   150D A8*00              4578 	mov	r0,_bp
   150F 08                 4579 	inc	r0
   1510 76r86              4580 	mov	@r0,#_uip_conns
   1512 08                 4581 	inc	r0
   1513 76s00              4582 	mov	@r0,#(_uip_conns >> 8)
   1515 08                 4583 	inc	r0
   1516 76 00              4584 	mov	@r0,#0x00
   1518 A8*00              4585 	mov	r0,_bp
   151A 08                 4586 	inc	r0
   151B 86 05              4587 	mov	ar5,@r0
   151D 08                 4588 	inc	r0
   151E 86 06              4589 	mov	ar6,@r0
   1520 08                 4590 	inc	r0
   1521 86 07              4591 	mov	ar7,@r0
   1523                    4592 00392$:
   1523 C0 05              4593 	push	ar5
   1525 C0 06              4594 	push	ar6
   1527 C0 07              4595 	push	ar7
   1529 90s01rB8           4596 	mov	dptr,#(_uip_conns + 0x0132)
   152C 75 F0 00           4597 	mov	b,#0x00
   152F 12s00r00           4598 	lcall	___gptr_cmp
   1532 15 81              4599 	dec	sp
   1534 15 81              4600 	dec	sp
   1536 15 81              4601 	dec	sp
   1538 50 03              4602 	jnc	00762$
   153A 02s16rB5           4603 	ljmp	00395$
   153D                    4604 00762$:
                           4605 ;	../../core/net/uip.c:1240: if(uip_connr->tcpstateflags != UIP_CLOSED &&
   153D 74 19              4606 	mov	a,#0x19
   153F 2D                 4607 	add	a,r5
   1540 FA                 4608 	mov	r2,a
   1541 E4                 4609 	clr	a
   1542 3E                 4610 	addc	a,r6
   1543 FB                 4611 	mov	r3,a
   1544 8F 04              4612 	mov	ar4,r7
   1546 8A 82              4613 	mov	dpl,r2
   1548 8B 83              4614 	mov	dph,r3
   154A 8C F0              4615 	mov	b,r4
   154C E5*00              4616 	mov	a,_bp
   154E 24 08              4617 	add	a,#0x08
   1550 F8                 4618 	mov	r0,a
   1551 12s00r00           4619 	lcall	__gptrget
   1554 F6                 4620 	mov	@r0,a
   1555 E5*00              4621 	mov	a,_bp
   1557 24 08              4622 	add	a,#0x08
   1559 F8                 4623 	mov	r0,a
   155A E6                 4624 	mov	a,@r0
   155B 70 03              4625 	jnz	00763$
   155D 02s16rA0           4626 	ljmp	00394$
   1560                    4627 00763$:
                           4628 ;	../../core/net/uip.c:1241: BUF->destport == uip_connr->lport &&
   1560 C0 02              4629 	push	ar2
   1562 C0 03              4630 	push	ar3
   1564 C0 04              4631 	push	ar4
   1566 7Br1A              4632 	mov	r3,#(_uip_aligned_buf + 0x000e)
   1568 7Cs00              4633 	mov	r4,#((_uip_aligned_buf + 0x000e) >> 8)
   156A 74 16              4634 	mov	a,#0x16
   156C 2B                 4635 	add	a,r3
   156D F5 82              4636 	mov	dpl,a
   156F E4                 4637 	clr	a
   1570 3C                 4638 	addc	a,r4
   1571 F5 83              4639 	mov	dph,a
   1573 E5*00              4640 	mov	a,_bp
   1575 24 05              4641 	add	a,#0x05
   1577 F8                 4642 	mov	r0,a
   1578 E0                 4643 	movx	a,@dptr
   1579 F6                 4644 	mov	@r0,a
   157A A3                 4645 	inc	dptr
   157B E0                 4646 	movx	a,@dptr
   157C 08                 4647 	inc	r0
   157D F6                 4648 	mov	@r0,a
   157E 74 04              4649 	mov	a,#0x04
   1580 2D                 4650 	add	a,r5
   1581 FA                 4651 	mov	r2,a
   1582 E4                 4652 	clr	a
   1583 3E                 4653 	addc	a,r6
   1584 FB                 4654 	mov	r3,a
   1585 8F 04              4655 	mov	ar4,r7
   1587 8A 82              4656 	mov	dpl,r2
   1589 8B 83              4657 	mov	dph,r3
   158B 8C F0              4658 	mov	b,r4
   158D 12s00r00           4659 	lcall	__gptrget
   1590 FA                 4660 	mov	r2,a
   1591 A3                 4661 	inc	dptr
   1592 12s00r00           4662 	lcall	__gptrget
   1595 FB                 4663 	mov	r3,a
   1596 E5*00              4664 	mov	a,_bp
   1598 24 05              4665 	add	a,#0x05
   159A F8                 4666 	mov	r0,a
   159B E6                 4667 	mov	a,@r0
   159C B5 02 07           4668 	cjne	a,ar2,00764$
   159F 08                 4669 	inc	r0
   15A0 E6                 4670 	mov	a,@r0
   15A1 B5 03 02           4671 	cjne	a,ar3,00764$
   15A4 80 09              4672 	sjmp	00765$
   15A6                    4673 00764$:
   15A6 D0 04              4674 	pop	ar4
   15A8 D0 03              4675 	pop	ar3
   15AA D0 02              4676 	pop	ar2
   15AC 02s16rA0           4677 	ljmp	00394$
   15AF                    4678 00765$:
                           4679 ;	../../core/net/uip.c:1242: BUF->srcport == uip_connr->rport &&
   15AF 7Br1A              4680 	mov	r3,#(_uip_aligned_buf + 0x000e)
   15B1 7Cs00              4681 	mov	r4,#((_uip_aligned_buf + 0x000e) >> 8)
   15B3 74 14              4682 	mov	a,#0x14
   15B5 2B                 4683 	add	a,r3
   15B6 F5 82              4684 	mov	dpl,a
   15B8 E4                 4685 	clr	a
   15B9 3C                 4686 	addc	a,r4
   15BA F5 83              4687 	mov	dph,a
   15BC E5*00              4688 	mov	a,_bp
   15BE 24 05              4689 	add	a,#0x05
   15C0 F8                 4690 	mov	r0,a
   15C1 E0                 4691 	movx	a,@dptr
   15C2 F6                 4692 	mov	@r0,a
   15C3 A3                 4693 	inc	dptr
   15C4 E0                 4694 	movx	a,@dptr
   15C5 08                 4695 	inc	r0
   15C6 F6                 4696 	mov	@r0,a
   15C7 74 06              4697 	mov	a,#0x06
   15C9 2D                 4698 	add	a,r5
   15CA FA                 4699 	mov	r2,a
   15CB E4                 4700 	clr	a
   15CC 3E                 4701 	addc	a,r6
   15CD FB                 4702 	mov	r3,a
   15CE 8F 04              4703 	mov	ar4,r7
   15D0 8A 82              4704 	mov	dpl,r2
   15D2 8B 83              4705 	mov	dph,r3
   15D4 8C F0              4706 	mov	b,r4
   15D6 12s00r00           4707 	lcall	__gptrget
   15D9 FA                 4708 	mov	r2,a
   15DA A3                 4709 	inc	dptr
   15DB 12s00r00           4710 	lcall	__gptrget
   15DE FB                 4711 	mov	r3,a
   15DF E5*00              4712 	mov	a,_bp
   15E1 24 05              4713 	add	a,#0x05
   15E3 F8                 4714 	mov	r0,a
   15E4 E6                 4715 	mov	a,@r0
   15E5 B5 02 07           4716 	cjne	a,ar2,00766$
   15E8 08                 4717 	inc	r0
   15E9 E6                 4718 	mov	a,@r0
   15EA B5 03 02           4719 	cjne	a,ar3,00766$
   15ED 80 09              4720 	sjmp	00767$
   15EF                    4721 00766$:
   15EF D0 04              4722 	pop	ar4
   15F1 D0 03              4723 	pop	ar3
   15F3 D0 02              4724 	pop	ar2
   15F5 02s16rA0           4725 	ljmp	00394$
   15F8                    4726 00767$:
                           4727 ;	../../core/net/uip.c:1243: uip_ipaddr_cmp(&BUF->srcipaddr, &uip_connr->ripaddr)) {
   15F8 7Br1A              4728 	mov	r3,#(_uip_aligned_buf + 0x000e)
   15FA 7Cs00              4729 	mov	r4,#((_uip_aligned_buf + 0x000e) >> 8)
   15FC 74 0C              4730 	mov	a,#0x0C
   15FE 2B                 4731 	add	a,r3
   15FF F5 82              4732 	mov	dpl,a
   1601 E4                 4733 	clr	a
   1602 3C                 4734 	addc	a,r4
   1603 F5 83              4735 	mov	dph,a
   1605 E5*00              4736 	mov	a,_bp
   1607 24 05              4737 	add	a,#0x05
   1609 F8                 4738 	mov	r0,a
   160A E0                 4739 	movx	a,@dptr
   160B F6                 4740 	mov	@r0,a
   160C A3                 4741 	inc	dptr
   160D E0                 4742 	movx	a,@dptr
   160E 08                 4743 	inc	r0
   160F F6                 4744 	mov	@r0,a
   1610 8D 82              4745 	mov	dpl,r5
   1612 8E 83              4746 	mov	dph,r6
   1614 8F F0              4747 	mov	b,r7
   1616 12s00r00           4748 	lcall	__gptrget
   1619 FA                 4749 	mov	r2,a
   161A A3                 4750 	inc	dptr
   161B 12s00r00           4751 	lcall	__gptrget
   161E FC                 4752 	mov	r4,a
   161F E5*00              4753 	mov	a,_bp
   1621 24 05              4754 	add	a,#0x05
   1623 F8                 4755 	mov	r0,a
   1624 E6                 4756 	mov	a,@r0
   1625 B5 02 07           4757 	cjne	a,ar2,00768$
   1628 08                 4758 	inc	r0
   1629 E6                 4759 	mov	a,@r0
   162A B5 04 02           4760 	cjne	a,ar4,00768$
   162D 80 08              4761 	sjmp	00769$
   162F                    4762 00768$:
   162F D0 04              4763 	pop	ar4
   1631 D0 03              4764 	pop	ar3
   1633 D0 02              4765 	pop	ar2
   1635 80 69              4766 	sjmp	00394$
   1637                    4767 00769$:
   1637 7Br1A              4768 	mov	r3,#(_uip_aligned_buf + 0x000e)
   1639 7Cs00              4769 	mov	r4,#((_uip_aligned_buf + 0x000e) >> 8)
   163B E5*00              4770 	mov	a,_bp
   163D 24 05              4771 	add	a,#0x05
   163F F8                 4772 	mov	r0,a
   1640 74 0E              4773 	mov	a,#0x0E
   1642 2B                 4774 	add	a,r3
   1643 F6                 4775 	mov	@r0,a
   1644 E4                 4776 	clr	a
   1645 3C                 4777 	addc	a,r4
   1646 08                 4778 	inc	r0
   1647 F6                 4779 	mov	@r0,a
   1648 E5*00              4780 	mov	a,_bp
   164A 24 0B              4781 	add	a,#0x0b
   164C F8                 4782 	mov	r0,a
   164D 74 02              4783 	mov	a,#0x02
   164F 2D                 4784 	add	a,r5
   1650 F6                 4785 	mov	@r0,a
   1651 E4                 4786 	clr	a
   1652 3E                 4787 	addc	a,r6
   1653 08                 4788 	inc	r0
   1654 F6                 4789 	mov	@r0,a
   1655 08                 4790 	inc	r0
   1656 A6 07              4791 	mov	@r0,ar7
   1658 E5*00              4792 	mov	a,_bp
   165A 24 05              4793 	add	a,#0x05
   165C F8                 4794 	mov	r0,a
   165D 86 82              4795 	mov	dpl,@r0
   165F 08                 4796 	inc	r0
   1660 86 83              4797 	mov	dph,@r0
   1662 E5*00              4798 	mov	a,_bp
   1664 24 05              4799 	add	a,#0x05
   1666 F9                 4800 	mov	r1,a
   1667 E0                 4801 	movx	a,@dptr
   1668 F7                 4802 	mov	@r1,a
   1669 A3                 4803 	inc	dptr
   166A E0                 4804 	movx	a,@dptr
   166B 09                 4805 	inc	r1
   166C F7                 4806 	mov	@r1,a
   166D E5*00              4807 	mov	a,_bp
   166F 24 0B              4808 	add	a,#0x0b
   1671 F8                 4809 	mov	r0,a
   1672 86 82              4810 	mov	dpl,@r0
   1674 08                 4811 	inc	r0
   1675 86 83              4812 	mov	dph,@r0
   1677 08                 4813 	inc	r0
   1678 86 F0              4814 	mov	b,@r0
   167A 12s00r00           4815 	lcall	__gptrget
   167D FA                 4816 	mov	r2,a
   167E A3                 4817 	inc	dptr
   167F 12s00r00           4818 	lcall	__gptrget
   1682 FC                 4819 	mov	r4,a
   1683 E5*00              4820 	mov	a,_bp
   1685 24 05              4821 	add	a,#0x05
   1687 F8                 4822 	mov	r0,a
   1688 E6                 4823 	mov	a,@r0
   1689 B5 02 0E           4824 	cjne	a,ar2,00770$
   168C 08                 4825 	inc	r0
   168D E6                 4826 	mov	a,@r0
   168E B5 04 09           4827 	cjne	a,ar4,00770$
   1691 D0 04              4828 	pop	ar4
   1693 D0 03              4829 	pop	ar3
   1695 D0 02              4830 	pop	ar2
   1697 02s1ErBB           4831 	ljmp	00256$
   169A                    4832 00770$:
   169A D0 04              4833 	pop	ar4
   169C D0 03              4834 	pop	ar3
   169E D0 02              4835 	pop	ar2
                           4836 ;	../../core/net/uip.c:1244: goto found;
   16A0                    4837 00394$:
                           4838 ;	../../core/net/uip.c:1239: ++uip_connr) {
   16A0 74 22              4839 	mov	a,#0x22
   16A2 2D                 4840 	add	a,r5
   16A3 FD                 4841 	mov	r5,a
   16A4 E4                 4842 	clr	a
   16A5 3E                 4843 	addc	a,r6
   16A6 FE                 4844 	mov	r6,a
   16A7 A8*00              4845 	mov	r0,_bp
   16A9 08                 4846 	inc	r0
   16AA A6 05              4847 	mov	@r0,ar5
   16AC 08                 4848 	inc	r0
   16AD A6 06              4849 	mov	@r0,ar6
   16AF 08                 4850 	inc	r0
   16B0 A6 07              4851 	mov	@r0,ar7
   16B2 02s15r23           4852 	ljmp	00392$
   16B5                    4853 00395$:
                           4854 ;	../../core/net/uip.c:1252: if((BUF->flags & TCP_CTL) != TCP_SYN) {
   16B5 7Er1A              4855 	mov	r6,#(_uip_aligned_buf + 0x000e)
   16B7 7Fs00              4856 	mov	r7,#((_uip_aligned_buf + 0x000e) >> 8)
   16B9 74 21              4857 	mov	a,#0x21
   16BB 2E                 4858 	add	a,r6
   16BC F5 82              4859 	mov	dpl,a
   16BE E4                 4860 	clr	a
   16BF 3F                 4861 	addc	a,r7
   16C0 F5 83              4862 	mov	dph,a
   16C2 E0                 4863 	movx	a,@dptr
   16C3 FF                 4864 	mov	r7,a
   16C4 53 07 3F           4865 	anl	ar7,#0x3F
   16C7 BF 02 4C           4866 	cjne	r7,#0x02,00214$
                           4867 ;	../../core/net/uip.c:1256: tmp16 = BUF->destport;
   16CA 7Er1A              4868 	mov	r6,#(_uip_aligned_buf + 0x000e)
   16CC 7Fs00              4869 	mov	r7,#((_uip_aligned_buf + 0x000e) >> 8)
   16CE 74 16              4870 	mov	a,#0x16
   16D0 2E                 4871 	add	a,r6
   16D1 F5 82              4872 	mov	dpl,a
   16D3 E4                 4873 	clr	a
   16D4 3F                 4874 	addc	a,r7
   16D5 F5 83              4875 	mov	dph,a
   16D7 E0                 4876 	movx	a,@dptr
   16D8 FC                 4877 	mov	r4,a
   16D9 A3                 4878 	inc	dptr
   16DA E0                 4879 	movx	a,@dptr
   16DB FB                 4880 	mov	r3,a
   16DC 90s02rA9           4881 	mov	dptr,#_tmp16
   16DF EC                 4882 	mov	a,r4
   16E0 F0                 4883 	movx	@dptr,a
   16E1 A3                 4884 	inc	dptr
   16E2 EB                 4885 	mov	a,r3
   16E3 F0                 4886 	movx	@dptr,a
                           4887 ;	../../core/net/uip.c:1258: for(c = 0; c < UIP_LISTENPORTS; ++c) {
   16E4 90s02rA7           4888 	mov	dptr,#_c
   16E7 E4                 4889 	clr	a
   16E8 F0                 4890 	movx	@dptr,a
   16E9                    4891 00396$:
   16E9 90s02rA7           4892 	mov	dptr,#_c
   16EC E0                 4893 	movx	a,@dptr
   16ED FD                 4894 	mov	r5,a
   16EE BD 14 00           4895 	cjne	r5,#0x14,00773$
   16F1                    4896 00773$:
   16F1 50 23              4897 	jnc	00214$
                           4898 ;	../../core/net/uip.c:1259: if(tmp16 == uip_listenports[c]) {
   16F3 ED                 4899 	mov	a,r5
   16F4 2D                 4900 	add	a,r5
   16F5 24rDA              4901 	add	a,#_uip_listenports
   16F7 F5 82              4902 	mov	dpl,a
   16F9 E4                 4903 	clr	a
   16FA 34s01              4904 	addc	a,#(_uip_listenports >> 8)
   16FC F5 83              4905 	mov	dph,a
   16FE E0                 4906 	movx	a,@dptr
   16FF FE                 4907 	mov	r6,a
   1700 A3                 4908 	inc	dptr
   1701 E0                 4909 	movx	a,@dptr
   1702 FF                 4910 	mov	r7,a
   1703 EC                 4911 	mov	a,r4
   1704 B5 06 07           4912 	cjne	a,ar6,00775$
   1707 EB                 4913 	mov	a,r3
   1708 B5 07 03           4914 	cjne	a,ar7,00775$
   170B 02s19r6E           4915 	ljmp	00223$
   170E                    4916 00775$:
                           4917 ;	../../core/net/uip.c:1258: for(c = 0; c < UIP_LISTENPORTS; ++c) {
   170E 90s02rA7           4918 	mov	dptr,#_c
   1711 ED                 4919 	mov	a,r5
   1712 04                 4920 	inc	a
   1713 F0                 4921 	movx	@dptr,a
                           4922 ;	../../core/net/uip.c:1267: reset:
   1714 80 D3              4923 	sjmp	00396$
   1716                    4924 00214$:
                           4925 ;	../../core/net/uip.c:1269: if(BUF->flags & TCP_RST) {
   1716 7Er1A              4926 	mov	r6,#(_uip_aligned_buf + 0x000e)
   1718 7Fs00              4927 	mov	r7,#((_uip_aligned_buf + 0x000e) >> 8)
   171A 74 21              4928 	mov	a,#0x21
   171C 2E                 4929 	add	a,r6
   171D F5 82              4930 	mov	dpl,a
   171F E4                 4931 	clr	a
   1720 3F                 4932 	addc	a,r7
   1721 F5 83              4933 	mov	dph,a
   1723 E0                 4934 	movx	a,@dptr
   1724 FF                 4935 	mov	r7,a
   1725 30 E2 03           4936 	jnb	acc.2,00776$
   1728 02s30rFB           4937 	ljmp	00387$
   172B                    4938 00776$:
                           4939 ;	../../core/net/uip.c:1275: BUF->flags = TCP_RST | TCP_ACK;
   172B 7Er1A              4940 	mov	r6,#(_uip_aligned_buf + 0x000e)
   172D 7Fs00              4941 	mov	r7,#((_uip_aligned_buf + 0x000e) >> 8)
   172F 74 21              4942 	mov	a,#0x21
   1731 2E                 4943 	add	a,r6
   1732 F5 82              4944 	mov	dpl,a
   1734 E4                 4945 	clr	a
   1735 3F                 4946 	addc	a,r7
   1736 F5 83              4947 	mov	dph,a
   1738 74 14              4948 	mov	a,#0x14
   173A F0                 4949 	movx	@dptr,a
                           4950 ;	../../core/net/uip.c:1276: uip_len = UIP_IPTCPH_LEN;
   173B 90s00r7E           4951 	mov	dptr,#_uip_len
   173E 74 28              4952 	mov	a,#0x28
   1740 F0                 4953 	movx	@dptr,a
   1741 A3                 4954 	inc	dptr
   1742 E4                 4955 	clr	a
   1743 F0                 4956 	movx	@dptr,a
                           4957 ;	../../core/net/uip.c:1277: BUF->tcpoffset = 5 << 4;
   1744 7Er1A              4958 	mov	r6,#(_uip_aligned_buf + 0x000e)
   1746 7Fs00              4959 	mov	r7,#((_uip_aligned_buf + 0x000e) >> 8)
   1748 74 20              4960 	mov	a,#0x20
   174A 2E                 4961 	add	a,r6
   174B F5 82              4962 	mov	dpl,a
   174D E4                 4963 	clr	a
   174E 3F                 4964 	addc	a,r7
   174F F5 83              4965 	mov	dph,a
   1751 74 50              4966 	mov	a,#0x50
   1753 F0                 4967 	movx	@dptr,a
                           4968 ;	../../core/net/uip.c:1280: c = BUF->seqno[3];
   1754 7Er1A              4969 	mov	r6,#(_uip_aligned_buf + 0x000e)
   1756 7Fs00              4970 	mov	r7,#((_uip_aligned_buf + 0x000e) >> 8)
   1758 74 1B              4971 	mov	a,#0x1B
   175A 2E                 4972 	add	a,r6
   175B F5 82              4973 	mov	dpl,a
   175D E4                 4974 	clr	a
   175E 3F                 4975 	addc	a,r7
   175F F5 83              4976 	mov	dph,a
   1761 E0                 4977 	movx	a,@dptr
   1762 FC                 4978 	mov	r4,a
                           4979 ;	../../core/net/uip.c:1281: BUF->seqno[3] = BUF->ackno[3];
   1763 7Dr1A              4980 	mov	r5,#(_uip_aligned_buf + 0x000e)
   1765 7Es00              4981 	mov	r6,#((_uip_aligned_buf + 0x000e) >> 8)
   1767 74 1B              4982 	mov	a,#0x1B
   1769 2D                 4983 	add	a,r5
   176A FD                 4984 	mov	r5,a
   176B E4                 4985 	clr	a
   176C 3E                 4986 	addc	a,r6
   176D FB                 4987 	mov	r3,a
   176E 7Er1A              4988 	mov	r6,#(_uip_aligned_buf + 0x000e)
   1770 7Fs00              4989 	mov	r7,#((_uip_aligned_buf + 0x000e) >> 8)
   1772 74 1F              4990 	mov	a,#0x1F
   1774 2E                 4991 	add	a,r6
   1775 F5 82              4992 	mov	dpl,a
   1777 E4                 4993 	clr	a
   1778 3F                 4994 	addc	a,r7
   1779 F5 83              4995 	mov	dph,a
   177B E0                 4996 	movx	a,@dptr
   177C 8D 82              4997 	mov	dpl,r5
   177E 8B 83              4998 	mov	dph,r3
   1780 F0                 4999 	movx	@dptr,a
                           5000 ;	../../core/net/uip.c:1282: BUF->ackno[3] = c;
   1781 7Er1A              5001 	mov	r6,#(_uip_aligned_buf + 0x000e)
   1783 7Fs00              5002 	mov	r7,#((_uip_aligned_buf + 0x000e) >> 8)
   1785 74 1F              5003 	mov	a,#0x1F
   1787 2E                 5004 	add	a,r6
   1788 F5 82              5005 	mov	dpl,a
   178A E4                 5006 	clr	a
   178B 3F                 5007 	addc	a,r7
   178C F5 83              5008 	mov	dph,a
   178E EC                 5009 	mov	a,r4
   178F F0                 5010 	movx	@dptr,a
                           5011 ;	../../core/net/uip.c:1284: c = BUF->seqno[2];
   1790 7Er1A              5012 	mov	r6,#(_uip_aligned_buf + 0x000e)
   1792 7Fs00              5013 	mov	r7,#((_uip_aligned_buf + 0x000e) >> 8)
   1794 74 1A              5014 	mov	a,#0x1A
   1796 2E                 5015 	add	a,r6
   1797 F5 82              5016 	mov	dpl,a
   1799 E4                 5017 	clr	a
   179A 3F                 5018 	addc	a,r7
   179B F5 83              5019 	mov	dph,a
   179D E0                 5020 	movx	a,@dptr
   179E FC                 5021 	mov	r4,a
                           5022 ;	../../core/net/uip.c:1285: BUF->seqno[2] = BUF->ackno[2];
   179F 7Dr1A              5023 	mov	r5,#(_uip_aligned_buf + 0x000e)
   17A1 7Es00              5024 	mov	r6,#((_uip_aligned_buf + 0x000e) >> 8)
   17A3 74 1A              5025 	mov	a,#0x1A
   17A5 2D                 5026 	add	a,r5
   17A6 FD                 5027 	mov	r5,a
   17A7 E4                 5028 	clr	a
   17A8 3E                 5029 	addc	a,r6
   17A9 FB                 5030 	mov	r3,a
   17AA 7Er1A              5031 	mov	r6,#(_uip_aligned_buf + 0x000e)
   17AC 7Fs00              5032 	mov	r7,#((_uip_aligned_buf + 0x000e) >> 8)
   17AE 74 1E              5033 	mov	a,#0x1E
   17B0 2E                 5034 	add	a,r6
   17B1 F5 82              5035 	mov	dpl,a
   17B3 E4                 5036 	clr	a
   17B4 3F                 5037 	addc	a,r7
   17B5 F5 83              5038 	mov	dph,a
   17B7 E0                 5039 	movx	a,@dptr
   17B8 8D 82              5040 	mov	dpl,r5
   17BA 8B 83              5041 	mov	dph,r3
   17BC F0                 5042 	movx	@dptr,a
                           5043 ;	../../core/net/uip.c:1286: BUF->ackno[2] = c;
   17BD 7Er1A              5044 	mov	r6,#(_uip_aligned_buf + 0x000e)
   17BF 7Fs00              5045 	mov	r7,#((_uip_aligned_buf + 0x000e) >> 8)
   17C1 74 1E              5046 	mov	a,#0x1E
   17C3 2E                 5047 	add	a,r6
   17C4 F5 82              5048 	mov	dpl,a
   17C6 E4                 5049 	clr	a
   17C7 3F                 5050 	addc	a,r7
   17C8 F5 83              5051 	mov	dph,a
   17CA EC                 5052 	mov	a,r4
   17CB F0                 5053 	movx	@dptr,a
                           5054 ;	../../core/net/uip.c:1288: c = BUF->seqno[1];
   17CC 7Er1A              5055 	mov	r6,#(_uip_aligned_buf + 0x000e)
   17CE 7Fs00              5056 	mov	r7,#((_uip_aligned_buf + 0x000e) >> 8)
   17D0 74 19              5057 	mov	a,#0x19
   17D2 2E                 5058 	add	a,r6
   17D3 F5 82              5059 	mov	dpl,a
   17D5 E4                 5060 	clr	a
   17D6 3F                 5061 	addc	a,r7
   17D7 F5 83              5062 	mov	dph,a
   17D9 E0                 5063 	movx	a,@dptr
   17DA FC                 5064 	mov	r4,a
                           5065 ;	../../core/net/uip.c:1289: BUF->seqno[1] = BUF->ackno[1];
   17DB 7Dr1A              5066 	mov	r5,#(_uip_aligned_buf + 0x000e)
   17DD 7Es00              5067 	mov	r6,#((_uip_aligned_buf + 0x000e) >> 8)
   17DF 74 19              5068 	mov	a,#0x19
   17E1 2D                 5069 	add	a,r5
   17E2 FD                 5070 	mov	r5,a
   17E3 E4                 5071 	clr	a
   17E4 3E                 5072 	addc	a,r6
   17E5 FB                 5073 	mov	r3,a
   17E6 7Er1A              5074 	mov	r6,#(_uip_aligned_buf + 0x000e)
   17E8 7Fs00              5075 	mov	r7,#((_uip_aligned_buf + 0x000e) >> 8)
   17EA 74 1D              5076 	mov	a,#0x1D
   17EC 2E                 5077 	add	a,r6
   17ED F5 82              5078 	mov	dpl,a
   17EF E4                 5079 	clr	a
   17F0 3F                 5080 	addc	a,r7
   17F1 F5 83              5081 	mov	dph,a
   17F3 E0                 5082 	movx	a,@dptr
   17F4 8D 82              5083 	mov	dpl,r5
   17F6 8B 83              5084 	mov	dph,r3
   17F8 F0                 5085 	movx	@dptr,a
                           5086 ;	../../core/net/uip.c:1290: BUF->ackno[1] = c;
   17F9 7Er1A              5087 	mov	r6,#(_uip_aligned_buf + 0x000e)
   17FB 7Fs00              5088 	mov	r7,#((_uip_aligned_buf + 0x000e) >> 8)
   17FD 74 1D              5089 	mov	a,#0x1D
   17FF 2E                 5090 	add	a,r6
   1800 F5 82              5091 	mov	dpl,a
   1802 E4                 5092 	clr	a
   1803 3F                 5093 	addc	a,r7
   1804 F5 83              5094 	mov	dph,a
   1806 EC                 5095 	mov	a,r4
   1807 F0                 5096 	movx	@dptr,a
                           5097 ;	../../core/net/uip.c:1292: c = BUF->seqno[0];
   1808 7Er1A              5098 	mov	r6,#(_uip_aligned_buf + 0x000e)
   180A 7Fs00              5099 	mov	r7,#((_uip_aligned_buf + 0x000e) >> 8)
   180C 74 18              5100 	mov	a,#0x18
   180E 2E                 5101 	add	a,r6
   180F F5 82              5102 	mov	dpl,a
   1811 E4                 5103 	clr	a
   1812 3F                 5104 	addc	a,r7
   1813 F5 83              5105 	mov	dph,a
   1815 E0                 5106 	movx	a,@dptr
   1816 FF                 5107 	mov	r7,a
   1817 90s02rA7           5108 	mov	dptr,#_c
   181A F0                 5109 	movx	@dptr,a
                           5110 ;	../../core/net/uip.c:1293: BUF->seqno[0] = BUF->ackno[0];
   181B 7Dr1A              5111 	mov	r5,#(_uip_aligned_buf + 0x000e)
   181D 7Es00              5112 	mov	r6,#((_uip_aligned_buf + 0x000e) >> 8)
   181F 74 18              5113 	mov	a,#0x18
   1821 2D                 5114 	add	a,r5
   1822 FC                 5115 	mov	r4,a
   1823 E4                 5116 	clr	a
   1824 3E                 5117 	addc	a,r6
   1825 FB                 5118 	mov	r3,a
   1826 7Dr1A              5119 	mov	r5,#(_uip_aligned_buf + 0x000e)
   1828 7Es00              5120 	mov	r6,#((_uip_aligned_buf + 0x000e) >> 8)
   182A 74 1C              5121 	mov	a,#0x1C
   182C 2D                 5122 	add	a,r5
   182D F5 82              5123 	mov	dpl,a
   182F E4                 5124 	clr	a
   1830 3E                 5125 	addc	a,r6
   1831 F5 83              5126 	mov	dph,a
   1833 E0                 5127 	movx	a,@dptr
   1834 8C 82              5128 	mov	dpl,r4
   1836 8B 83              5129 	mov	dph,r3
   1838 F0                 5130 	movx	@dptr,a
                           5131 ;	../../core/net/uip.c:1294: BUF->ackno[0] = c;
   1839 7Dr1A              5132 	mov	r5,#(_uip_aligned_buf + 0x000e)
   183B 7Es00              5133 	mov	r6,#((_uip_aligned_buf + 0x000e) >> 8)
   183D 74 1C              5134 	mov	a,#0x1C
   183F 2D                 5135 	add	a,r5
   1840 F5 82              5136 	mov	dpl,a
   1842 E4                 5137 	clr	a
   1843 3E                 5138 	addc	a,r6
   1844 F5 83              5139 	mov	dph,a
   1846 EF                 5140 	mov	a,r7
   1847 F0                 5141 	movx	@dptr,a
                           5142 ;	../../core/net/uip.c:1299: if(++BUF->ackno[3] == 0) {
   1848 7Er1A              5143 	mov	r6,#(_uip_aligned_buf + 0x000e)
   184A 7Fs00              5144 	mov	r7,#((_uip_aligned_buf + 0x000e) >> 8)
   184C 74 1F              5145 	mov	a,#0x1F
   184E 2E                 5146 	add	a,r6
   184F FE                 5147 	mov	r6,a
   1850 E4                 5148 	clr	a
   1851 3F                 5149 	addc	a,r7
   1852 FF                 5150 	mov	r7,a
   1853 8E 82              5151 	mov	dpl,r6
   1855 8F 83              5152 	mov	dph,r7
   1857 E0                 5153 	movx	a,@dptr
   1858 FD                 5154 	mov	r5,a
   1859 0D                 5155 	inc	r5
   185A 8E 82              5156 	mov	dpl,r6
   185C 8F 83              5157 	mov	dph,r7
   185E ED                 5158 	mov	a,r5
   185F F0                 5159 	movx	@dptr,a
   1860 ED                 5160 	mov	a,r5
   1861 70 4E              5161 	jnz	00222$
                           5162 ;	../../core/net/uip.c:1300: if(++BUF->ackno[2] == 0) {
   1863 7Er1A              5163 	mov	r6,#(_uip_aligned_buf + 0x000e)
   1865 7Fs00              5164 	mov	r7,#((_uip_aligned_buf + 0x000e) >> 8)
   1867 74 1E              5165 	mov	a,#0x1E
   1869 2E                 5166 	add	a,r6
   186A FE                 5167 	mov	r6,a
   186B E4                 5168 	clr	a
   186C 3F                 5169 	addc	a,r7
   186D FF                 5170 	mov	r7,a
   186E 8E 82              5171 	mov	dpl,r6
   1870 8F 83              5172 	mov	dph,r7
   1872 E0                 5173 	movx	a,@dptr
   1873 FD                 5174 	mov	r5,a
   1874 0D                 5175 	inc	r5
   1875 8E 82              5176 	mov	dpl,r6
   1877 8F 83              5177 	mov	dph,r7
   1879 ED                 5178 	mov	a,r5
   187A F0                 5179 	movx	@dptr,a
   187B ED                 5180 	mov	a,r5
   187C 70 33              5181 	jnz	00222$
                           5182 ;	../../core/net/uip.c:1301: if(++BUF->ackno[1] == 0) {
   187E 7Er1A              5183 	mov	r6,#(_uip_aligned_buf + 0x000e)
   1880 7Fs00              5184 	mov	r7,#((_uip_aligned_buf + 0x000e) >> 8)
   1882 74 1D              5185 	mov	a,#0x1D
   1884 2E                 5186 	add	a,r6
   1885 FE                 5187 	mov	r6,a
   1886 E4                 5188 	clr	a
   1887 3F                 5189 	addc	a,r7
   1888 FF                 5190 	mov	r7,a
   1889 8E 82              5191 	mov	dpl,r6
   188B 8F 83              5192 	mov	dph,r7
   188D E0                 5193 	movx	a,@dptr
   188E FD                 5194 	mov	r5,a
   188F 0D                 5195 	inc	r5
   1890 8E 82              5196 	mov	dpl,r6
   1892 8F 83              5197 	mov	dph,r7
   1894 ED                 5198 	mov	a,r5
   1895 F0                 5199 	movx	@dptr,a
   1896 ED                 5200 	mov	a,r5
   1897 70 18              5201 	jnz	00222$
                           5202 ;	../../core/net/uip.c:1302: ++BUF->ackno[0];
   1899 7Er1A              5203 	mov	r6,#(_uip_aligned_buf + 0x000e)
   189B 7Fs00              5204 	mov	r7,#((_uip_aligned_buf + 0x000e) >> 8)
   189D 74 1C              5205 	mov	a,#0x1C
   189F 2E                 5206 	add	a,r6
   18A0 FE                 5207 	mov	r6,a
   18A1 E4                 5208 	clr	a
   18A2 3F                 5209 	addc	a,r7
   18A3 FF                 5210 	mov	r7,a
   18A4 8E 82              5211 	mov	dpl,r6
   18A6 8F 83              5212 	mov	dph,r7
   18A8 E0                 5213 	movx	a,@dptr
   18A9 FD                 5214 	mov	r5,a
   18AA 0D                 5215 	inc	r5
   18AB 8E 82              5216 	mov	dpl,r6
   18AD 8F 83              5217 	mov	dph,r7
   18AF ED                 5218 	mov	a,r5
   18B0 F0                 5219 	movx	@dptr,a
   18B1                    5220 00222$:
                           5221 ;	../../core/net/uip.c:1308: tmp16 = BUF->srcport;
   18B1 7Er1A              5222 	mov	r6,#(_uip_aligned_buf + 0x000e)
   18B3 7Fs00              5223 	mov	r7,#((_uip_aligned_buf + 0x000e) >> 8)
   18B5 74 14              5224 	mov	a,#0x14
   18B7 2E                 5225 	add	a,r6
   18B8 F5 82              5226 	mov	dpl,a
   18BA E4                 5227 	clr	a
   18BB 3F                 5228 	addc	a,r7
   18BC F5 83              5229 	mov	dph,a
   18BE E0                 5230 	movx	a,@dptr
   18BF FC                 5231 	mov	r4,a
   18C0 A3                 5232 	inc	dptr
   18C1 E0                 5233 	movx	a,@dptr
   18C2 FB                 5234 	mov	r3,a
   18C3 90s02rA9           5235 	mov	dptr,#_tmp16
   18C6 EC                 5236 	mov	a,r4
   18C7 F0                 5237 	movx	@dptr,a
   18C8 A3                 5238 	inc	dptr
   18C9 EB                 5239 	mov	a,r3
   18CA F0                 5240 	movx	@dptr,a
                           5241 ;	../../core/net/uip.c:1309: BUF->srcport = BUF->destport;
   18CB 7Dr1A              5242 	mov	r5,#(_uip_aligned_buf + 0x000e)
   18CD 7Fs00              5243 	mov	r7,#((_uip_aligned_buf + 0x000e) >> 8)
   18CF 74 14              5244 	mov	a,#0x14
   18D1 2D                 5245 	add	a,r5
   18D2 FD                 5246 	mov	r5,a
   18D3 E4                 5247 	clr	a
   18D4 3F                 5248 	addc	a,r7
   18D5 FA                 5249 	mov	r2,a
   18D6 7Er1A              5250 	mov	r6,#(_uip_aligned_buf + 0x000e)
   18D8 7Fs00              5251 	mov	r7,#((_uip_aligned_buf + 0x000e) >> 8)
   18DA 74 16              5252 	mov	a,#0x16
   18DC 2E                 5253 	add	a,r6
   18DD F5 82              5254 	mov	dpl,a
   18DF E4                 5255 	clr	a
   18E0 3F                 5256 	addc	a,r7
   18E1 F5 83              5257 	mov	dph,a
   18E3 E0                 5258 	movx	a,@dptr
   18E4 FE                 5259 	mov	r6,a
   18E5 A3                 5260 	inc	dptr
   18E6 E0                 5261 	movx	a,@dptr
   18E7 FF                 5262 	mov	r7,a
   18E8 8D 82              5263 	mov	dpl,r5
   18EA 8A 83              5264 	mov	dph,r2
   18EC EE                 5265 	mov	a,r6
   18ED F0                 5266 	movx	@dptr,a
   18EE A3                 5267 	inc	dptr
   18EF EF                 5268 	mov	a,r7
   18F0 F0                 5269 	movx	@dptr,a
                           5270 ;	../../core/net/uip.c:1310: BUF->destport = tmp16;
   18F1 7Er1A              5271 	mov	r6,#(_uip_aligned_buf + 0x000e)
   18F3 7Fs00              5272 	mov	r7,#((_uip_aligned_buf + 0x000e) >> 8)
   18F5 74 16              5273 	mov	a,#0x16
   18F7 2E                 5274 	add	a,r6
   18F8 F5 82              5275 	mov	dpl,a
   18FA E4                 5276 	clr	a
   18FB 3F                 5277 	addc	a,r7
   18FC F5 83              5278 	mov	dph,a
   18FE EC                 5279 	mov	a,r4
   18FF F0                 5280 	movx	@dptr,a
   1900 A3                 5281 	inc	dptr
   1901 EB                 5282 	mov	a,r3
   1902 F0                 5283 	movx	@dptr,a
                           5284 ;	../../core/net/uip.c:1313: uip_ipaddr_copy(&BUF->destipaddr, &BUF->srcipaddr);
   1903 7Er1A              5285 	mov	r6,#(_uip_aligned_buf + 0x000e)
   1905 7Fs00              5286 	mov	r7,#((_uip_aligned_buf + 0x000e) >> 8)
   1907 74 0C              5287 	mov	a,#0x0C
   1909 2E                 5288 	add	a,r6
   190A FE                 5289 	mov	r6,a
   190B E4                 5290 	clr	a
   190C 3F                 5291 	addc	a,r7
   190D FF                 5292 	mov	r7,a
   190E 8E 04              5293 	mov	ar4,r6
   1910 8F 03              5294 	mov	ar3,r7
   1912 7A 00              5295 	mov	r2,#0x00
   1914 7Er1A              5296 	mov	r6,#(_uip_aligned_buf + 0x000e)
   1916 7Fs00              5297 	mov	r7,#((_uip_aligned_buf + 0x000e) >> 8)
   1918 74 10              5298 	mov	a,#0x10
   191A 2E                 5299 	add	a,r6
   191B FE                 5300 	mov	r6,a
   191C E4                 5301 	clr	a
   191D 3F                 5302 	addc	a,r7
   191E FF                 5303 	mov	r7,a
   191F 7D 00              5304 	mov	r5,#0x00
   1921 74 04              5305 	mov	a,#0x04
   1923 C0 E0              5306 	push	acc
   1925 E4                 5307 	clr	a
   1926 C0 E0              5308 	push	acc
   1928 C0 04              5309 	push	ar4
   192A C0 03              5310 	push	ar3
   192C C0 02              5311 	push	ar2
   192E 8E 82              5312 	mov	dpl,r6
   1930 8F 83              5313 	mov	dph,r7
   1932 8D F0              5314 	mov	b,r5
   1934 12s00r00           5315 	lcall	_memcpy
   1937 E5 81              5316 	mov	a,sp
   1939 24 FB              5317 	add	a,#0xfb
   193B F5 81              5318 	mov	sp,a
                           5319 ;	../../core/net/uip.c:1314: uip_ipaddr_copy(&BUF->srcipaddr, &uip_hostaddr);
   193D 7Er1A              5320 	mov	r6,#(_uip_aligned_buf + 0x000e)
   193F 7Fs00              5321 	mov	r7,#((_uip_aligned_buf + 0x000e) >> 8)
   1941 74 0C              5322 	mov	a,#0x0C
   1943 2E                 5323 	add	a,r6
   1944 FE                 5324 	mov	r6,a
   1945 E4                 5325 	clr	a
   1946 3F                 5326 	addc	a,r7
   1947 FF                 5327 	mov	r7,a
   1948 7D 00              5328 	mov	r5,#0x00
   194A 74 04              5329 	mov	a,#0x04
   194C C0 E0              5330 	push	acc
   194E E4                 5331 	clr	a
   194F C0 E0              5332 	push	acc
   1951 74r00              5333 	mov	a,#_uip_hostaddr
   1953 C0 E0              5334 	push	acc
   1955 74s00              5335 	mov	a,#(_uip_hostaddr >> 8)
   1957 C0 E0              5336 	push	acc
   1959 E4                 5337 	clr	a
   195A C0 E0              5338 	push	acc
   195C 8E 82              5339 	mov	dpl,r6
   195E 8F 83              5340 	mov	dph,r7
   1960 8D F0              5341 	mov	b,r5
   1962 12s00r00           5342 	lcall	_memcpy
   1965 E5 81              5343 	mov	a,sp
   1967 24 FB              5344 	add	a,#0xfb
   1969 F5 81              5345 	mov	sp,a
                           5346 ;	../../core/net/uip.c:1317: goto tcp_send_noconn;
   196B 02s2FrC9           5347 	ljmp	00385$
                           5348 ;	../../core/net/uip.c:1322: found_listen:
   196E                    5349 00223$:
                           5350 ;	../../core/net/uip.c:1329: uip_connr = 0;
   196E A8*00              5351 	mov	r0,_bp
   1970 08                 5352 	inc	r0
   1971 E4                 5353 	clr	a
   1972 F6                 5354 	mov	@r0,a
   1973 08                 5355 	inc	r0
   1974 F6                 5356 	mov	@r0,a
   1975 08                 5357 	inc	r0
   1976 76 00              5358 	mov	@r0,#0x00
                           5359 ;	../../core/net/uip.c:1330: for(c = 0; c < UIP_CONNS; ++c) {
   1978 90s02rA7           5360 	mov	dptr,#_c
   197B E4                 5361 	clr	a
   197C F0                 5362 	movx	@dptr,a
   197D                    5363 00231$:
   197D 90s02rA7           5364 	mov	dptr,#_c
   1980 E0                 5365 	movx	a,@dptr
   1981 FF                 5366 	mov	r7,a
   1982 BF 0A 00           5367 	cjne	r7,#0x0A,00780$
   1985                    5368 00780$:
   1985 40 03              5369 	jc	00781$
   1987 02s1Ar0C           5370 	ljmp	00234$
   198A                    5371 00781$:
                           5372 ;	../../core/net/uip.c:1331: if(uip_conns[c].tcpstateflags == UIP_CLOSED) {
   198A EF                 5373 	mov	a,r7
   198B 75 F0 22           5374 	mov	b,#0x22
   198E A4                 5375 	mul	ab
   198F 24r86              5376 	add	a,#_uip_conns
   1991 FC                 5377 	mov	r4,a
   1992 74s00              5378 	mov	a,#(_uip_conns >> 8)
   1994 35 F0              5379 	addc	a,b
   1996 FB                 5380 	mov	r3,a
   1997 74 19              5381 	mov	a,#0x19
   1999 2C                 5382 	add	a,r4
   199A F5 82              5383 	mov	dpl,a
   199C E4                 5384 	clr	a
   199D 3B                 5385 	addc	a,r3
   199E F5 83              5386 	mov	dph,a
   19A0 E0                 5387 	movx	a,@dptr
   19A1 FD                 5388 	mov	r5,a
   19A2 70 11              5389 	jnz	00225$
                           5390 ;	../../core/net/uip.c:1332: uip_connr = &uip_conns[c];
   19A4 8C 06              5391 	mov	ar6,r4
   19A6 8B 07              5392 	mov	ar7,r3
   19A8 A8*00              5393 	mov	r0,_bp
   19AA 08                 5394 	inc	r0
   19AB A6 06              5395 	mov	@r0,ar6
   19AD 08                 5396 	inc	r0
   19AE A6 07              5397 	mov	@r0,ar7
   19B0 08                 5398 	inc	r0
   19B1 76 00              5399 	mov	@r0,#0x00
                           5400 ;	../../core/net/uip.c:1333: break;
   19B3 80 57              5401 	sjmp	00234$
   19B5                    5402 00225$:
                           5403 ;	../../core/net/uip.c:1335: if(uip_conns[c].tcpstateflags == UIP_TIME_WAIT) {
   19B5 BD 07 4A           5404 	cjne	r5,#0x07,00233$
                           5405 ;	../../core/net/uip.c:1336: if(uip_connr == 0 ||
   19B8 A8*00              5406 	mov	r0,_bp
   19BA 08                 5407 	inc	r0
   19BB E6                 5408 	mov	a,@r0
   19BC 08                 5409 	inc	r0
   19BD 46                 5410 	orl	a,@r0
   19BE 60 27              5411 	jz	00226$
                           5412 ;	../../core/net/uip.c:1337: uip_conns[c].timer > uip_connr->timer) {
   19C0 74 1A              5413 	mov	a,#0x1A
   19C2 2C                 5414 	add	a,r4
   19C3 F5 82              5415 	mov	dpl,a
   19C5 E4                 5416 	clr	a
   19C6 3B                 5417 	addc	a,r3
   19C7 F5 83              5418 	mov	dph,a
   19C9 E0                 5419 	movx	a,@dptr
   19CA FC                 5420 	mov	r4,a
   19CB A8*00              5421 	mov	r0,_bp
   19CD 08                 5422 	inc	r0
   19CE 74 1A              5423 	mov	a,#0x1A
   19D0 26                 5424 	add	a,@r0
   19D1 FD                 5425 	mov	r5,a
   19D2 E4                 5426 	clr	a
   19D3 08                 5427 	inc	r0
   19D4 36                 5428 	addc	a,@r0
   19D5 FE                 5429 	mov	r6,a
   19D6 08                 5430 	inc	r0
   19D7 86 07              5431 	mov	ar7,@r0
   19D9 8D 82              5432 	mov	dpl,r5
   19DB 8E 83              5433 	mov	dph,r6
   19DD 8F F0              5434 	mov	b,r7
   19DF 12s00r00           5435 	lcall	__gptrget
   19E2 FD                 5436 	mov	r5,a
   19E3 C3                 5437 	clr	c
   19E4 9C                 5438 	subb	a,r4
   19E5 50 1B              5439 	jnc	00233$
   19E7                    5440 00226$:
                           5441 ;	../../core/net/uip.c:1338: uip_connr = &uip_conns[c];
   19E7 90s02rA7           5442 	mov	dptr,#_c
   19EA E0                 5443 	movx	a,@dptr
   19EB 75 F0 22           5444 	mov	b,#0x22
   19EE A4                 5445 	mul	ab
   19EF 24r86              5446 	add	a,#_uip_conns
   19F1 FE                 5447 	mov	r6,a
   19F2 74s00              5448 	mov	a,#(_uip_conns >> 8)
   19F4 35 F0              5449 	addc	a,b
   19F6 FF                 5450 	mov	r7,a
   19F7 A8*00              5451 	mov	r0,_bp
   19F9 08                 5452 	inc	r0
   19FA A6 06              5453 	mov	@r0,ar6
   19FC 08                 5454 	inc	r0
   19FD A6 07              5455 	mov	@r0,ar7
   19FF 08                 5456 	inc	r0
   1A00 76 00              5457 	mov	@r0,#0x00
   1A02                    5458 00233$:
                           5459 ;	../../core/net/uip.c:1330: for(c = 0; c < UIP_CONNS; ++c) {
   1A02 90s02rA7           5460 	mov	dptr,#_c
   1A05 E0                 5461 	movx	a,@dptr
   1A06 24 01              5462 	add	a,#0x01
   1A08 F0                 5463 	movx	@dptr,a
   1A09 02s19r7D           5464 	ljmp	00231$
   1A0C                    5465 00234$:
                           5466 ;	../../core/net/uip.c:1343: if(uip_connr == 0) {
   1A0C A8*00              5467 	mov	r0,_bp
   1A0E 08                 5468 	inc	r0
   1A0F E6                 5469 	mov	a,@r0
   1A10 08                 5470 	inc	r0
   1A11 46                 5471 	orl	a,@r0
   1A12 70 03              5472 	jnz	00787$
   1A14 02s30rFB           5473 	ljmp	00387$
   1A17                    5474 00787$:
                           5475 ;	../../core/net/uip.c:1351: uip_conn = uip_connr;
   1A17 A8*00              5476 	mov	r0,_bp
   1A19 08                 5477 	inc	r0
   1A1A 90s00r83           5478 	mov	dptr,#_uip_conn
   1A1D E6                 5479 	mov	a,@r0
   1A1E F0                 5480 	movx	@dptr,a
   1A1F 08                 5481 	inc	r0
   1A20 A3                 5482 	inc	dptr
   1A21 E6                 5483 	mov	a,@r0
   1A22 F0                 5484 	movx	@dptr,a
   1A23 08                 5485 	inc	r0
   1A24 A3                 5486 	inc	dptr
   1A25 E6                 5487 	mov	a,@r0
   1A26 F0                 5488 	movx	@dptr,a
                           5489 ;	../../core/net/uip.c:1354: uip_connr->rto = uip_connr->timer = UIP_RTO;
   1A27 A8*00              5490 	mov	r0,_bp
   1A29 08                 5491 	inc	r0
   1A2A 74 18              5492 	mov	a,#0x18
   1A2C 26                 5493 	add	a,@r0
   1A2D FC                 5494 	mov	r4,a
   1A2E E4                 5495 	clr	a
   1A2F 08                 5496 	inc	r0
   1A30 36                 5497 	addc	a,@r0
   1A31 FB                 5498 	mov	r3,a
   1A32 08                 5499 	inc	r0
   1A33 86 02              5500 	mov	ar2,@r0
   1A35 A8*00              5501 	mov	r0,_bp
   1A37 08                 5502 	inc	r0
   1A38 74 1A              5503 	mov	a,#0x1A
   1A3A 26                 5504 	add	a,@r0
   1A3B FD                 5505 	mov	r5,a
   1A3C E4                 5506 	clr	a
   1A3D 08                 5507 	inc	r0
   1A3E 36                 5508 	addc	a,@r0
   1A3F FE                 5509 	mov	r6,a
   1A40 08                 5510 	inc	r0
   1A41 86 07              5511 	mov	ar7,@r0
   1A43 8D 82              5512 	mov	dpl,r5
   1A45 8E 83              5513 	mov	dph,r6
   1A47 8F F0              5514 	mov	b,r7
   1A49 74 03              5515 	mov	a,#0x03
   1A4B 12s00r00           5516 	lcall	__gptrput
   1A4E 8C 82              5517 	mov	dpl,r4
   1A50 8B 83              5518 	mov	dph,r3
   1A52 8A F0              5519 	mov	b,r2
   1A54 74 03              5520 	mov	a,#0x03
   1A56 12s00r00           5521 	lcall	__gptrput
                           5522 ;	../../core/net/uip.c:1355: uip_connr->sa = 0;
   1A59 A8*00              5523 	mov	r0,_bp
   1A5B 08                 5524 	inc	r0
   1A5C 74 16              5525 	mov	a,#0x16
   1A5E 26                 5526 	add	a,@r0
   1A5F FD                 5527 	mov	r5,a
   1A60 E4                 5528 	clr	a
   1A61 08                 5529 	inc	r0
   1A62 36                 5530 	addc	a,@r0
   1A63 FE                 5531 	mov	r6,a
   1A64 08                 5532 	inc	r0
   1A65 86 07              5533 	mov	ar7,@r0
   1A67 8D 82              5534 	mov	dpl,r5
   1A69 8E 83              5535 	mov	dph,r6
   1A6B 8F F0              5536 	mov	b,r7
   1A6D E4                 5537 	clr	a
   1A6E 12s00r00           5538 	lcall	__gptrput
                           5539 ;	../../core/net/uip.c:1356: uip_connr->sv = 4;
   1A71 A8*00              5540 	mov	r0,_bp
   1A73 08                 5541 	inc	r0
   1A74 74 17              5542 	mov	a,#0x17
   1A76 26                 5543 	add	a,@r0
   1A77 FD                 5544 	mov	r5,a
   1A78 E4                 5545 	clr	a
   1A79 08                 5546 	inc	r0
   1A7A 36                 5547 	addc	a,@r0
   1A7B FE                 5548 	mov	r6,a
   1A7C 08                 5549 	inc	r0
   1A7D 86 07              5550 	mov	ar7,@r0
   1A7F 8D 82              5551 	mov	dpl,r5
   1A81 8E 83              5552 	mov	dph,r6
   1A83 8F F0              5553 	mov	b,r7
   1A85 74 04              5554 	mov	a,#0x04
   1A87 12s00r00           5555 	lcall	__gptrput
                           5556 ;	../../core/net/uip.c:1357: uip_connr->nrtx = 0;
   1A8A A8*00              5557 	mov	r0,_bp
   1A8C 08                 5558 	inc	r0
   1A8D 74 1B              5559 	mov	a,#0x1B
   1A8F 26                 5560 	add	a,@r0
   1A90 FD                 5561 	mov	r5,a
   1A91 E4                 5562 	clr	a
   1A92 08                 5563 	inc	r0
   1A93 36                 5564 	addc	a,@r0
   1A94 FE                 5565 	mov	r6,a
   1A95 08                 5566 	inc	r0
   1A96 86 07              5567 	mov	ar7,@r0
   1A98 8D 82              5568 	mov	dpl,r5
   1A9A 8E 83              5569 	mov	dph,r6
   1A9C 8F F0              5570 	mov	b,r7
   1A9E E4                 5571 	clr	a
   1A9F 12s00r00           5572 	lcall	__gptrput
                           5573 ;	../../core/net/uip.c:1358: uip_connr->lport = BUF->destport;
   1AA2 A8*00              5574 	mov	r0,_bp
   1AA4 08                 5575 	inc	r0
   1AA5 74 04              5576 	mov	a,#0x04
   1AA7 26                 5577 	add	a,@r0
   1AA8 FD                 5578 	mov	r5,a
   1AA9 E4                 5579 	clr	a
   1AAA 08                 5580 	inc	r0
   1AAB 36                 5581 	addc	a,@r0
   1AAC FC                 5582 	mov	r4,a
   1AAD 08                 5583 	inc	r0
   1AAE 86 03              5584 	mov	ar3,@r0
   1AB0 7Er1A              5585 	mov	r6,#(_uip_aligned_buf + 0x000e)
   1AB2 7Fs00              5586 	mov	r7,#((_uip_aligned_buf + 0x000e) >> 8)
   1AB4 74 16              5587 	mov	a,#0x16
   1AB6 2E                 5588 	add	a,r6
   1AB7 F5 82              5589 	mov	dpl,a
   1AB9 E4                 5590 	clr	a
   1ABA 3F                 5591 	addc	a,r7
   1ABB F5 83              5592 	mov	dph,a
   1ABD E0                 5593 	movx	a,@dptr
   1ABE FE                 5594 	mov	r6,a
   1ABF A3                 5595 	inc	dptr
   1AC0 E0                 5596 	movx	a,@dptr
   1AC1 FF                 5597 	mov	r7,a
   1AC2 8D 82              5598 	mov	dpl,r5
   1AC4 8C 83              5599 	mov	dph,r4
   1AC6 8B F0              5600 	mov	b,r3
   1AC8 EE                 5601 	mov	a,r6
   1AC9 12s00r00           5602 	lcall	__gptrput
   1ACC A3                 5603 	inc	dptr
   1ACD EF                 5604 	mov	a,r7
   1ACE 12s00r00           5605 	lcall	__gptrput
                           5606 ;	../../core/net/uip.c:1359: uip_connr->rport = BUF->srcport;
   1AD1 A8*00              5607 	mov	r0,_bp
   1AD3 08                 5608 	inc	r0
   1AD4 74 06              5609 	mov	a,#0x06
   1AD6 26                 5610 	add	a,@r0
   1AD7 FD                 5611 	mov	r5,a
   1AD8 E4                 5612 	clr	a
   1AD9 08                 5613 	inc	r0
   1ADA 36                 5614 	addc	a,@r0
   1ADB FC                 5615 	mov	r4,a
   1ADC 08                 5616 	inc	r0
   1ADD 86 03              5617 	mov	ar3,@r0
   1ADF 7Er1A              5618 	mov	r6,#(_uip_aligned_buf + 0x000e)
   1AE1 7Fs00              5619 	mov	r7,#((_uip_aligned_buf + 0x000e) >> 8)
   1AE3 74 14              5620 	mov	a,#0x14
   1AE5 2E                 5621 	add	a,r6
   1AE6 F5 82              5622 	mov	dpl,a
   1AE8 E4                 5623 	clr	a
   1AE9 3F                 5624 	addc	a,r7
   1AEA F5 83              5625 	mov	dph,a
   1AEC E0                 5626 	movx	a,@dptr
   1AED FE                 5627 	mov	r6,a
   1AEE A3                 5628 	inc	dptr
   1AEF E0                 5629 	movx	a,@dptr
   1AF0 FF                 5630 	mov	r7,a
   1AF1 8D 82              5631 	mov	dpl,r5
   1AF3 8C 83              5632 	mov	dph,r4
   1AF5 8B F0              5633 	mov	b,r3
   1AF7 EE                 5634 	mov	a,r6
   1AF8 12s00r00           5635 	lcall	__gptrput
   1AFB A3                 5636 	inc	dptr
   1AFC EF                 5637 	mov	a,r7
   1AFD 12s00r00           5638 	lcall	__gptrput
                           5639 ;	../../core/net/uip.c:1360: uip_ipaddr_copy(&uip_connr->ripaddr, &BUF->srcipaddr);
   1B00 7Er1A              5640 	mov	r6,#(_uip_aligned_buf + 0x000e)
   1B02 7Fs00              5641 	mov	r7,#((_uip_aligned_buf + 0x000e) >> 8)
   1B04 74 0C              5642 	mov	a,#0x0C
   1B06 2E                 5643 	add	a,r6
   1B07 FE                 5644 	mov	r6,a
   1B08 E4                 5645 	clr	a
   1B09 3F                 5646 	addc	a,r7
   1B0A FF                 5647 	mov	r7,a
   1B0B 8E 04              5648 	mov	ar4,r6
   1B0D 8F 03              5649 	mov	ar3,r7
   1B0F 7A 00              5650 	mov	r2,#0x00
   1B11 A8*00              5651 	mov	r0,_bp
   1B13 08                 5652 	inc	r0
   1B14 86 05              5653 	mov	ar5,@r0
   1B16 08                 5654 	inc	r0
   1B17 86 06              5655 	mov	ar6,@r0
   1B19 08                 5656 	inc	r0
   1B1A 86 07              5657 	mov	ar7,@r0
   1B1C 74 04              5658 	mov	a,#0x04
   1B1E C0 E0              5659 	push	acc
   1B20 E4                 5660 	clr	a
   1B21 C0 E0              5661 	push	acc
   1B23 C0 04              5662 	push	ar4
   1B25 C0 03              5663 	push	ar3
   1B27 C0 02              5664 	push	ar2
   1B29 8D 82              5665 	mov	dpl,r5
   1B2B 8E 83              5666 	mov	dph,r6
   1B2D 8F F0              5667 	mov	b,r7
   1B2F 12s00r00           5668 	lcall	_memcpy
   1B32 E5 81              5669 	mov	a,sp
   1B34 24 FB              5670 	add	a,#0xfb
   1B36 F5 81              5671 	mov	sp,a
                           5672 ;	../../core/net/uip.c:1361: uip_connr->tcpstateflags = UIP_SYN_RCVD;
   1B38 A8*00              5673 	mov	r0,_bp
   1B3A 08                 5674 	inc	r0
   1B3B 74 19              5675 	mov	a,#0x19
   1B3D 26                 5676 	add	a,@r0
   1B3E FD                 5677 	mov	r5,a
   1B3F E4                 5678 	clr	a
   1B40 08                 5679 	inc	r0
   1B41 36                 5680 	addc	a,@r0
   1B42 FE                 5681 	mov	r6,a
   1B43 08                 5682 	inc	r0
   1B44 86 07              5683 	mov	ar7,@r0
   1B46 8D 82              5684 	mov	dpl,r5
   1B48 8E 83              5685 	mov	dph,r6
   1B4A 8F F0              5686 	mov	b,r7
   1B4C 74 01              5687 	mov	a,#0x01
   1B4E 12s00r00           5688 	lcall	__gptrput
                           5689 ;	../../core/net/uip.c:1363: uip_connr->snd_nxt[0] = iss[0];
   1B51 A8*00              5690 	mov	r0,_bp
   1B53 08                 5691 	inc	r0
   1B54 74 0C              5692 	mov	a,#0x0C
   1B56 26                 5693 	add	a,@r0
   1B57 FE                 5694 	mov	r6,a
   1B58 E4                 5695 	clr	a
   1B59 08                 5696 	inc	r0
   1B5A 36                 5697 	addc	a,@r0
   1B5B FD                 5698 	mov	r5,a
   1B5C 08                 5699 	inc	r0
   1B5D 86 04              5700 	mov	ar4,@r0
   1B5F 90s02r9D           5701 	mov	dptr,#_iss
   1B62 E0                 5702 	movx	a,@dptr
   1B63 8E 82              5703 	mov	dpl,r6
   1B65 8D 83              5704 	mov	dph,r5
   1B67 8C F0              5705 	mov	b,r4
   1B69 12s00r00           5706 	lcall	__gptrput
                           5707 ;	../../core/net/uip.c:1364: uip_connr->snd_nxt[1] = iss[1];
   1B6C A8*00              5708 	mov	r0,_bp
   1B6E 08                 5709 	inc	r0
   1B6F 74 0C              5710 	mov	a,#0x0C
   1B71 26                 5711 	add	a,@r0
   1B72 FE                 5712 	mov	r6,a
   1B73 E4                 5713 	clr	a
   1B74 08                 5714 	inc	r0
   1B75 36                 5715 	addc	a,@r0
   1B76 FD                 5716 	mov	r5,a
   1B77 08                 5717 	inc	r0
   1B78 86 04              5718 	mov	ar4,@r0
   1B7A E5*00              5719 	mov	a,_bp
   1B7C 24 05              5720 	add	a,#0x05
   1B7E F8                 5721 	mov	r0,a
   1B7F 74 01              5722 	mov	a,#0x01
   1B81 2E                 5723 	add	a,r6
   1B82 F6                 5724 	mov	@r0,a
   1B83 E4                 5725 	clr	a
   1B84 3D                 5726 	addc	a,r5
   1B85 08                 5727 	inc	r0
   1B86 F6                 5728 	mov	@r0,a
   1B87 08                 5729 	inc	r0
   1B88 A6 04              5730 	mov	@r0,ar4
   1B8A 90s02r9E           5731 	mov	dptr,#(_iss + 0x0001)
   1B8D E0                 5732 	movx	a,@dptr
   1B8E FF                 5733 	mov	r7,a
   1B8F E5*00              5734 	mov	a,_bp
   1B91 24 05              5735 	add	a,#0x05
   1B93 F8                 5736 	mov	r0,a
   1B94 86 82              5737 	mov	dpl,@r0
   1B96 08                 5738 	inc	r0
   1B97 86 83              5739 	mov	dph,@r0
   1B99 08                 5740 	inc	r0
   1B9A 86 F0              5741 	mov	b,@r0
   1B9C EF                 5742 	mov	a,r7
   1B9D 12s00r00           5743 	lcall	__gptrput
                           5744 ;	../../core/net/uip.c:1365: uip_connr->snd_nxt[2] = iss[2];
   1BA0 E5*00              5745 	mov	a,_bp
   1BA2 24 05              5746 	add	a,#0x05
   1BA4 F8                 5747 	mov	r0,a
   1BA5 74 02              5748 	mov	a,#0x02
   1BA7 2E                 5749 	add	a,r6
   1BA8 F6                 5750 	mov	@r0,a
   1BA9 E4                 5751 	clr	a
   1BAA 3D                 5752 	addc	a,r5
   1BAB 08                 5753 	inc	r0
   1BAC F6                 5754 	mov	@r0,a
   1BAD 08                 5755 	inc	r0
   1BAE A6 04              5756 	mov	@r0,ar4
   1BB0 90s02r9F           5757 	mov	dptr,#(_iss + 0x0002)
   1BB3 E0                 5758 	movx	a,@dptr
   1BB4 FF                 5759 	mov	r7,a
   1BB5 E5*00              5760 	mov	a,_bp
   1BB7 24 05              5761 	add	a,#0x05
   1BB9 F8                 5762 	mov	r0,a
   1BBA 86 82              5763 	mov	dpl,@r0
   1BBC 08                 5764 	inc	r0
   1BBD 86 83              5765 	mov	dph,@r0
   1BBF 08                 5766 	inc	r0
   1BC0 86 F0              5767 	mov	b,@r0
   1BC2 EF                 5768 	mov	a,r7
   1BC3 12s00r00           5769 	lcall	__gptrput
                           5770 ;	../../core/net/uip.c:1366: uip_connr->snd_nxt[3] = iss[3];
   1BC6 74 03              5771 	mov	a,#0x03
   1BC8 2E                 5772 	add	a,r6
   1BC9 FE                 5773 	mov	r6,a
   1BCA E4                 5774 	clr	a
   1BCB 3D                 5775 	addc	a,r5
   1BCC FD                 5776 	mov	r5,a
   1BCD 90s02rA0           5777 	mov	dptr,#(_iss + 0x0003)
   1BD0 E0                 5778 	movx	a,@dptr
   1BD1 8E 82              5779 	mov	dpl,r6
   1BD3 8D 83              5780 	mov	dph,r5
   1BD5 8C F0              5781 	mov	b,r4
   1BD7 12s00r00           5782 	lcall	__gptrput
                           5783 ;	../../core/net/uip.c:1367: uip_connr->len = 1;
   1BDA A8*00              5784 	mov	r0,_bp
   1BDC 08                 5785 	inc	r0
   1BDD 74 10              5786 	mov	a,#0x10
   1BDF 26                 5787 	add	a,@r0
   1BE0 FD                 5788 	mov	r5,a
   1BE1 E4                 5789 	clr	a
   1BE2 08                 5790 	inc	r0
   1BE3 36                 5791 	addc	a,@r0
   1BE4 FE                 5792 	mov	r6,a
   1BE5 08                 5793 	inc	r0
   1BE6 86 07              5794 	mov	ar7,@r0
   1BE8 8D 82              5795 	mov	dpl,r5
   1BEA 8E 83              5796 	mov	dph,r6
   1BEC 8F F0              5797 	mov	b,r7
   1BEE 74 01              5798 	mov	a,#0x01
   1BF0 12s00r00           5799 	lcall	__gptrput
   1BF3 A3                 5800 	inc	dptr
   1BF4 E4                 5801 	clr	a
   1BF5 12s00r00           5802 	lcall	__gptrput
                           5803 ;	../../core/net/uip.c:1370: uip_connr->rcv_nxt[3] = BUF->seqno[3];
   1BF8 A8*00              5804 	mov	r0,_bp
   1BFA 08                 5805 	inc	r0
   1BFB 74 08              5806 	mov	a,#0x08
   1BFD 26                 5807 	add	a,@r0
   1BFE FD                 5808 	mov	r5,a
   1BFF E4                 5809 	clr	a
   1C00 08                 5810 	inc	r0
   1C01 36                 5811 	addc	a,@r0
   1C02 FC                 5812 	mov	r4,a
   1C03 08                 5813 	inc	r0
   1C04 86 03              5814 	mov	ar3,@r0
   1C06 E5*00              5815 	mov	a,_bp
   1C08 24 05              5816 	add	a,#0x05
   1C0A F8                 5817 	mov	r0,a
   1C0B 74 03              5818 	mov	a,#0x03
   1C0D 2D                 5819 	add	a,r5
   1C0E F6                 5820 	mov	@r0,a
   1C0F E4                 5821 	clr	a
   1C10 3C                 5822 	addc	a,r4
   1C11 08                 5823 	inc	r0
   1C12 F6                 5824 	mov	@r0,a
   1C13 08                 5825 	inc	r0
   1C14 A6 03              5826 	mov	@r0,ar3
   1C16 7Er1A              5827 	mov	r6,#(_uip_aligned_buf + 0x000e)
   1C18 7Fs00              5828 	mov	r7,#((_uip_aligned_buf + 0x000e) >> 8)
   1C1A 74 1B              5829 	mov	a,#0x1B
   1C1C 2E                 5830 	add	a,r6
   1C1D F5 82              5831 	mov	dpl,a
   1C1F E4                 5832 	clr	a
   1C20 3F                 5833 	addc	a,r7
   1C21 F5 83              5834 	mov	dph,a
   1C23 E0                 5835 	movx	a,@dptr
   1C24 FF                 5836 	mov	r7,a
   1C25 E5*00              5837 	mov	a,_bp
   1C27 24 05              5838 	add	a,#0x05
   1C29 F8                 5839 	mov	r0,a
   1C2A 86 82              5840 	mov	dpl,@r0
   1C2C 08                 5841 	inc	r0
   1C2D 86 83              5842 	mov	dph,@r0
   1C2F 08                 5843 	inc	r0
   1C30 86 F0              5844 	mov	b,@r0
   1C32 EF                 5845 	mov	a,r7
   1C33 12s00r00           5846 	lcall	__gptrput
                           5847 ;	../../core/net/uip.c:1371: uip_connr->rcv_nxt[2] = BUF->seqno[2];
   1C36 E5*00              5848 	mov	a,_bp
   1C38 24 05              5849 	add	a,#0x05
   1C3A F8                 5850 	mov	r0,a
   1C3B 74 02              5851 	mov	a,#0x02
   1C3D 2D                 5852 	add	a,r5
   1C3E F6                 5853 	mov	@r0,a
   1C3F E4                 5854 	clr	a
   1C40 3C                 5855 	addc	a,r4
   1C41 08                 5856 	inc	r0
   1C42 F6                 5857 	mov	@r0,a
   1C43 08                 5858 	inc	r0
   1C44 A6 03              5859 	mov	@r0,ar3
   1C46 7Er1A              5860 	mov	r6,#(_uip_aligned_buf + 0x000e)
   1C48 7Fs00              5861 	mov	r7,#((_uip_aligned_buf + 0x000e) >> 8)
   1C4A 74 1A              5862 	mov	a,#0x1A
   1C4C 2E                 5863 	add	a,r6
   1C4D F5 82              5864 	mov	dpl,a
   1C4F E4                 5865 	clr	a
   1C50 3F                 5866 	addc	a,r7
   1C51 F5 83              5867 	mov	dph,a
   1C53 E0                 5868 	movx	a,@dptr
   1C54 FF                 5869 	mov	r7,a
   1C55 E5*00              5870 	mov	a,_bp
   1C57 24 05              5871 	add	a,#0x05
   1C59 F8                 5872 	mov	r0,a
   1C5A 86 82              5873 	mov	dpl,@r0
   1C5C 08                 5874 	inc	r0
   1C5D 86 83              5875 	mov	dph,@r0
   1C5F 08                 5876 	inc	r0
   1C60 86 F0              5877 	mov	b,@r0
   1C62 EF                 5878 	mov	a,r7
   1C63 12s00r00           5879 	lcall	__gptrput
                           5880 ;	../../core/net/uip.c:1372: uip_connr->rcv_nxt[1] = BUF->seqno[1];
   1C66 E5*00              5881 	mov	a,_bp
   1C68 24 05              5882 	add	a,#0x05
   1C6A F8                 5883 	mov	r0,a
   1C6B 74 01              5884 	mov	a,#0x01
   1C6D 2D                 5885 	add	a,r5
   1C6E F6                 5886 	mov	@r0,a
   1C6F E4                 5887 	clr	a
   1C70 3C                 5888 	addc	a,r4
   1C71 08                 5889 	inc	r0
   1C72 F6                 5890 	mov	@r0,a
   1C73 08                 5891 	inc	r0
   1C74 A6 03              5892 	mov	@r0,ar3
   1C76 7Er1A              5893 	mov	r6,#(_uip_aligned_buf + 0x000e)
   1C78 7Fs00              5894 	mov	r7,#((_uip_aligned_buf + 0x000e) >> 8)
   1C7A 74 19              5895 	mov	a,#0x19
   1C7C 2E                 5896 	add	a,r6
   1C7D F5 82              5897 	mov	dpl,a
   1C7F E4                 5898 	clr	a
   1C80 3F                 5899 	addc	a,r7
   1C81 F5 83              5900 	mov	dph,a
   1C83 E0                 5901 	movx	a,@dptr
   1C84 FF                 5902 	mov	r7,a
   1C85 E5*00              5903 	mov	a,_bp
   1C87 24 05              5904 	add	a,#0x05
   1C89 F8                 5905 	mov	r0,a
   1C8A 86 82              5906 	mov	dpl,@r0
   1C8C 08                 5907 	inc	r0
   1C8D 86 83              5908 	mov	dph,@r0
   1C8F 08                 5909 	inc	r0
   1C90 86 F0              5910 	mov	b,@r0
   1C92 EF                 5911 	mov	a,r7
   1C93 12s00r00           5912 	lcall	__gptrput
                           5913 ;	../../core/net/uip.c:1373: uip_connr->rcv_nxt[0] = BUF->seqno[0];
   1C96 7Er1A              5914 	mov	r6,#(_uip_aligned_buf + 0x000e)
   1C98 7Fs00              5915 	mov	r7,#((_uip_aligned_buf + 0x000e) >> 8)
   1C9A 74 18              5916 	mov	a,#0x18
   1C9C 2E                 5917 	add	a,r6
   1C9D F5 82              5918 	mov	dpl,a
   1C9F E4                 5919 	clr	a
   1CA0 3F                 5920 	addc	a,r7
   1CA1 F5 83              5921 	mov	dph,a
   1CA3 E0                 5922 	movx	a,@dptr
   1CA4 8D 82              5923 	mov	dpl,r5
   1CA6 8C 83              5924 	mov	dph,r4
   1CA8 8B F0              5925 	mov	b,r3
   1CAA 12s00r00           5926 	lcall	__gptrput
                           5927 ;	../../core/net/uip.c:1374: uip_add_rcv_nxt(1);
   1CAD 90 00 01           5928 	mov	dptr,#0x0001
   1CB0 12s0Ar27           5929 	lcall	_uip_add_rcv_nxt
                           5930 ;	../../core/net/uip.c:1377: if((BUF->tcpoffset & 0xf0) > 0x50) {
   1CB3 7Er1A              5931 	mov	r6,#(_uip_aligned_buf + 0x000e)
   1CB5 7Fs00              5932 	mov	r7,#((_uip_aligned_buf + 0x000e) >> 8)
   1CB7 74 20              5933 	mov	a,#0x20
   1CB9 2E                 5934 	add	a,r6
   1CBA F5 82              5935 	mov	dpl,a
   1CBC E4                 5936 	clr	a
   1CBD 3F                 5937 	addc	a,r7
   1CBE F5 83              5938 	mov	dph,a
   1CC0 E0                 5939 	movx	a,@dptr
   1CC1 54 F0              5940 	anl	a,#0xF0
   1CC3 FF                 5941 	mov	r7,a
   1CC4 24 AF              5942 	add	a,#0xff - 0x50
   1CC6 40 03              5943 	jc	00788$
   1CC8 02s1Er2D           5944 	ljmp	00254$
   1CCB                    5945 00788$:
                           5946 ;	../../core/net/uip.c:1378: for(c = 0; c < ((BUF->tcpoffset >> 4) - 5) << 2 ;) {
   1CCB 90s02rA7           5947 	mov	dptr,#_c
   1CCE E4                 5948 	clr	a
   1CCF F0                 5949 	movx	@dptr,a
   1CD0                    5950 00249$:
   1CD0 7Er1A              5951 	mov	r6,#(_uip_aligned_buf + 0x000e)
   1CD2 7Fs00              5952 	mov	r7,#((_uip_aligned_buf + 0x000e) >> 8)
   1CD4 74 20              5953 	mov	a,#0x20
   1CD6 2E                 5954 	add	a,r6
   1CD7 F5 82              5955 	mov	dpl,a
   1CD9 E4                 5956 	clr	a
   1CDA 3F                 5957 	addc	a,r7
   1CDB F5 83              5958 	mov	dph,a
   1CDD E0                 5959 	movx	a,@dptr
   1CDE C4                 5960 	swap	a
   1CDF 54 0F              5961 	anl	a,#0x0F
   1CE1 7E 00              5962 	mov	r6,#0x00
   1CE3 24 FB              5963 	add	a,#0xFB
   1CE5 FF                 5964 	mov	r7,a
   1CE6 EE                 5965 	mov	a,r6
   1CE7 34 FF              5966 	addc	a,#0xFF
   1CE9 8F 04              5967 	mov	ar4,r7
   1CEB CC                 5968 	xch	a,r4
   1CEC 25 E0              5969 	add	a,acc
   1CEE CC                 5970 	xch	a,r4
   1CEF 33                 5971 	rlc	a
   1CF0 CC                 5972 	xch	a,r4
   1CF1 25 E0              5973 	add	a,acc
   1CF3 CC                 5974 	xch	a,r4
   1CF4 33                 5975 	rlc	a
   1CF5 FB                 5976 	mov	r3,a
   1CF6 90s02rA7           5977 	mov	dptr,#_c
   1CF9 E0                 5978 	movx	a,@dptr
   1CFA FD                 5979 	mov	r5,a
   1CFB FE                 5980 	mov	r6,a
   1CFC 7F 00              5981 	mov	r7,#0x00
   1CFE C3                 5982 	clr	c
   1CFF EE                 5983 	mov	a,r6
   1D00 9C                 5984 	subb	a,r4
   1D01 EF                 5985 	mov	a,r7
   1D02 64 80              5986 	xrl	a,#0x80
   1D04 8B F0              5987 	mov	b,r3
   1D06 63 F0 80           5988 	xrl	b,#0x80
   1D09 95 F0              5989 	subb	a,b
   1D0B 40 03              5990 	jc	00789$
   1D0D 02s1Er2D           5991 	ljmp	00254$
   1D10                    5992 00789$:
                           5993 ;	../../core/net/uip.c:1379: opt = uip_buf[UIP_TCPIP_HLEN + UIP_LLH_LEN + c];
   1D10 74 36              5994 	mov	a,#0x36
   1D12 2D                 5995 	add	a,r5
   1D13 24r0C              5996 	add	a,#_uip_aligned_buf
   1D15 F5 82              5997 	mov	dpl,a
   1D17 E4                 5998 	clr	a
   1D18 34s00              5999 	addc	a,#(_uip_aligned_buf >> 8)
   1D1A F5 83              6000 	mov	dph,a
   1D1C E0                 6001 	movx	a,@dptr
   1D1D FF                 6002 	mov	r7,a
   1D1E 90s02rA8           6003 	mov	dptr,#_opt
   1D21 F0                 6004 	movx	@dptr,a
                           6005 ;	../../core/net/uip.c:1380: if(opt == TCP_OPT_END) {
   1D22 EF                 6006 	mov	a,r7
   1D23 70 03              6007 	jnz	00790$
   1D25 02s1Er2D           6008 	ljmp	00254$
   1D28                    6009 00790$:
                           6010 ;	../../core/net/uip.c:1383: } else if(opt == TCP_OPT_NOOP) {
   1D28 BF 01 08           6011 	cjne	r7,#0x01,00244$
                           6012 ;	../../core/net/uip.c:1384: ++c;
   1D2B 90s02rA7           6013 	mov	dptr,#_c
   1D2E ED                 6014 	mov	a,r5
   1D2F 04                 6015 	inc	a
   1D30 F0                 6016 	movx	@dptr,a
   1D31 80 9D              6017 	sjmp	00249$
   1D33                    6018 00244$:
                           6019 ;	../../core/net/uip.c:1386: } else if(opt == TCP_OPT_MSS &&
   1D33 BF 02 02           6020 	cjne	r7,#0x02,00793$
   1D36 80 03              6021 	sjmp	00794$
   1D38                    6022 00793$:
   1D38 02s1Er02           6023 	ljmp	00240$
   1D3B                    6024 00794$:
                           6025 ;	../../core/net/uip.c:1387: uip_buf[UIP_TCPIP_HLEN + UIP_LLH_LEN + 1 + c] == TCP_OPT_MSS_LEN) {
   1D3B 74 37              6026 	mov	a,#0x37
   1D3D 2D                 6027 	add	a,r5
   1D3E 24r0C              6028 	add	a,#_uip_aligned_buf
   1D40 F5 82              6029 	mov	dpl,a
   1D42 E4                 6030 	clr	a
   1D43 34s00              6031 	addc	a,#(_uip_aligned_buf >> 8)
   1D45 F5 83              6032 	mov	dph,a
   1D47 E0                 6033 	movx	a,@dptr
   1D48 FF                 6034 	mov	r7,a
   1D49 BF 04 02           6035 	cjne	r7,#0x04,00795$
   1D4C 80 03              6036 	sjmp	00796$
   1D4E                    6037 00795$:
   1D4E 02s1Er02           6038 	ljmp	00240$
   1D51                    6039 00796$:
                           6040 ;	../../core/net/uip.c:1389: tmp16 = ((uint16_t)uip_buf[UIP_TCPIP_HLEN + UIP_LLH_LEN + 2 + c] << 8) |
   1D51 74 38              6041 	mov	a,#0x38
   1D53 2D                 6042 	add	a,r5
   1D54 24r0C              6043 	add	a,#_uip_aligned_buf
   1D56 F5 82              6044 	mov	dpl,a
   1D58 E4                 6045 	clr	a
   1D59 34s00              6046 	addc	a,#(_uip_aligned_buf >> 8)
   1D5B F5 83              6047 	mov	dph,a
   1D5D E0                 6048 	movx	a,@dptr
   1D5E FF                 6049 	mov	r7,a
   1D5F E5*00              6050 	mov	a,_bp
   1D61 24 0B              6051 	add	a,#0x0b
   1D63 F8                 6052 	mov	r0,a
   1D64 08                 6053 	inc	r0
   1D65 A6 07              6054 	mov	@r0,ar7
   1D67 18                 6055 	dec	r0
   1D68 76 00              6056 	mov	@r0,#0x00
                           6057 ;	../../core/net/uip.c:1390: (uint16_t)uip_buf[UIP_IPTCPH_LEN + UIP_LLH_LEN + 3 + c];
   1D6A 74 39              6058 	mov	a,#0x39
   1D6C 2D                 6059 	add	a,r5
   1D6D 24r0C              6060 	add	a,#_uip_aligned_buf
   1D6F F5 82              6061 	mov	dpl,a
   1D71 E4                 6062 	clr	a
   1D72 34s00              6063 	addc	a,#(_uip_aligned_buf >> 8)
   1D74 F5 83              6064 	mov	dph,a
   1D76 E0                 6065 	movx	a,@dptr
   1D77 FD                 6066 	mov	r5,a
   1D78 7F 00              6067 	mov	r7,#0x00
   1D7A E5*00              6068 	mov	a,_bp
   1D7C 24 0B              6069 	add	a,#0x0b
   1D7E F8                 6070 	mov	r0,a
   1D7F ED                 6071 	mov	a,r5
   1D80 46                 6072 	orl	a,@r0
   1D81 FE                 6073 	mov	r6,a
   1D82 EF                 6074 	mov	a,r7
   1D83 08                 6075 	inc	r0
   1D84 46                 6076 	orl	a,@r0
   1D85 FF                 6077 	mov	r7,a
   1D86 90s02rA9           6078 	mov	dptr,#_tmp16
   1D89 EE                 6079 	mov	a,r6
   1D8A F0                 6080 	movx	@dptr,a
   1D8B A3                 6081 	inc	dptr
   1D8C EF                 6082 	mov	a,r7
   1D8D F0                 6083 	movx	@dptr,a
                           6084 ;	../../core/net/uip.c:1391: uip_connr->initialmss = uip_connr->mss =
   1D8E A8*00              6085 	mov	r0,_bp
   1D90 08                 6086 	inc	r0
   1D91 74 14              6087 	mov	a,#0x14
   1D93 26                 6088 	add	a,@r0
   1D94 FD                 6089 	mov	r5,a
   1D95 E4                 6090 	clr	a
   1D96 08                 6091 	inc	r0
   1D97 36                 6092 	addc	a,@r0
   1D98 FC                 6093 	mov	r4,a
   1D99 08                 6094 	inc	r0
   1D9A 86 03              6095 	mov	ar3,@r0
   1D9C A8*00              6096 	mov	r0,_bp
   1D9E 08                 6097 	inc	r0
   1D9F E5*00              6098 	mov	a,_bp
   1DA1 24 05              6099 	add	a,#0x05
   1DA3 F9                 6100 	mov	r1,a
   1DA4 74 12              6101 	mov	a,#0x12
   1DA6 26                 6102 	add	a,@r0
   1DA7 F7                 6103 	mov	@r1,a
   1DA8 E4                 6104 	clr	a
   1DA9 08                 6105 	inc	r0
   1DAA 36                 6106 	addc	a,@r0
   1DAB 09                 6107 	inc	r1
   1DAC F7                 6108 	mov	@r1,a
   1DAD 08                 6109 	inc	r0
   1DAE 09                 6110 	inc	r1
   1DAF E6                 6111 	mov	a,@r0
   1DB0 F7                 6112 	mov	@r1,a
                           6113 ;	../../core/net/uip.c:1392: tmp16 > UIP_TCP_MSS? UIP_TCP_MSS: tmp16;
   1DB1 C3                 6114 	clr	c
   1DB2 74 36              6115 	mov	a,#0x36
   1DB4 9E                 6116 	subb	a,r6
   1DB5 E4                 6117 	clr	a
   1DB6 9F                 6118 	subb	a,r7
   1DB7 50 0C              6119 	jnc	00404$
   1DB9 E5*00              6120 	mov	a,_bp
   1DBB 24 0E              6121 	add	a,#0x0e
   1DBD F8                 6122 	mov	r0,a
   1DBE 76 36              6123 	mov	@r0,#0x36
   1DC0 08                 6124 	inc	r0
   1DC1 76 00              6125 	mov	@r0,#0x00
   1DC3 80 0A              6126 	sjmp	00405$
   1DC5                    6127 00404$:
   1DC5 E5*00              6128 	mov	a,_bp
   1DC7 24 0E              6129 	add	a,#0x0e
   1DC9 F8                 6130 	mov	r0,a
   1DCA A6 06              6131 	mov	@r0,ar6
   1DCC 08                 6132 	inc	r0
   1DCD A6 07              6133 	mov	@r0,ar7
   1DCF                    6134 00405$:
   1DCF E5*00              6135 	mov	a,_bp
   1DD1 24 05              6136 	add	a,#0x05
   1DD3 F8                 6137 	mov	r0,a
   1DD4 86 82              6138 	mov	dpl,@r0
   1DD6 08                 6139 	inc	r0
   1DD7 86 83              6140 	mov	dph,@r0
   1DD9 08                 6141 	inc	r0
   1DDA 86 F0              6142 	mov	b,@r0
   1DDC E5*00              6143 	mov	a,_bp
   1DDE 24 0E              6144 	add	a,#0x0e
   1DE0 F9                 6145 	mov	r1,a
   1DE1 E7                 6146 	mov	a,@r1
   1DE2 12s00r00           6147 	lcall	__gptrput
   1DE5 A3                 6148 	inc	dptr
   1DE6 09                 6149 	inc	r1
   1DE7 E7                 6150 	mov	a,@r1
   1DE8 12s00r00           6151 	lcall	__gptrput
   1DEB 8D 82              6152 	mov	dpl,r5
   1DED 8C 83              6153 	mov	dph,r4
   1DEF 8B F0              6154 	mov	b,r3
   1DF1 E5*00              6155 	mov	a,_bp
   1DF3 24 0E              6156 	add	a,#0x0e
   1DF5 F8                 6157 	mov	r0,a
   1DF6 E6                 6158 	mov	a,@r0
   1DF7 12s00r00           6159 	lcall	__gptrput
   1DFA A3                 6160 	inc	dptr
   1DFB 08                 6161 	inc	r0
   1DFC E6                 6162 	mov	a,@r0
   1DFD 12s00r00           6163 	lcall	__gptrput
                           6164 ;	../../core/net/uip.c:1395: break;
   1E00 80 2B              6165 	sjmp	00254$
   1E02                    6166 00240$:
                           6167 ;	../../core/net/uip.c:1399: if(uip_buf[UIP_TCPIP_HLEN + UIP_LLH_LEN + 1 + c] == 0) {
   1E02 90s02rA7           6168 	mov	dptr,#_c
   1E05 E0                 6169 	movx	a,@dptr
   1E06 FF                 6170 	mov	r7,a
   1E07 24 37              6171 	add	a,#0x37
   1E09 24r0C              6172 	add	a,#_uip_aligned_buf
   1E0B FD                 6173 	mov	r5,a
   1E0C E4                 6174 	clr	a
   1E0D 34s00              6175 	addc	a,#(_uip_aligned_buf >> 8)
   1E0F FE                 6176 	mov	r6,a
   1E10 8D 82              6177 	mov	dpl,r5
   1E12 8E 83              6178 	mov	dph,r6
   1E14 E0                 6179 	movx	a,@dptr
   1E15 60 16              6180 	jz	00254$
                           6181 ;	../../core/net/uip.c:1404: c += uip_buf[UIP_TCPIP_HLEN + UIP_LLH_LEN + 1 + c];
   1E17 74 37              6182 	mov	a,#0x37
   1E19 2F                 6183 	add	a,r7
   1E1A 24r0C              6184 	add	a,#_uip_aligned_buf
   1E1C F5 82              6185 	mov	dpl,a
   1E1E E4                 6186 	clr	a
   1E1F 34s00              6187 	addc	a,#(_uip_aligned_buf >> 8)
   1E21 F5 83              6188 	mov	dph,a
   1E23 E0                 6189 	movx	a,@dptr
   1E24 FE                 6190 	mov	r6,a
   1E25 90s02rA7           6191 	mov	dptr,#_c
   1E28 2F                 6192 	add	a,r7
   1E29 F0                 6193 	movx	@dptr,a
   1E2A 02s1CrD0           6194 	ljmp	00249$
                           6195 ;	../../core/net/uip.c:1411: tcp_send_synack:
   1E2D                    6196 00254$:
                           6197 ;	../../core/net/uip.c:1412: BUF->flags = TCP_ACK;
   1E2D 7Er1A              6198 	mov	r6,#(_uip_aligned_buf + 0x000e)
   1E2F 7Fs00              6199 	mov	r7,#((_uip_aligned_buf + 0x000e) >> 8)
   1E31 74 21              6200 	mov	a,#0x21
   1E33 2E                 6201 	add	a,r6
   1E34 F5 82              6202 	mov	dpl,a
   1E36 E4                 6203 	clr	a
   1E37 3F                 6204 	addc	a,r7
   1E38 F5 83              6205 	mov	dph,a
   1E3A 74 10              6206 	mov	a,#0x10
   1E3C F0                 6207 	movx	@dptr,a
                           6208 ;	../../core/net/uip.c:1414: tcp_send_syn:
   1E3D                    6209 00255$:
                           6210 ;	../../core/net/uip.c:1415: BUF->flags |= TCP_SYN;
   1E3D 7Er1A              6211 	mov	r6,#(_uip_aligned_buf + 0x000e)
   1E3F 7Fs00              6212 	mov	r7,#((_uip_aligned_buf + 0x000e) >> 8)
   1E41 74 21              6213 	mov	a,#0x21
   1E43 2E                 6214 	add	a,r6
   1E44 FE                 6215 	mov	r6,a
   1E45 E4                 6216 	clr	a
   1E46 3F                 6217 	addc	a,r7
   1E47 FC                 6218 	mov	r4,a
   1E48 7Dr1A              6219 	mov	r5,#(_uip_aligned_buf + 0x000e)
   1E4A 7Fs00              6220 	mov	r7,#((_uip_aligned_buf + 0x000e) >> 8)
   1E4C 74 21              6221 	mov	a,#0x21
   1E4E 2D                 6222 	add	a,r5
   1E4F F5 82              6223 	mov	dpl,a
   1E51 E4                 6224 	clr	a
   1E52 3F                 6225 	addc	a,r7
   1E53 F5 83              6226 	mov	dph,a
   1E55 E0                 6227 	movx	a,@dptr
   1E56 FF                 6228 	mov	r7,a
   1E57 43 07 02           6229 	orl	ar7,#0x02
   1E5A 8E 82              6230 	mov	dpl,r6
   1E5C 8C 83              6231 	mov	dph,r4
   1E5E EF                 6232 	mov	a,r7
   1E5F F0                 6233 	movx	@dptr,a
                           6234 ;	../../core/net/uip.c:1423: BUF->optdata[0] = TCP_OPT_MSS;
   1E60 7Er1A              6235 	mov	r6,#(_uip_aligned_buf + 0x000e)
   1E62 7Fs00              6236 	mov	r7,#((_uip_aligned_buf + 0x000e) >> 8)
   1E64 74 28              6237 	mov	a,#0x28
   1E66 2E                 6238 	add	a,r6
   1E67 F5 82              6239 	mov	dpl,a
   1E69 E4                 6240 	clr	a
   1E6A 3F                 6241 	addc	a,r7
   1E6B F5 83              6242 	mov	dph,a
   1E6D 74 02              6243 	mov	a,#0x02
   1E6F F0                 6244 	movx	@dptr,a
                           6245 ;	../../core/net/uip.c:1424: BUF->optdata[1] = TCP_OPT_MSS_LEN;
   1E70 7Er1A              6246 	mov	r6,#(_uip_aligned_buf + 0x000e)
   1E72 7Fs00              6247 	mov	r7,#((_uip_aligned_buf + 0x000e) >> 8)
   1E74 74 29              6248 	mov	a,#0x29
   1E76 2E                 6249 	add	a,r6
   1E77 F5 82              6250 	mov	dpl,a
   1E79 E4                 6251 	clr	a
   1E7A 3F                 6252 	addc	a,r7
   1E7B F5 83              6253 	mov	dph,a
   1E7D 74 04              6254 	mov	a,#0x04
   1E7F F0                 6255 	movx	@dptr,a
                           6256 ;	../../core/net/uip.c:1425: BUF->optdata[2] = (UIP_TCP_MSS) / 256;
   1E80 7Er1A              6257 	mov	r6,#(_uip_aligned_buf + 0x000e)
   1E82 7Fs00              6258 	mov	r7,#((_uip_aligned_buf + 0x000e) >> 8)
   1E84 74 2A              6259 	mov	a,#0x2A
   1E86 2E                 6260 	add	a,r6
   1E87 F5 82              6261 	mov	dpl,a
   1E89 E4                 6262 	clr	a
   1E8A 3F                 6263 	addc	a,r7
   1E8B F5 83              6264 	mov	dph,a
   1E8D E4                 6265 	clr	a
   1E8E F0                 6266 	movx	@dptr,a
                           6267 ;	../../core/net/uip.c:1426: BUF->optdata[3] = (UIP_TCP_MSS) & 255;
   1E8F 7Er1A              6268 	mov	r6,#(_uip_aligned_buf + 0x000e)
   1E91 7Fs00              6269 	mov	r7,#((_uip_aligned_buf + 0x000e) >> 8)
   1E93 74 2B              6270 	mov	a,#0x2B
   1E95 2E                 6271 	add	a,r6
   1E96 F5 82              6272 	mov	dpl,a
   1E98 E4                 6273 	clr	a
   1E99 3F                 6274 	addc	a,r7
   1E9A F5 83              6275 	mov	dph,a
   1E9C 74 36              6276 	mov	a,#0x36
   1E9E F0                 6277 	movx	@dptr,a
                           6278 ;	../../core/net/uip.c:1427: uip_len = UIP_IPTCPH_LEN + TCP_OPT_MSS_LEN;
   1E9F 90s00r7E           6279 	mov	dptr,#_uip_len
   1EA2 74 2C              6280 	mov	a,#0x2C
   1EA4 F0                 6281 	movx	@dptr,a
   1EA5 A3                 6282 	inc	dptr
   1EA6 E4                 6283 	clr	a
   1EA7 F0                 6284 	movx	@dptr,a
                           6285 ;	../../core/net/uip.c:1428: BUF->tcpoffset = ((UIP_TCPH_LEN + TCP_OPT_MSS_LEN) / 4) << 4;
   1EA8 7Er1A              6286 	mov	r6,#(_uip_aligned_buf + 0x000e)
   1EAA 7Fs00              6287 	mov	r7,#((_uip_aligned_buf + 0x000e) >> 8)
   1EAC 74 20              6288 	mov	a,#0x20
   1EAE 2E                 6289 	add	a,r6
   1EAF F5 82              6290 	mov	dpl,a
   1EB1 E4                 6291 	clr	a
   1EB2 3F                 6292 	addc	a,r7
   1EB3 F5 83              6293 	mov	dph,a
   1EB5 74 60              6294 	mov	a,#0x60
   1EB7 F0                 6295 	movx	@dptr,a
                           6296 ;	../../core/net/uip.c:1429: goto tcp_send;
   1EB8 02s2Dr4B           6297 	ljmp	00381$
                           6298 ;	../../core/net/uip.c:1432: found:
   1EBB                    6299 00256$:
                           6300 ;	../../core/net/uip.c:1433: uip_conn = uip_connr;
   1EBB A8*00              6301 	mov	r0,_bp
   1EBD 08                 6302 	inc	r0
   1EBE 90s00r83           6303 	mov	dptr,#_uip_conn
   1EC1 E6                 6304 	mov	a,@r0
   1EC2 F0                 6305 	movx	@dptr,a
   1EC3 08                 6306 	inc	r0
   1EC4 A3                 6307 	inc	dptr
   1EC5 E6                 6308 	mov	a,@r0
   1EC6 F0                 6309 	movx	@dptr,a
   1EC7 08                 6310 	inc	r0
   1EC8 A3                 6311 	inc	dptr
   1EC9 E6                 6312 	mov	a,@r0
   1ECA F0                 6313 	movx	@dptr,a
                           6314 ;	../../core/net/uip.c:1434: uip_flags = 0;
   1ECB 90s00r82           6315 	mov	dptr,#_uip_flags
   1ECE E4                 6316 	clr	a
   1ECF F0                 6317 	movx	@dptr,a
                           6318 ;	../../core/net/uip.c:1439: if(BUF->flags & TCP_RST) {
   1ED0 7Er1A              6319 	mov	r6,#(_uip_aligned_buf + 0x000e)
   1ED2 7Fs00              6320 	mov	r7,#((_uip_aligned_buf + 0x000e) >> 8)
   1ED4 74 21              6321 	mov	a,#0x21
   1ED6 2E                 6322 	add	a,r6
   1ED7 F5 82              6323 	mov	dpl,a
   1ED9 E4                 6324 	clr	a
   1EDA 3F                 6325 	addc	a,r7
   1EDB F5 83              6326 	mov	dph,a
   1EDD E0                 6327 	movx	a,@dptr
   1EDE FF                 6328 	mov	r7,a
   1EDF 30 E2 16           6329 	jnb	acc.2,00258$
                           6330 ;	../../core/net/uip.c:1440: uip_connr->tcpstateflags = UIP_CLOSED;
   1EE2 8A 82              6331 	mov	dpl,r2
   1EE4 8B 83              6332 	mov	dph,r3
   1EE6 8C F0              6333 	mov	b,r4
   1EE8 E4                 6334 	clr	a
   1EE9 12s00r00           6335 	lcall	__gptrput
                           6336 ;	../../core/net/uip.c:1442: uip_flags = UIP_ABORT;
   1EEC 90s00r82           6337 	mov	dptr,#_uip_flags
   1EEF 74 20              6338 	mov	a,#0x20
   1EF1 F0                 6339 	movx	@dptr,a
                           6340 ;	../../core/net/uip.c:1443: UIP_APPCALL();
   1EF2 12s00r00           6341 	lcall	_tcpip_uipcall
                           6342 ;	../../core/net/uip.c:1444: goto drop;
   1EF5 02s30rFB           6343 	ljmp	00387$
   1EF8                    6344 00258$:
                           6345 ;	../../core/net/uip.c:1448: c = (BUF->tcpoffset >> 4) << 2;
   1EF8 7Er1A              6346 	mov	r6,#(_uip_aligned_buf + 0x000e)
   1EFA 7Fs00              6347 	mov	r7,#((_uip_aligned_buf + 0x000e) >> 8)
   1EFC 74 20              6348 	mov	a,#0x20
   1EFE 2E                 6349 	add	a,r6
   1EFF F5 82              6350 	mov	dpl,a
   1F01 E4                 6351 	clr	a
   1F02 3F                 6352 	addc	a,r7
   1F03 F5 83              6353 	mov	dph,a
   1F05 E0                 6354 	movx	a,@dptr
   1F06 C4                 6355 	swap	a
   1F07 54 0F              6356 	anl	a,#0x0F
   1F09 25 E0              6357 	add	a,acc
   1F0B 25 E0              6358 	add	a,acc
   1F0D FF                 6359 	mov	r7,a
   1F0E 90s02rA7           6360 	mov	dptr,#_c
   1F11 F0                 6361 	movx	@dptr,a
                           6362 ;	../../core/net/uip.c:1452: uip_len = uip_len - c - UIP_IPH_LEN;
   1F12 90s00r7E           6363 	mov	dptr,#_uip_len
   1F15 E0                 6364 	movx	a,@dptr
   1F16 FD                 6365 	mov	r5,a
   1F17 A3                 6366 	inc	dptr
   1F18 E0                 6367 	movx	a,@dptr
   1F19 FE                 6368 	mov	r6,a
   1F1A 7C 00              6369 	mov	r4,#0x00
   1F1C ED                 6370 	mov	a,r5
   1F1D C3                 6371 	clr	c
   1F1E 9F                 6372 	subb	a,r7
   1F1F FD                 6373 	mov	r5,a
   1F20 EE                 6374 	mov	a,r6
   1F21 9C                 6375 	subb	a,r4
   1F22 FE                 6376 	mov	r6,a
   1F23 ED                 6377 	mov	a,r5
   1F24 24 EC              6378 	add	a,#0xEC
   1F26 FD                 6379 	mov	r5,a
   1F27 EE                 6380 	mov	a,r6
   1F28 34 FF              6381 	addc	a,#0xFF
   1F2A FE                 6382 	mov	r6,a
   1F2B 90s00r7E           6383 	mov	dptr,#_uip_len
   1F2E ED                 6384 	mov	a,r5
   1F2F F0                 6385 	movx	@dptr,a
   1F30 A3                 6386 	inc	dptr
   1F31 EE                 6387 	mov	a,r6
   1F32 F0                 6388 	movx	@dptr,a
                           6389 ;	../../core/net/uip.c:1459: if(!((((uip_connr->tcpstateflags & UIP_TS_MASK) == UIP_SYN_SENT) &&
   1F33 E5*00              6390 	mov	a,_bp
   1F35 24 08              6391 	add	a,#0x08
   1F37 F8                 6392 	mov	r0,a
   1F38 74 0F              6393 	mov	a,#0x0F
   1F3A 56                 6394 	anl	a,@r0
   1F3B FF                 6395 	mov	r7,a
   1F3C BF 02 18           6396 	cjne	r7,#0x02,00270$
                           6397 ;	../../core/net/uip.c:1460: ((BUF->flags & TCP_CTL) == (TCP_SYN | TCP_ACK))) ||
   1F3F 7Er1A              6398 	mov	r6,#(_uip_aligned_buf + 0x000e)
   1F41 7Fs00              6399 	mov	r7,#((_uip_aligned_buf + 0x000e) >> 8)
   1F43 74 21              6400 	mov	a,#0x21
   1F45 2E                 6401 	add	a,r6
   1F46 F5 82              6402 	mov	dpl,a
   1F48 E4                 6403 	clr	a
   1F49 3F                 6404 	addc	a,r7
   1F4A F5 83              6405 	mov	dph,a
   1F4C E0                 6406 	movx	a,@dptr
   1F4D FF                 6407 	mov	r7,a
   1F4E 53 07 3F           6408 	anl	ar7,#0x3F
   1F51 BF 12 03           6409 	cjne	r7,#0x12,00802$
   1F54 02s20r89           6410 	ljmp	00267$
   1F57                    6411 00802$:
   1F57                    6412 00270$:
                           6413 ;	../../core/net/uip.c:1461: (((uip_connr->tcpstateflags & UIP_TS_MASK) == UIP_SYN_RCVD) &&
   1F57 A8*00              6414 	mov	r0,_bp
   1F59 08                 6415 	inc	r0
   1F5A 74 19              6416 	mov	a,#0x19
   1F5C 26                 6417 	add	a,@r0
   1F5D FD                 6418 	mov	r5,a
   1F5E E4                 6419 	clr	a
   1F5F 08                 6420 	inc	r0
   1F60 36                 6421 	addc	a,@r0
   1F61 FE                 6422 	mov	r6,a
   1F62 08                 6423 	inc	r0
   1F63 86 07              6424 	mov	ar7,@r0
   1F65 8D 82              6425 	mov	dpl,r5
   1F67 8E 83              6426 	mov	dph,r6
   1F69 8F F0              6427 	mov	b,r7
   1F6B 12s00r00           6428 	lcall	__gptrget
   1F6E FD                 6429 	mov	r5,a
   1F6F 53 05 0F           6430 	anl	ar5,#0x0F
   1F72 BD 01 18           6431 	cjne	r5,#0x01,00266$
                           6432 ;	../../core/net/uip.c:1462: ((BUF->flags & TCP_CTL) == TCP_SYN)))) {
   1F75 7Er1A              6433 	mov	r6,#(_uip_aligned_buf + 0x000e)
   1F77 7Fs00              6434 	mov	r7,#((_uip_aligned_buf + 0x000e) >> 8)
   1F79 74 21              6435 	mov	a,#0x21
   1F7B 2E                 6436 	add	a,r6
   1F7C F5 82              6437 	mov	dpl,a
   1F7E E4                 6438 	clr	a
   1F7F 3F                 6439 	addc	a,r7
   1F80 F5 83              6440 	mov	dph,a
   1F82 E0                 6441 	movx	a,@dptr
   1F83 FF                 6442 	mov	r7,a
   1F84 53 07 3F           6443 	anl	ar7,#0x3F
   1F87 BF 02 03           6444 	cjne	r7,#0x02,00805$
   1F8A 02s20r89           6445 	ljmp	00267$
   1F8D                    6446 00805$:
   1F8D                    6447 00266$:
                           6448 ;	../../core/net/uip.c:1463: if((uip_len > 0 || ((BUF->flags & (TCP_SYN | TCP_FIN)) != 0)) &&
   1F8D 90s00r7E           6449 	mov	dptr,#_uip_len
   1F90 E0                 6450 	movx	a,@dptr
   1F91 FE                 6451 	mov	r6,a
   1F92 A3                 6452 	inc	dptr
   1F93 E0                 6453 	movx	a,@dptr
   1F94 FF                 6454 	mov	r7,a
   1F95 4E                 6455 	orl	a,r6
   1F96 70 16              6456 	jnz	00265$
   1F98 7Er1A              6457 	mov	r6,#(_uip_aligned_buf + 0x000e)
   1F9A 7Fs00              6458 	mov	r7,#((_uip_aligned_buf + 0x000e) >> 8)
   1F9C 74 21              6459 	mov	a,#0x21
   1F9E 2E                 6460 	add	a,r6
   1F9F F5 82              6461 	mov	dpl,a
   1FA1 E4                 6462 	clr	a
   1FA2 3F                 6463 	addc	a,r7
   1FA3 F5 83              6464 	mov	dph,a
   1FA5 E0                 6465 	movx	a,@dptr
   1FA6 FF                 6466 	mov	r7,a
   1FA7 54 03              6467 	anl	a,#0x03
   1FA9 70 03              6468 	jnz	00807$
   1FAB 02s20r89           6469 	ljmp	00267$
   1FAE                    6470 00807$:
   1FAE                    6471 00265$:
                           6472 ;	../../core/net/uip.c:1464: (BUF->seqno[0] != uip_connr->rcv_nxt[0] ||
   1FAE 7Er1A              6473 	mov	r6,#(_uip_aligned_buf + 0x000e)
   1FB0 7Fs00              6474 	mov	r7,#((_uip_aligned_buf + 0x000e) >> 8)
   1FB2 74 18              6475 	mov	a,#0x18
   1FB4 2E                 6476 	add	a,r6
   1FB5 FE                 6477 	mov	r6,a
   1FB6 E4                 6478 	clr	a
   1FB7 3F                 6479 	addc	a,r7
   1FB8 FF                 6480 	mov	r7,a
   1FB9 A8*00              6481 	mov	r0,_bp
   1FBB 08                 6482 	inc	r0
   1FBC 74 08              6483 	mov	a,#0x08
   1FBE 26                 6484 	add	a,@r0
   1FBF FB                 6485 	mov	r3,a
   1FC0 E4                 6486 	clr	a
   1FC1 08                 6487 	inc	r0
   1FC2 36                 6488 	addc	a,@r0
   1FC3 FC                 6489 	mov	r4,a
   1FC4 08                 6490 	inc	r0
   1FC5 86 05              6491 	mov	ar5,@r0
   1FC7 8E 82              6492 	mov	dpl,r6
   1FC9 8F 83              6493 	mov	dph,r7
   1FCB E0                 6494 	movx	a,@dptr
   1FCC FE                 6495 	mov	r6,a
   1FCD 8B 82              6496 	mov	dpl,r3
   1FCF 8C 83              6497 	mov	dph,r4
   1FD1 8D F0              6498 	mov	b,r5
   1FD3 12s00r00           6499 	lcall	__gptrget
   1FD6 FB                 6500 	mov	r3,a
   1FD7 EE                 6501 	mov	a,r6
   1FD8 B5 03 02           6502 	cjne	a,ar3,00808$
   1FDB 80 03              6503 	sjmp	00809$
   1FDD                    6504 00808$:
   1FDD 02s2Dr22           6505 	ljmp	00378$
   1FE0                    6506 00809$:
                           6507 ;	../../core/net/uip.c:1465: BUF->seqno[1] != uip_connr->rcv_nxt[1] ||
   1FE0 7Er1A              6508 	mov	r6,#(_uip_aligned_buf + 0x000e)
   1FE2 7Fs00              6509 	mov	r7,#((_uip_aligned_buf + 0x000e) >> 8)
   1FE4 74 19              6510 	mov	a,#0x19
   1FE6 2E                 6511 	add	a,r6
   1FE7 FE                 6512 	mov	r6,a
   1FE8 E4                 6513 	clr	a
   1FE9 3F                 6514 	addc	a,r7
   1FEA FF                 6515 	mov	r7,a
   1FEB A8*00              6516 	mov	r0,_bp
   1FED 08                 6517 	inc	r0
   1FEE 74 08              6518 	mov	a,#0x08
   1FF0 26                 6519 	add	a,@r0
   1FF1 FB                 6520 	mov	r3,a
   1FF2 E4                 6521 	clr	a
   1FF3 08                 6522 	inc	r0
   1FF4 36                 6523 	addc	a,@r0
   1FF5 FC                 6524 	mov	r4,a
   1FF6 08                 6525 	inc	r0
   1FF7 86 05              6526 	mov	ar5,@r0
   1FF9 0B                 6527 	inc	r3
   1FFA BB 00 01           6528 	cjne	r3,#0x00,00810$
   1FFD 0C                 6529 	inc	r4
   1FFE                    6530 00810$:
   1FFE 8E 82              6531 	mov	dpl,r6
   2000 8F 83              6532 	mov	dph,r7
   2002 E0                 6533 	movx	a,@dptr
   2003 FE                 6534 	mov	r6,a
   2004 8B 82              6535 	mov	dpl,r3
   2006 8C 83              6536 	mov	dph,r4
   2008 8D F0              6537 	mov	b,r5
   200A 12s00r00           6538 	lcall	__gptrget
   200D FB                 6539 	mov	r3,a
   200E EE                 6540 	mov	a,r6
   200F B5 03 02           6541 	cjne	a,ar3,00811$
   2012 80 03              6542 	sjmp	00812$
   2014                    6543 00811$:
   2014 02s2Dr22           6544 	ljmp	00378$
   2017                    6545 00812$:
                           6546 ;	../../core/net/uip.c:1466: BUF->seqno[2] != uip_connr->rcv_nxt[2] ||
   2017 7Er1A              6547 	mov	r6,#(_uip_aligned_buf + 0x000e)
   2019 7Fs00              6548 	mov	r7,#((_uip_aligned_buf + 0x000e) >> 8)
   201B 74 1A              6549 	mov	a,#0x1A
   201D 2E                 6550 	add	a,r6
   201E FE                 6551 	mov	r6,a
   201F E4                 6552 	clr	a
   2020 3F                 6553 	addc	a,r7
   2021 FF                 6554 	mov	r7,a
   2022 A8*00              6555 	mov	r0,_bp
   2024 08                 6556 	inc	r0
   2025 74 08              6557 	mov	a,#0x08
   2027 26                 6558 	add	a,@r0
   2028 FB                 6559 	mov	r3,a
   2029 E4                 6560 	clr	a
   202A 08                 6561 	inc	r0
   202B 36                 6562 	addc	a,@r0
   202C FC                 6563 	mov	r4,a
   202D 08                 6564 	inc	r0
   202E 86 05              6565 	mov	ar5,@r0
   2030 74 02              6566 	mov	a,#0x02
   2032 2B                 6567 	add	a,r3
   2033 FB                 6568 	mov	r3,a
   2034 E4                 6569 	clr	a
   2035 3C                 6570 	addc	a,r4
   2036 FC                 6571 	mov	r4,a
   2037 8E 82              6572 	mov	dpl,r6
   2039 8F 83              6573 	mov	dph,r7
   203B E0                 6574 	movx	a,@dptr
   203C FE                 6575 	mov	r6,a
   203D 8B 82              6576 	mov	dpl,r3
   203F 8C 83              6577 	mov	dph,r4
   2041 8D F0              6578 	mov	b,r5
   2043 12s00r00           6579 	lcall	__gptrget
   2046 FB                 6580 	mov	r3,a
   2047 EE                 6581 	mov	a,r6
   2048 B5 03 02           6582 	cjne	a,ar3,00813$
   204B 80 03              6583 	sjmp	00814$
   204D                    6584 00813$:
   204D 02s2Dr22           6585 	ljmp	00378$
   2050                    6586 00814$:
                           6587 ;	../../core/net/uip.c:1467: BUF->seqno[3] != uip_connr->rcv_nxt[3])) {
   2050 7Er1A              6588 	mov	r6,#(_uip_aligned_buf + 0x000e)
   2052 7Fs00              6589 	mov	r7,#((_uip_aligned_buf + 0x000e) >> 8)
   2054 74 1B              6590 	mov	a,#0x1B
   2056 2E                 6591 	add	a,r6
   2057 FE                 6592 	mov	r6,a
   2058 E4                 6593 	clr	a
   2059 3F                 6594 	addc	a,r7
   205A FF                 6595 	mov	r7,a
   205B A8*00              6596 	mov	r0,_bp
   205D 08                 6597 	inc	r0
   205E 74 08              6598 	mov	a,#0x08
   2060 26                 6599 	add	a,@r0
   2061 FB                 6600 	mov	r3,a
   2062 E4                 6601 	clr	a
   2063 08                 6602 	inc	r0
   2064 36                 6603 	addc	a,@r0
   2065 FC                 6604 	mov	r4,a
   2066 08                 6605 	inc	r0
   2067 86 05              6606 	mov	ar5,@r0
   2069 74 03              6607 	mov	a,#0x03
   206B 2B                 6608 	add	a,r3
   206C FB                 6609 	mov	r3,a
   206D E4                 6610 	clr	a
   206E 3C                 6611 	addc	a,r4
   206F FC                 6612 	mov	r4,a
   2070 8E 82              6613 	mov	dpl,r6
   2072 8F 83              6614 	mov	dph,r7
   2074 E0                 6615 	movx	a,@dptr
   2075 FE                 6616 	mov	r6,a
   2076 8B 82              6617 	mov	dpl,r3
   2078 8C 83              6618 	mov	dph,r4
   207A 8D F0              6619 	mov	b,r5
   207C 12s00r00           6620 	lcall	__gptrget
   207F FB                 6621 	mov	r3,a
   2080 EE                 6622 	mov	a,r6
   2081 B5 03 02           6623 	cjne	a,ar3,00815$
   2084 80 03              6624 	sjmp	00816$
   2086                    6625 00815$:
   2086 02s2Dr22           6626 	ljmp	00378$
   2089                    6627 00816$:
                           6628 ;	../../core/net/uip.c:1468: goto tcp_send_ack;
   2089                    6629 00267$:
                           6630 ;	../../core/net/uip.c:1476: if((BUF->flags & TCP_ACK) && uip_outstanding(uip_connr)) {
   2089 7Er1A              6631 	mov	r6,#(_uip_aligned_buf + 0x000e)
   208B 7Fs00              6632 	mov	r7,#((_uip_aligned_buf + 0x000e) >> 8)
   208D 74 21              6633 	mov	a,#0x21
   208F 2E                 6634 	add	a,r6
   2090 F5 82              6635 	mov	dpl,a
   2092 E4                 6636 	clr	a
   2093 3F                 6637 	addc	a,r7
   2094 F5 83              6638 	mov	dph,a
   2096 E0                 6639 	movx	a,@dptr
   2097 FF                 6640 	mov	r7,a
   2098 20 E4 03           6641 	jb	acc.4,00817$
   209B 02s23rA5           6642 	ljmp	00281$
   209E                    6643 00817$:
   209E A8*00              6644 	mov	r0,_bp
   20A0 08                 6645 	inc	r0
   20A1 74 10              6646 	mov	a,#0x10
   20A3 26                 6647 	add	a,@r0
   20A4 FD                 6648 	mov	r5,a
   20A5 E4                 6649 	clr	a
   20A6 08                 6650 	inc	r0
   20A7 36                 6651 	addc	a,@r0
   20A8 FE                 6652 	mov	r6,a
   20A9 08                 6653 	inc	r0
   20AA 86 07              6654 	mov	ar7,@r0
   20AC 8D 82              6655 	mov	dpl,r5
   20AE 8E 83              6656 	mov	dph,r6
   20B0 8F F0              6657 	mov	b,r7
   20B2 12s00r00           6658 	lcall	__gptrget
   20B5 FB                 6659 	mov	r3,a
   20B6 A3                 6660 	inc	dptr
   20B7 12s00r00           6661 	lcall	__gptrget
   20BA FC                 6662 	mov	r4,a
   20BB 4B                 6663 	orl	a,r3
   20BC 70 03              6664 	jnz	00818$
   20BE 02s23rA5           6665 	ljmp	00281$
   20C1                    6666 00818$:
                           6667 ;	../../core/net/uip.c:1477: uip_add32(uip_connr->snd_nxt, uip_connr->len);
   20C1 C0 05              6668 	push	ar5
   20C3 C0 06              6669 	push	ar6
   20C5 C0 07              6670 	push	ar7
   20C7 A8*00              6671 	mov	r0,_bp
   20C9 08                 6672 	inc	r0
   20CA 74 0C              6673 	mov	a,#0x0C
   20CC 26                 6674 	add	a,@r0
   20CD FA                 6675 	mov	r2,a
   20CE E4                 6676 	clr	a
   20CF 08                 6677 	inc	r0
   20D0 36                 6678 	addc	a,@r0
   20D1 FE                 6679 	mov	r6,a
   20D2 08                 6680 	inc	r0
   20D3 86 07              6681 	mov	ar7,@r0
   20D5 C0 07              6682 	push	ar7
   20D7 C0 06              6683 	push	ar6
   20D9 C0 05              6684 	push	ar5
   20DB C0 03              6685 	push	ar3
   20DD C0 04              6686 	push	ar4
   20DF 8A 82              6687 	mov	dpl,r2
   20E1 8E 83              6688 	mov	dph,r6
   20E3 8F F0              6689 	mov	b,r7
   20E5 12s00r0C           6690 	lcall	_uip_add32
   20E8 15 81              6691 	dec	sp
   20EA 15 81              6692 	dec	sp
   20EC D0 05              6693 	pop	ar5
   20EE D0 06              6694 	pop	ar6
   20F0 D0 07              6695 	pop	ar7
                           6696 ;	../../core/net/uip.c:1479: if(BUF->ackno[0] == uip_acc32[0] &&
   20F2 7Er1A              6697 	mov	r6,#(_uip_aligned_buf + 0x000e)
   20F4 7Fs00              6698 	mov	r7,#((_uip_aligned_buf + 0x000e) >> 8)
   20F6 74 1C              6699 	mov	a,#0x1C
   20F8 2E                 6700 	add	a,r6
   20F9 FE                 6701 	mov	r6,a
   20FA E4                 6702 	clr	a
   20FB 3F                 6703 	addc	a,r7
   20FC FF                 6704 	mov	r7,a
   20FD 90s02rA3           6705 	mov	dptr,#_uip_acc32
   2100 E0                 6706 	movx	a,@dptr
   2101 FA                 6707 	mov	r2,a
   2102 8E 82              6708 	mov	dpl,r6
   2104 8F 83              6709 	mov	dph,r7
   2106 E0                 6710 	movx	a,@dptr
   2107 FE                 6711 	mov	r6,a
   2108 B5 02 02           6712 	cjne	a,ar2,00819$
   210B 80 09              6713 	sjmp	00820$
   210D                    6714 00819$:
   210D D0 07              6715 	pop	ar7
   210F D0 06              6716 	pop	ar6
   2111 D0 05              6717 	pop	ar5
   2113 02s23rA5           6718 	ljmp	00281$
   2116                    6719 00820$:
   2116 D0 07              6720 	pop	ar7
   2118 D0 06              6721 	pop	ar6
   211A D0 05              6722 	pop	ar5
                           6723 ;	../../core/net/uip.c:1480: BUF->ackno[1] == uip_acc32[1] &&
   211C 7Br1A              6724 	mov	r3,#(_uip_aligned_buf + 0x000e)
   211E 7Cs00              6725 	mov	r4,#((_uip_aligned_buf + 0x000e) >> 8)
   2120 74 1D              6726 	mov	a,#0x1D
   2122 2B                 6727 	add	a,r3
   2123 FB                 6728 	mov	r3,a
   2124 E4                 6729 	clr	a
   2125 3C                 6730 	addc	a,r4
   2126 FC                 6731 	mov	r4,a
   2127 90s02rA4           6732 	mov	dptr,#(_uip_acc32 + 0x0001)
   212A E5*00              6733 	mov	a,_bp
   212C 24 05              6734 	add	a,#0x05
   212E F8                 6735 	mov	r0,a
   212F E0                 6736 	movx	a,@dptr
   2130 F6                 6737 	mov	@r0,a
   2131 8B 82              6738 	mov	dpl,r3
   2133 8C 83              6739 	mov	dph,r4
   2135 E0                 6740 	movx	a,@dptr
   2136 FB                 6741 	mov	r3,a
   2137 E5*00              6742 	mov	a,_bp
   2139 24 05              6743 	add	a,#0x05
   213B F8                 6744 	mov	r0,a
   213C E6                 6745 	mov	a,@r0
   213D B5 03 02           6746 	cjne	a,ar3,00821$
   2140 80 03              6747 	sjmp	00822$
   2142                    6748 00821$:
   2142 02s23rA5           6749 	ljmp	00281$
   2145                    6750 00822$:
                           6751 ;	../../core/net/uip.c:1481: BUF->ackno[2] == uip_acc32[2] &&
   2145 7Br1A              6752 	mov	r3,#(_uip_aligned_buf + 0x000e)
   2147 7Cs00              6753 	mov	r4,#((_uip_aligned_buf + 0x000e) >> 8)
   2149 74 1E              6754 	mov	a,#0x1E
   214B 2B                 6755 	add	a,r3
   214C FB                 6756 	mov	r3,a
   214D E4                 6757 	clr	a
   214E 3C                 6758 	addc	a,r4
   214F FC                 6759 	mov	r4,a
   2150 90s02rA5           6760 	mov	dptr,#(_uip_acc32 + 0x0002)
   2153 E5*00              6761 	mov	a,_bp
   2155 24 0B              6762 	add	a,#0x0b
   2157 F8                 6763 	mov	r0,a
   2158 E0                 6764 	movx	a,@dptr
   2159 F6                 6765 	mov	@r0,a
   215A 8B 82              6766 	mov	dpl,r3
   215C 8C 83              6767 	mov	dph,r4
   215E E0                 6768 	movx	a,@dptr
   215F FB                 6769 	mov	r3,a
   2160 E5*00              6770 	mov	a,_bp
   2162 24 0B              6771 	add	a,#0x0b
   2164 F8                 6772 	mov	r0,a
   2165 E6                 6773 	mov	a,@r0
   2166 B5 03 02           6774 	cjne	a,ar3,00823$
   2169 80 03              6775 	sjmp	00824$
   216B                    6776 00823$:
   216B 02s23rA5           6777 	ljmp	00281$
   216E                    6778 00824$:
                           6779 ;	../../core/net/uip.c:1482: BUF->ackno[3] == uip_acc32[3]) {
   216E 7Br1A              6780 	mov	r3,#(_uip_aligned_buf + 0x000e)
   2170 7Cs00              6781 	mov	r4,#((_uip_aligned_buf + 0x000e) >> 8)
   2172 74 1F              6782 	mov	a,#0x1F
   2174 2B                 6783 	add	a,r3
   2175 FB                 6784 	mov	r3,a
   2176 E4                 6785 	clr	a
   2177 3C                 6786 	addc	a,r4
   2178 FC                 6787 	mov	r4,a
   2179 90s02rA6           6788 	mov	dptr,#(_uip_acc32 + 0x0003)
   217C E5*00              6789 	mov	a,_bp
   217E 24 08              6790 	add	a,#0x08
   2180 F8                 6791 	mov	r0,a
   2181 E0                 6792 	movx	a,@dptr
   2182 F6                 6793 	mov	@r0,a
   2183 8B 82              6794 	mov	dpl,r3
   2185 8C 83              6795 	mov	dph,r4
   2187 E0                 6796 	movx	a,@dptr
   2188 FB                 6797 	mov	r3,a
   2189 E5*00              6798 	mov	a,_bp
   218B 24 08              6799 	add	a,#0x08
   218D F8                 6800 	mov	r0,a
   218E E6                 6801 	mov	a,@r0
   218F B5 03 02           6802 	cjne	a,ar3,00825$
   2192 80 03              6803 	sjmp	00826$
   2194                    6804 00825$:
   2194 02s23rA5           6805 	ljmp	00281$
   2197                    6806 00826$:
                           6807 ;	../../core/net/uip.c:1484: uip_connr->snd_nxt[0] = uip_acc32[0];
   2197 C0 05              6808 	push	ar5
   2199 C0 06              6809 	push	ar6
   219B C0 07              6810 	push	ar7
   219D A8*00              6811 	mov	r0,_bp
   219F 08                 6812 	inc	r0
   21A0 74 0C              6813 	mov	a,#0x0C
   21A2 26                 6814 	add	a,@r0
   21A3 FB                 6815 	mov	r3,a
   21A4 E4                 6816 	clr	a
   21A5 08                 6817 	inc	r0
   21A6 36                 6818 	addc	a,@r0
   21A7 FC                 6819 	mov	r4,a
   21A8 08                 6820 	inc	r0
   21A9 86 07              6821 	mov	ar7,@r0
   21AB 8B 82              6822 	mov	dpl,r3
   21AD 8C 83              6823 	mov	dph,r4
   21AF 8F F0              6824 	mov	b,r7
   21B1 EA                 6825 	mov	a,r2
   21B2 12s00r00           6826 	lcall	__gptrput
                           6827 ;	../../core/net/uip.c:1485: uip_connr->snd_nxt[1] = uip_acc32[1];
   21B5 A8*00              6828 	mov	r0,_bp
   21B7 08                 6829 	inc	r0
   21B8 74 0C              6830 	mov	a,#0x0C
   21BA 26                 6831 	add	a,@r0
   21BB FD                 6832 	mov	r5,a
   21BC E4                 6833 	clr	a
   21BD 08                 6834 	inc	r0
   21BE 36                 6835 	addc	a,@r0
   21BF FE                 6836 	mov	r6,a
   21C0 08                 6837 	inc	r0
   21C1 86 07              6838 	mov	ar7,@r0
   21C3 74 01              6839 	mov	a,#0x01
   21C5 2D                 6840 	add	a,r5
   21C6 FA                 6841 	mov	r2,a
   21C7 E4                 6842 	clr	a
   21C8 3E                 6843 	addc	a,r6
   21C9 FB                 6844 	mov	r3,a
   21CA 8F 04              6845 	mov	ar4,r7
   21CC 8A 82              6846 	mov	dpl,r2
   21CE 8B 83              6847 	mov	dph,r3
   21D0 8C F0              6848 	mov	b,r4
   21D2 E5*00              6849 	mov	a,_bp
   21D4 24 05              6850 	add	a,#0x05
   21D6 F8                 6851 	mov	r0,a
   21D7 E6                 6852 	mov	a,@r0
   21D8 12s00r00           6853 	lcall	__gptrput
                           6854 ;	../../core/net/uip.c:1486: uip_connr->snd_nxt[2] = uip_acc32[2];
   21DB 74 02              6855 	mov	a,#0x02
   21DD 2D                 6856 	add	a,r5
   21DE FA                 6857 	mov	r2,a
   21DF E4                 6858 	clr	a
   21E0 3E                 6859 	addc	a,r6
   21E1 FB                 6860 	mov	r3,a
   21E2 8F 04              6861 	mov	ar4,r7
   21E4 8A 82              6862 	mov	dpl,r2
   21E6 8B 83              6863 	mov	dph,r3
   21E8 8C F0              6864 	mov	b,r4
   21EA E5*00              6865 	mov	a,_bp
   21EC 24 0B              6866 	add	a,#0x0b
   21EE F8                 6867 	mov	r0,a
   21EF E6                 6868 	mov	a,@r0
   21F0 12s00r00           6869 	lcall	__gptrput
                           6870 ;	../../core/net/uip.c:1487: uip_connr->snd_nxt[3] = uip_acc32[3];
   21F3 74 03              6871 	mov	a,#0x03
   21F5 2D                 6872 	add	a,r5
   21F6 FD                 6873 	mov	r5,a
   21F7 E4                 6874 	clr	a
   21F8 3E                 6875 	addc	a,r6
   21F9 FE                 6876 	mov	r6,a
   21FA 8D 82              6877 	mov	dpl,r5
   21FC 8E 83              6878 	mov	dph,r6
   21FE 8F F0              6879 	mov	b,r7
   2200 E5*00              6880 	mov	a,_bp
   2202 24 08              6881 	add	a,#0x08
   2204 F8                 6882 	mov	r0,a
   2205 E6                 6883 	mov	a,@r0
   2206 12s00r00           6884 	lcall	__gptrput
                           6885 ;	../../core/net/uip.c:1490: if(uip_connr->nrtx == 0) {
   2209 A8*00              6886 	mov	r0,_bp
   220B 08                 6887 	inc	r0
   220C 74 1B              6888 	mov	a,#0x1B
   220E 26                 6889 	add	a,@r0
   220F FD                 6890 	mov	r5,a
   2210 E4                 6891 	clr	a
   2211 08                 6892 	inc	r0
   2212 36                 6893 	addc	a,@r0
   2213 FE                 6894 	mov	r6,a
   2214 08                 6895 	inc	r0
   2215 86 07              6896 	mov	ar7,@r0
   2217 8D 82              6897 	mov	dpl,r5
   2219 8E 83              6898 	mov	dph,r6
   221B 8F F0              6899 	mov	b,r7
   221D 12s00r00           6900 	lcall	__gptrget
   2220 D0 07              6901 	pop	ar7
   2222 D0 06              6902 	pop	ar6
   2224 D0 05              6903 	pop	ar5
   2226 60 03              6904 	jz	00827$
   2228 02s23r52           6905 	ljmp	00274$
   222B                    6906 00827$:
                           6907 ;	../../core/net/uip.c:1492: m = uip_connr->rto - uip_connr->timer;
   222B C0 05              6908 	push	ar5
   222D C0 06              6909 	push	ar6
   222F C0 07              6910 	push	ar7
   2231 A8*00              6911 	mov	r0,_bp
   2233 08                 6912 	inc	r0
   2234 74 18              6913 	mov	a,#0x18
   2236 26                 6914 	add	a,@r0
   2237 FA                 6915 	mov	r2,a
   2238 E4                 6916 	clr	a
   2239 08                 6917 	inc	r0
   223A 36                 6918 	addc	a,@r0
   223B FB                 6919 	mov	r3,a
   223C 08                 6920 	inc	r0
   223D 86 04              6921 	mov	ar4,@r0
   223F 8A 82              6922 	mov	dpl,r2
   2241 8B 83              6923 	mov	dph,r3
   2243 8C F0              6924 	mov	b,r4
   2245 E5*00              6925 	mov	a,_bp
   2247 24 0E              6926 	add	a,#0x0e
   2249 F8                 6927 	mov	r0,a
   224A 12s00r00           6928 	lcall	__gptrget
   224D F6                 6929 	mov	@r0,a
   224E A8*00              6930 	mov	r0,_bp
   2250 08                 6931 	inc	r0
   2251 74 1A              6932 	mov	a,#0x1A
   2253 26                 6933 	add	a,@r0
   2254 FD                 6934 	mov	r5,a
   2255 E4                 6935 	clr	a
   2256 08                 6936 	inc	r0
   2257 36                 6937 	addc	a,@r0
   2258 FE                 6938 	mov	r6,a
   2259 08                 6939 	inc	r0
   225A 86 07              6940 	mov	ar7,@r0
   225C 8D 82              6941 	mov	dpl,r5
   225E 8E 83              6942 	mov	dph,r6
   2260 8F F0              6943 	mov	b,r7
   2262 12s00r00           6944 	lcall	__gptrget
   2265 FD                 6945 	mov	r5,a
   2266 E5*00              6946 	mov	a,_bp
   2268 24 0E              6947 	add	a,#0x0e
   226A F8                 6948 	mov	r0,a
   226B E6                 6949 	mov	a,@r0
   226C C3                 6950 	clr	c
   226D 9D                 6951 	subb	a,r5
   226E FD                 6952 	mov	r5,a
   226F E5*00              6953 	mov	a,_bp
   2271 24 04              6954 	add	a,#0x04
   2273 F8                 6955 	mov	r0,a
   2274 A6 05              6956 	mov	@r0,ar5
                           6957 ;	../../core/net/uip.c:1494: m = m - (uip_connr->sa >> 3);
   2276 A8*00              6958 	mov	r0,_bp
   2278 08                 6959 	inc	r0
   2279 E5*00              6960 	mov	a,_bp
   227B 24 0B              6961 	add	a,#0x0b
   227D F9                 6962 	mov	r1,a
   227E 74 16              6963 	mov	a,#0x16
   2280 26                 6964 	add	a,@r0
   2281 F7                 6965 	mov	@r1,a
   2282 E4                 6966 	clr	a
   2283 08                 6967 	inc	r0
   2284 36                 6968 	addc	a,@r0
   2285 09                 6969 	inc	r1
   2286 F7                 6970 	mov	@r1,a
   2287 08                 6971 	inc	r0
   2288 09                 6972 	inc	r1
   2289 E6                 6973 	mov	a,@r0
   228A F7                 6974 	mov	@r1,a
   228B E5*00              6975 	mov	a,_bp
   228D 24 0B              6976 	add	a,#0x0b
   228F F8                 6977 	mov	r0,a
   2290 86 82              6978 	mov	dpl,@r0
   2292 08                 6979 	inc	r0
   2293 86 83              6980 	mov	dph,@r0
   2295 08                 6981 	inc	r0
   2296 86 F0              6982 	mov	b,@r0
   2298 12s00r00           6983 	lcall	__gptrget
   229B FF                 6984 	mov	r7,a
   229C C4                 6985 	swap	a
   229D 23                 6986 	rl	a
   229E 54 1F              6987 	anl	a,#0x1F
   22A0 FE                 6988 	mov	r6,a
   22A1 E5*00              6989 	mov	a,_bp
   22A3 24 04              6990 	add	a,#0x04
   22A5 F8                 6991 	mov	r0,a
   22A6 E6                 6992 	mov	a,@r0
   22A7 C3                 6993 	clr	c
   22A8 9E                 6994 	subb	a,r6
   22A9 F6                 6995 	mov	@r0,a
                           6996 ;	../../core/net/uip.c:1495: uip_connr->sa += m;
   22AA E5*00              6997 	mov	a,_bp
   22AC 24 04              6998 	add	a,#0x04
   22AE F8                 6999 	mov	r0,a
   22AF E6                 7000 	mov	a,@r0
   22B0 2F                 7001 	add	a,r7
   22B1 FF                 7002 	mov	r7,a
   22B2 E5*00              7003 	mov	a,_bp
   22B4 24 0B              7004 	add	a,#0x0b
   22B6 F8                 7005 	mov	r0,a
   22B7 86 82              7006 	mov	dpl,@r0
   22B9 08                 7007 	inc	r0
   22BA 86 83              7008 	mov	dph,@r0
   22BC 08                 7009 	inc	r0
   22BD 86 F0              7010 	mov	b,@r0
   22BF EF                 7011 	mov	a,r7
   22C0 12s00r00           7012 	lcall	__gptrput
                           7013 ;	../../core/net/uip.c:1496: if(m < 0) {
   22C3 E5*00              7014 	mov	a,_bp
   22C5 24 04              7015 	add	a,#0x04
   22C7 F8                 7016 	mov	r0,a
   22C8 E6                 7017 	mov	a,@r0
   22C9 D0 07              7018 	pop	ar7
   22CB D0 06              7019 	pop	ar6
   22CD D0 05              7020 	pop	ar5
   22CF 30 E7 09           7021 	jnb	acc.7,00272$
                           7022 ;	../../core/net/uip.c:1497: m = -m;
   22D2 E5*00              7023 	mov	a,_bp
   22D4 24 04              7024 	add	a,#0x04
   22D6 F8                 7025 	mov	r0,a
   22D7 C3                 7026 	clr	c
   22D8 E4                 7027 	clr	a
   22D9 96                 7028 	subb	a,@r0
   22DA F6                 7029 	mov	@r0,a
   22DB                    7030 00272$:
                           7031 ;	../../core/net/uip.c:1499: m = m - (uip_connr->sv >> 2);
   22DB C0 05              7032 	push	ar5
   22DD C0 06              7033 	push	ar6
   22DF C0 07              7034 	push	ar7
   22E1 A8*00              7035 	mov	r0,_bp
   22E3 08                 7036 	inc	r0
   22E4 E5*00              7037 	mov	a,_bp
   22E6 24 08              7038 	add	a,#0x08
   22E8 F9                 7039 	mov	r1,a
   22E9 74 17              7040 	mov	a,#0x17
   22EB 26                 7041 	add	a,@r0
   22EC F7                 7042 	mov	@r1,a
   22ED E4                 7043 	clr	a
   22EE 08                 7044 	inc	r0
   22EF 36                 7045 	addc	a,@r0
   22F0 09                 7046 	inc	r1
   22F1 F7                 7047 	mov	@r1,a
   22F2 08                 7048 	inc	r0
   22F3 09                 7049 	inc	r1
   22F4 E6                 7050 	mov	a,@r0
   22F5 F7                 7051 	mov	@r1,a
   22F6 E5*00              7052 	mov	a,_bp
   22F8 24 08              7053 	add	a,#0x08
   22FA F8                 7054 	mov	r0,a
   22FB 86 82              7055 	mov	dpl,@r0
   22FD 08                 7056 	inc	r0
   22FE 86 83              7057 	mov	dph,@r0
   2300 08                 7058 	inc	r0
   2301 86 F0              7059 	mov	b,@r0
   2303 12s00r00           7060 	lcall	__gptrget
   2306 FF                 7061 	mov	r7,a
   2307 03                 7062 	rr	a
   2308 03                 7063 	rr	a
   2309 54 3F              7064 	anl	a,#0x3F
   230B FE                 7065 	mov	r6,a
   230C E5*00              7066 	mov	a,_bp
   230E 24 04              7067 	add	a,#0x04
   2310 F8                 7068 	mov	r0,a
   2311 E6                 7069 	mov	a,@r0
   2312 C3                 7070 	clr	c
   2313 9E                 7071 	subb	a,r6
   2314 F6                 7072 	mov	@r0,a
                           7073 ;	../../core/net/uip.c:1500: uip_connr->sv += m;
   2315 E5*00              7074 	mov	a,_bp
   2317 24 04              7075 	add	a,#0x04
   2319 F8                 7076 	mov	r0,a
   231A E6                 7077 	mov	a,@r0
   231B 2F                 7078 	add	a,r7
   231C FF                 7079 	mov	r7,a
   231D E5*00              7080 	mov	a,_bp
   231F 24 08              7081 	add	a,#0x08
   2321 F8                 7082 	mov	r0,a
   2322 86 82              7083 	mov	dpl,@r0
   2324 08                 7084 	inc	r0
   2325 86 83              7085 	mov	dph,@r0
   2327 08                 7086 	inc	r0
   2328 86 F0              7087 	mov	b,@r0
   232A EF                 7088 	mov	a,r7
   232B 12s00r00           7089 	lcall	__gptrput
                           7090 ;	../../core/net/uip.c:1501: uip_connr->rto = (uip_connr->sa >> 3) + uip_connr->sv;
   232E E5*00              7091 	mov	a,_bp
   2330 24 0B              7092 	add	a,#0x0b
   2332 F8                 7093 	mov	r0,a
   2333 86 82              7094 	mov	dpl,@r0
   2335 08                 7095 	inc	r0
   2336 86 83              7096 	mov	dph,@r0
   2338 08                 7097 	inc	r0
   2339 86 F0              7098 	mov	b,@r0
   233B 12s00r00           7099 	lcall	__gptrget
   233E C4                 7100 	swap	a
   233F 23                 7101 	rl	a
   2340 54 1F              7102 	anl	a,#0x1F
   2342 2F                 7103 	add	a,r7
   2343 8A 82              7104 	mov	dpl,r2
   2345 8B 83              7105 	mov	dph,r3
   2347 8C F0              7106 	mov	b,r4
   2349 12s00r00           7107 	lcall	__gptrput
                           7108 ;	../../core/net/uip.c:1938: return;
   234C D0 07              7109 	pop	ar7
   234E D0 06              7110 	pop	ar6
   2350 D0 05              7111 	pop	ar5
                           7112 ;	../../core/net/uip.c:1501: uip_connr->rto = (uip_connr->sa >> 3) + uip_connr->sv;
   2352                    7113 00274$:
                           7114 ;	../../core/net/uip.c:1505: uip_flags = UIP_ACKDATA;
   2352 90s00r82           7115 	mov	dptr,#_uip_flags
   2355 74 01              7116 	mov	a,#0x01
   2357 F0                 7117 	movx	@dptr,a
                           7118 ;	../../core/net/uip.c:1507: uip_connr->timer = uip_connr->rto;
   2358 A8*00              7119 	mov	r0,_bp
   235A 08                 7120 	inc	r0
   235B E5*00              7121 	mov	a,_bp
   235D 24 0B              7122 	add	a,#0x0b
   235F F9                 7123 	mov	r1,a
   2360 74 1A              7124 	mov	a,#0x1A
   2362 26                 7125 	add	a,@r0
   2363 F7                 7126 	mov	@r1,a
   2364 E4                 7127 	clr	a
   2365 08                 7128 	inc	r0
   2366 36                 7129 	addc	a,@r0
   2367 09                 7130 	inc	r1
   2368 F7                 7131 	mov	@r1,a
   2369 08                 7132 	inc	r0
   236A 09                 7133 	inc	r1
   236B E6                 7134 	mov	a,@r0
   236C F7                 7135 	mov	@r1,a
   236D A8*00              7136 	mov	r0,_bp
   236F 08                 7137 	inc	r0
   2370 74 18              7138 	mov	a,#0x18
   2372 26                 7139 	add	a,@r0
   2373 FA                 7140 	mov	r2,a
   2374 E4                 7141 	clr	a
   2375 08                 7142 	inc	r0
   2376 36                 7143 	addc	a,@r0
   2377 FB                 7144 	mov	r3,a
   2378 08                 7145 	inc	r0
   2379 86 04              7146 	mov	ar4,@r0
   237B 8A 82              7147 	mov	dpl,r2
   237D 8B 83              7148 	mov	dph,r3
   237F 8C F0              7149 	mov	b,r4
   2381 12s00r00           7150 	lcall	__gptrget
   2384 FA                 7151 	mov	r2,a
   2385 E5*00              7152 	mov	a,_bp
   2387 24 0B              7153 	add	a,#0x0b
   2389 F8                 7154 	mov	r0,a
   238A 86 82              7155 	mov	dpl,@r0
   238C 08                 7156 	inc	r0
   238D 86 83              7157 	mov	dph,@r0
   238F 08                 7158 	inc	r0
   2390 86 F0              7159 	mov	b,@r0
   2392 EA                 7160 	mov	a,r2
   2393 12s00r00           7161 	lcall	__gptrput
                           7162 ;	../../core/net/uip.c:1510: uip_connr->len = 0;
   2396 8D 82              7163 	mov	dpl,r5
   2398 8E 83              7164 	mov	dph,r6
   239A 8F F0              7165 	mov	b,r7
   239C E4                 7166 	clr	a
   239D 12s00r00           7167 	lcall	__gptrput
   23A0 A3                 7168 	inc	dptr
   23A1 E4                 7169 	clr	a
   23A2 12s00r00           7170 	lcall	__gptrput
   23A5                    7171 00281$:
                           7172 ;	../../core/net/uip.c:1516: switch(uip_connr->tcpstateflags & UIP_TS_MASK) {
   23A5 A8*00              7173 	mov	r0,_bp
   23A7 08                 7174 	inc	r0
   23A8 74 19              7175 	mov	a,#0x19
   23AA 26                 7176 	add	a,@r0
   23AB FD                 7177 	mov	r5,a
   23AC E4                 7178 	clr	a
   23AD 08                 7179 	inc	r0
   23AE 36                 7180 	addc	a,@r0
   23AF FE                 7181 	mov	r6,a
   23B0 08                 7182 	inc	r0
   23B1 86 07              7183 	mov	ar7,@r0
   23B3 8D 82              7184 	mov	dpl,r5
   23B5 8E 83              7185 	mov	dph,r6
   23B7 8F F0              7186 	mov	b,r7
   23B9 12s00r00           7187 	lcall	__gptrget
   23BC FC                 7188 	mov	r4,a
   23BD 74 0F              7189 	mov	a,#0x0F
   23BF 5C                 7190 	anl	a,r4
   23C0 FB                 7191 	mov  r3,a
   23C1 24 F7              7192 	add	a,#0xff - 0x08
   23C3 50 03              7193 	jnc	00829$
   23C5 02s30rFB           7194 	ljmp	00387$
   23C8                    7195 00829$:
   23C8 EB                 7196 	mov	a,r3
   23C9 2B                 7197 	add	a,r3
   23CA 2B                 7198 	add	a,r3
   23CB 90s23rCF           7199 	mov	dptr,#00830$
   23CE 73                 7200 	jmp	@a+dptr
   23CF                    7201 00830$:
   23CF 02s2Dr1F           7202 	ljmp	00377$
   23D2 02s23rEA           7203 	ljmp	00283$
   23D5 02s24r62           7204 	ljmp	00290$
   23D8 02s27r59           7205 	ljmp	00311$
   23DB 02s2BrA0           7206 	ljmp	00353$
   23DE 02s2Cr7B           7207 	ljmp	00366$
   23E1 02s2CrF1           7208 	ljmp	00374$
   23E4 02s2CrEF           7209 	ljmp	00373$
   23E7 02s2Br7F           7210 	ljmp	00350$
                           7211 ;	../../core/net/uip.c:1521: case UIP_SYN_RCVD:
   23EA                    7212 00283$:
                           7213 ;	../../core/net/uip.c:1526: if(uip_flags & UIP_ACKDATA) {
   23EA 90s00r82           7214 	mov	dptr,#_uip_flags
   23ED E0                 7215 	movx	a,@dptr
   23EE FB                 7216 	mov	r3,a
   23EF 30 E0 53           7217 	jnb	acc.0,00287$
                           7218 ;	../../core/net/uip.c:1527: uip_connr->tcpstateflags = UIP_ESTABLISHED;
   23F2 8D 82              7219 	mov	dpl,r5
   23F4 8E 83              7220 	mov	dph,r6
   23F6 8F F0              7221 	mov	b,r7
   23F8 74 03              7222 	mov	a,#0x03
   23FA 12s00r00           7223 	lcall	__gptrput
                           7224 ;	../../core/net/uip.c:1528: uip_flags = UIP_CONNECTED;
   23FD 90s00r82           7225 	mov	dptr,#_uip_flags
   2400 74 40              7226 	mov	a,#0x40
   2402 F0                 7227 	movx	@dptr,a
                           7228 ;	../../core/net/uip.c:1529: uip_connr->len = 0;
   2403 A8*00              7229 	mov	r0,_bp
   2405 08                 7230 	inc	r0
   2406 74 10              7231 	mov	a,#0x10
   2408 26                 7232 	add	a,@r0
   2409 FF                 7233 	mov	r7,a
   240A E4                 7234 	clr	a
   240B 08                 7235 	inc	r0
   240C 36                 7236 	addc	a,@r0
   240D FE                 7237 	mov	r6,a
   240E 08                 7238 	inc	r0
   240F 86 05              7239 	mov	ar5,@r0
   2411 8F 82              7240 	mov	dpl,r7
   2413 8E 83              7241 	mov	dph,r6
   2415 8D F0              7242 	mov	b,r5
   2417 E4                 7243 	clr	a
   2418 12s00r00           7244 	lcall	__gptrput
   241B A3                 7245 	inc	dptr
   241C E4                 7246 	clr	a
   241D 12s00r00           7247 	lcall	__gptrput
                           7248 ;	../../core/net/uip.c:1530: if(uip_len > 0) {
   2420 90s00r7E           7249 	mov	dptr,#_uip_len
   2423 E0                 7250 	movx	a,@dptr
   2424 FA                 7251 	mov	r2,a
   2425 A3                 7252 	inc	dptr
   2426 E0                 7253 	movx	a,@dptr
   2427 FB                 7254 	mov	r3,a
   2428 4A                 7255 	orl	a,r2
   2429 60 0D              7256 	jz	00285$
                           7257 ;	../../core/net/uip.c:1531: uip_flags |= UIP_NEWDATA;
   242B 90s00r82           7258 	mov	dptr,#_uip_flags
   242E 74 42              7259 	mov	a,#0x42
   2430 F0                 7260 	movx	@dptr,a
                           7261 ;	../../core/net/uip.c:1532: uip_add_rcv_nxt(uip_len);
   2431 8A 82              7262 	mov	dpl,r2
   2433 8B 83              7263 	mov	dph,r3
   2435 12s0Ar27           7264 	lcall	_uip_add_rcv_nxt
   2438                    7265 00285$:
                           7266 ;	../../core/net/uip.c:1534: uip_slen = 0;
   2438 90s00r80           7267 	mov	dptr,#_uip_slen
   243B E4                 7268 	clr	a
   243C F0                 7269 	movx	@dptr,a
   243D A3                 7270 	inc	dptr
   243E F0                 7271 	movx	@dptr,a
                           7272 ;	../../core/net/uip.c:1535: UIP_APPCALL();
   243F 12s00r00           7273 	lcall	_tcpip_uipcall
                           7274 ;	../../core/net/uip.c:1536: goto appsend;
   2442 02s29r89           7275 	ljmp	00328$
   2445                    7276 00287$:
                           7277 ;	../../core/net/uip.c:1539: if((BUF->flags & TCP_CTL) == TCP_SYN) {
   2445 7Ar1A              7278 	mov	r2,#(_uip_aligned_buf + 0x000e)
   2447 7Bs00              7279 	mov	r3,#((_uip_aligned_buf + 0x000e) >> 8)
   2449 74 21              7280 	mov	a,#0x21
   244B 2A                 7281 	add	a,r2
   244C F5 82              7282 	mov	dpl,a
   244E E4                 7283 	clr	a
   244F 3B                 7284 	addc	a,r3
   2450 F5 83              7285 	mov	dph,a
   2452 E0                 7286 	movx	a,@dptr
   2453 FB                 7287 	mov	r3,a
   2454 53 03 3F           7288 	anl	ar3,#0x3F
   2457 BB 02 02           7289 	cjne	r3,#0x02,00833$
   245A 80 03              7290 	sjmp	00834$
   245C                    7291 00833$:
   245C 02s30rFB           7292 	ljmp	00387$
   245F                    7293 00834$:
                           7294 ;	../../core/net/uip.c:1540: goto tcp_send_synack;
   245F 02s1Er2D           7295 	ljmp	00254$
                           7296 ;	../../core/net/uip.c:1544: case UIP_SYN_SENT:
   2462                    7297 00290$:
                           7298 ;	../../core/net/uip.c:1549: if((uip_flags & UIP_ACKDATA) &&
   2462 90s00r82           7299 	mov	dptr,#_uip_flags
   2465 E0                 7300 	movx	a,@dptr
   2466 FB                 7301 	mov	r3,a
   2467 20 E0 03           7302 	jb	acc.0,00835$
   246A 02s27r1D           7303 	ljmp	00309$
   246D                    7304 00835$:
                           7305 ;	../../core/net/uip.c:1550: (BUF->flags & TCP_CTL) == (TCP_SYN | TCP_ACK)) {
   246D 7Ar1A              7306 	mov	r2,#(_uip_aligned_buf + 0x000e)
   246F 7Bs00              7307 	mov	r3,#((_uip_aligned_buf + 0x000e) >> 8)
   2471 74 21              7308 	mov	a,#0x21
   2473 2A                 7309 	add	a,r2
   2474 F5 82              7310 	mov	dpl,a
   2476 E4                 7311 	clr	a
   2477 3B                 7312 	addc	a,r3
   2478 F5 83              7313 	mov	dph,a
   247A E0                 7314 	movx	a,@dptr
   247B FB                 7315 	mov	r3,a
   247C 53 03 3F           7316 	anl	ar3,#0x3F
   247F BB 12 02           7317 	cjne	r3,#0x12,00836$
   2482 80 03              7318 	sjmp	00837$
   2484                    7319 00836$:
   2484 02s27r1D           7320 	ljmp	00309$
   2487                    7321 00837$:
                           7322 ;	../../core/net/uip.c:1553: if((BUF->tcpoffset & 0xf0) > 0x50) {
   2487 7Ar1A              7323 	mov	r2,#(_uip_aligned_buf + 0x000e)
   2489 7Bs00              7324 	mov	r3,#((_uip_aligned_buf + 0x000e) >> 8)
   248B 74 20              7325 	mov	a,#0x20
   248D 2A                 7326 	add	a,r2
   248E F5 82              7327 	mov	dpl,a
   2490 E4                 7328 	clr	a
   2491 3B                 7329 	addc	a,r3
   2492 F5 83              7330 	mov	dph,a
   2494 E0                 7331 	movx	a,@dptr
   2495 54 F0              7332 	anl	a,#0xF0
   2497 FB                 7333 	mov	r3,a
   2498 24 AF              7334 	add	a,#0xff - 0x50
   249A 40 03              7335 	jc	00838$
   249C 02s26r24           7336 	ljmp	00307$
   249F                    7337 00838$:
                           7338 ;	../../core/net/uip.c:1554: for(c = 0; c < ((BUF->tcpoffset >> 4) - 5) << 2 ;) {
   249F 90s02rA7           7339 	mov	dptr,#_c
   24A2 E4                 7340 	clr	a
   24A3 F0                 7341 	movx	@dptr,a
   24A4                    7342 00303$:
   24A4 C0 05              7343 	push	ar5
   24A6 C0 06              7344 	push	ar6
   24A8 C0 07              7345 	push	ar7
   24AA 7Ar1A              7346 	mov	r2,#(_uip_aligned_buf + 0x000e)
   24AC 7Bs00              7347 	mov	r3,#((_uip_aligned_buf + 0x000e) >> 8)
   24AE 74 20              7348 	mov	a,#0x20
   24B0 2A                 7349 	add	a,r2
   24B1 F5 82              7350 	mov	dpl,a
   24B3 E4                 7351 	clr	a
   24B4 3B                 7352 	addc	a,r3
   24B5 F5 83              7353 	mov	dph,a
   24B7 E0                 7354 	movx	a,@dptr
   24B8 C4                 7355 	swap	a
   24B9 54 0F              7356 	anl	a,#0x0F
   24BB 7A 00              7357 	mov	r2,#0x00
   24BD 24 FB              7358 	add	a,#0xFB
   24BF FB                 7359 	mov	r3,a
   24C0 EA                 7360 	mov	a,r2
   24C1 34 FF              7361 	addc	a,#0xFF
   24C3 CB                 7362 	xch	a,r3
   24C4 25 E0              7363 	add	a,acc
   24C6 CB                 7364 	xch	a,r3
   24C7 33                 7365 	rlc	a
   24C8 CB                 7366 	xch	a,r3
   24C9 25 E0              7367 	add	a,acc
   24CB CB                 7368 	xch	a,r3
   24CC 33                 7369 	rlc	a
   24CD FA                 7370 	mov	r2,a
   24CE 90s02rA7           7371 	mov	dptr,#_c
   24D1 E0                 7372 	movx	a,@dptr
   24D2 FC                 7373 	mov	r4,a
   24D3 FE                 7374 	mov	r6,a
   24D4 7F 00              7375 	mov	r7,#0x00
   24D6 C3                 7376 	clr	c
   24D7 EE                 7377 	mov	a,r6
   24D8 9B                 7378 	subb	a,r3
   24D9 EF                 7379 	mov	a,r7
   24DA 64 80              7380 	xrl	a,#0x80
   24DC 8A F0              7381 	mov	b,r2
   24DE 63 F0 80           7382 	xrl	b,#0x80
   24E1 95 F0              7383 	subb	a,b
   24E3 D0 07              7384 	pop	ar7
   24E5 D0 06              7385 	pop	ar6
   24E7 D0 05              7386 	pop	ar5
   24E9 40 03              7387 	jc	00839$
   24EB 02s26r24           7388 	ljmp	00307$
   24EE                    7389 00839$:
                           7390 ;	../../core/net/uip.c:1555: opt = uip_buf[UIP_IPTCPH_LEN + UIP_LLH_LEN + c];
   24EE 74 36              7391 	mov	a,#0x36
   24F0 2C                 7392 	add	a,r4
   24F1 24r0C              7393 	add	a,#_uip_aligned_buf
   24F3 F5 82              7394 	mov	dpl,a
   24F5 E4                 7395 	clr	a
   24F6 34s00              7396 	addc	a,#(_uip_aligned_buf >> 8)
   24F8 F5 83              7397 	mov	dph,a
   24FA E0                 7398 	movx	a,@dptr
   24FB FB                 7399 	mov	r3,a
   24FC 90s02rA8           7400 	mov	dptr,#_opt
   24FF F0                 7401 	movx	@dptr,a
                           7402 ;	../../core/net/uip.c:1556: if(opt == TCP_OPT_END) {
   2500 EB                 7403 	mov	a,r3
   2501 70 03              7404 	jnz	00840$
   2503 02s26r24           7405 	ljmp	00307$
   2506                    7406 00840$:
                           7407 ;	../../core/net/uip.c:1559: } else if(opt == TCP_OPT_NOOP) {
   2506 BB 01 08           7408 	cjne	r3,#0x01,00298$
                           7409 ;	../../core/net/uip.c:1560: ++c;
   2509 90s02rA7           7410 	mov	dptr,#_c
   250C EC                 7411 	mov	a,r4
   250D 04                 7412 	inc	a
   250E F0                 7413 	movx	@dptr,a
   250F 80 93              7414 	sjmp	00303$
   2511                    7415 00298$:
                           7416 ;	../../core/net/uip.c:1562: } else if(opt == TCP_OPT_MSS &&
   2511 BB 02 02           7417 	cjne	r3,#0x02,00843$
   2514 80 03              7418 	sjmp	00844$
   2516                    7419 00843$:
   2516 02s25rED           7420 	ljmp	00294$
   2519                    7421 00844$:
                           7422 ;	../../core/net/uip.c:1563: uip_buf[UIP_TCPIP_HLEN + UIP_LLH_LEN + 1 + c] == TCP_OPT_MSS_LEN) {
   2519 74 37              7423 	mov	a,#0x37
   251B 2C                 7424 	add	a,r4
   251C 24r0C              7425 	add	a,#_uip_aligned_buf
   251E F5 82              7426 	mov	dpl,a
   2520 E4                 7427 	clr	a
   2521 34s00              7428 	addc	a,#(_uip_aligned_buf >> 8)
   2523 F5 83              7429 	mov	dph,a
   2525 E0                 7430 	movx	a,@dptr
   2526 FB                 7431 	mov	r3,a
   2527 BB 04 02           7432 	cjne	r3,#0x04,00845$
   252A 80 03              7433 	sjmp	00846$
   252C                    7434 00845$:
   252C 02s25rED           7435 	ljmp	00294$
   252F                    7436 00846$:
                           7437 ;	../../core/net/uip.c:1565: tmp16 = (uip_buf[UIP_TCPIP_HLEN + UIP_LLH_LEN + 2 + c] << 8) |
   252F C0 05              7438 	push	ar5
   2531 C0 06              7439 	push	ar6
   2533 C0 07              7440 	push	ar7
   2535 74 38              7441 	mov	a,#0x38
   2537 2C                 7442 	add	a,r4
   2538 24r0C              7443 	add	a,#_uip_aligned_buf
   253A F5 82              7444 	mov	dpl,a
   253C E4                 7445 	clr	a
   253D 34s00              7446 	addc	a,#(_uip_aligned_buf >> 8)
   253F F5 83              7447 	mov	dph,a
   2541 E0                 7448 	movx	a,@dptr
   2542 FA                 7449 	mov	r2,a
   2543 7B 00              7450 	mov	r3,#0x00
                           7451 ;	../../core/net/uip.c:1566: uip_buf[UIP_TCPIP_HLEN + UIP_LLH_LEN + 3 + c];
   2545 74 39              7452 	mov	a,#0x39
   2547 2C                 7453 	add	a,r4
   2548 24r0C              7454 	add	a,#_uip_aligned_buf
   254A F5 82              7455 	mov	dpl,a
   254C E4                 7456 	clr	a
   254D 34s00              7457 	addc	a,#(_uip_aligned_buf >> 8)
   254F F5 83              7458 	mov	dph,a
   2551 E0                 7459 	movx	a,@dptr
   2552 7E 00              7460 	mov	r6,#0x00
   2554 42 03              7461 	orl	ar3,a
   2556 EE                 7462 	mov	a,r6
   2557 42 02              7463 	orl	ar2,a
   2559 E5*00              7464 	mov	a,_bp
   255B 24 0E              7465 	add	a,#0x0e
   255D F8                 7466 	mov	r0,a
   255E A6 03              7467 	mov	@r0,ar3
   2560 08                 7468 	inc	r0
   2561 A6 02              7469 	mov	@r0,ar2
   2563 E5*00              7470 	mov	a,_bp
   2565 24 0E              7471 	add	a,#0x0e
   2567 F8                 7472 	mov	r0,a
   2568 90s02rA9           7473 	mov	dptr,#_tmp16
   256B E6                 7474 	mov	a,@r0
   256C F0                 7475 	movx	@dptr,a
   256D 08                 7476 	inc	r0
   256E A3                 7477 	inc	dptr
   256F E6                 7478 	mov	a,@r0
   2570 F0                 7479 	movx	@dptr,a
                           7480 ;	../../core/net/uip.c:1567: uip_connr->initialmss =
   2571 A8*00              7481 	mov	r0,_bp
   2573 08                 7482 	inc	r0
   2574 E5*00              7483 	mov	a,_bp
   2576 24 0B              7484 	add	a,#0x0b
   2578 F9                 7485 	mov	r1,a
   2579 74 14              7486 	mov	a,#0x14
   257B 26                 7487 	add	a,@r0
   257C F7                 7488 	mov	@r1,a
   257D E4                 7489 	clr	a
   257E 08                 7490 	inc	r0
   257F 36                 7491 	addc	a,@r0
   2580 09                 7492 	inc	r1
   2581 F7                 7493 	mov	@r1,a
   2582 08                 7494 	inc	r0
   2583 09                 7495 	inc	r1
   2584 E6                 7496 	mov	a,@r0
   2585 F7                 7497 	mov	@r1,a
                           7498 ;	../../core/net/uip.c:1568: uip_connr->mss = tmp16 > UIP_TCP_MSS? UIP_TCP_MSS: tmp16;
   2586 A8*00              7499 	mov	r0,_bp
   2588 08                 7500 	inc	r0
   2589 E5*00              7501 	mov	a,_bp
   258B 24 08              7502 	add	a,#0x08
   258D F9                 7503 	mov	r1,a
   258E 74 12              7504 	mov	a,#0x12
   2590 26                 7505 	add	a,@r0
   2591 F7                 7506 	mov	@r1,a
   2592 E4                 7507 	clr	a
   2593 08                 7508 	inc	r0
   2594 36                 7509 	addc	a,@r0
   2595 09                 7510 	inc	r1
   2596 F7                 7511 	mov	@r1,a
   2597 08                 7512 	inc	r0
   2598 09                 7513 	inc	r1
   2599 E6                 7514 	mov	a,@r0
   259A F7                 7515 	mov	@r1,a
   259B E5*00              7516 	mov	a,_bp
   259D 24 0E              7517 	add	a,#0x0e
   259F F8                 7518 	mov	r0,a
   25A0 C3                 7519 	clr	c
   25A1 74 36              7520 	mov	a,#0x36
   25A3 96                 7521 	subb	a,@r0
   25A4 E4                 7522 	clr	a
   25A5 08                 7523 	inc	r0
   25A6 96                 7524 	subb	a,@r0
   25A7 D0 07              7525 	pop	ar7
   25A9 D0 06              7526 	pop	ar6
   25AB D0 05              7527 	pop	ar5
   25AD 50 06              7528 	jnc	00406$
   25AF 7A 36              7529 	mov	r2,#0x36
   25B1 7B 00              7530 	mov	r3,#0x00
   25B3 80 0A              7531 	sjmp	00407$
   25B5                    7532 00406$:
   25B5 E5*00              7533 	mov	a,_bp
   25B7 24 0E              7534 	add	a,#0x0e
   25B9 F8                 7535 	mov	r0,a
   25BA 86 02              7536 	mov	ar2,@r0
   25BC 08                 7537 	inc	r0
   25BD 86 03              7538 	mov	ar3,@r0
   25BF                    7539 00407$:
   25BF E5*00              7540 	mov	a,_bp
   25C1 24 08              7541 	add	a,#0x08
   25C3 F8                 7542 	mov	r0,a
   25C4 86 82              7543 	mov	dpl,@r0
   25C6 08                 7544 	inc	r0
   25C7 86 83              7545 	mov	dph,@r0
   25C9 08                 7546 	inc	r0
   25CA 86 F0              7547 	mov	b,@r0
   25CC EA                 7548 	mov	a,r2
   25CD 12s00r00           7549 	lcall	__gptrput
   25D0 A3                 7550 	inc	dptr
   25D1 EB                 7551 	mov	a,r3
   25D2 12s00r00           7552 	lcall	__gptrput
   25D5 E5*00              7553 	mov	a,_bp
   25D7 24 0B              7554 	add	a,#0x0b
   25D9 F8                 7555 	mov	r0,a
   25DA 86 82              7556 	mov	dpl,@r0
   25DC 08                 7557 	inc	r0
   25DD 86 83              7558 	mov	dph,@r0
   25DF 08                 7559 	inc	r0
   25E0 86 F0              7560 	mov	b,@r0
   25E2 EA                 7561 	mov	a,r2
   25E3 12s00r00           7562 	lcall	__gptrput
   25E6 A3                 7563 	inc	dptr
   25E7 EB                 7564 	mov	a,r3
   25E8 12s00r00           7565 	lcall	__gptrput
                           7566 ;	../../core/net/uip.c:1571: break;
   25EB 80 37              7567 	sjmp	00307$
   25ED                    7568 00294$:
                           7569 ;	../../core/net/uip.c:1575: if(uip_buf[UIP_TCPIP_HLEN + UIP_LLH_LEN + 1 + c] == 0) {
   25ED C0 05              7570 	push	ar5
   25EF C0 06              7571 	push	ar6
   25F1 C0 07              7572 	push	ar7
   25F3 90s02rA7           7573 	mov	dptr,#_c
   25F6 E0                 7574 	movx	a,@dptr
   25F7 FB                 7575 	mov	r3,a
   25F8 24 37              7576 	add	a,#0x37
   25FA 24r0C              7577 	add	a,#_uip_aligned_buf
   25FC FA                 7578 	mov	r2,a
   25FD E4                 7579 	clr	a
   25FE 34s00              7580 	addc	a,#(_uip_aligned_buf >> 8)
   2600 FF                 7581 	mov	r7,a
   2601 8A 82              7582 	mov	dpl,r2
   2603 8F 83              7583 	mov	dph,r7
   2605 E0                 7584 	movx	a,@dptr
   2606 D0 07              7585 	pop	ar7
   2608 D0 06              7586 	pop	ar6
   260A D0 05              7587 	pop	ar5
   260C 60 16              7588 	jz	00307$
                           7589 ;	../../core/net/uip.c:1580: c += uip_buf[UIP_TCPIP_HLEN + UIP_LLH_LEN + 1 + c];
   260E 74 37              7590 	mov	a,#0x37
   2610 2B                 7591 	add	a,r3
   2611 24r0C              7592 	add	a,#_uip_aligned_buf
   2613 F5 82              7593 	mov	dpl,a
   2615 E4                 7594 	clr	a
   2616 34s00              7595 	addc	a,#(_uip_aligned_buf >> 8)
   2618 F5 83              7596 	mov	dph,a
   261A E0                 7597 	movx	a,@dptr
   261B FA                 7598 	mov	r2,a
   261C 90s02rA7           7599 	mov	dptr,#_c
   261F 2B                 7600 	add	a,r3
   2620 F0                 7601 	movx	@dptr,a
   2621 02s24rA4           7602 	ljmp	00303$
   2624                    7603 00307$:
                           7604 ;	../../core/net/uip.c:1584: uip_connr->tcpstateflags = UIP_ESTABLISHED;
   2624 8D 82              7605 	mov	dpl,r5
   2626 8E 83              7606 	mov	dph,r6
   2628 8F F0              7607 	mov	b,r7
   262A 74 03              7608 	mov	a,#0x03
   262C 12s00r00           7609 	lcall	__gptrput
                           7610 ;	../../core/net/uip.c:1585: uip_connr->rcv_nxt[0] = BUF->seqno[0];
   262F A8*00              7611 	mov	r0,_bp
   2631 08                 7612 	inc	r0
   2632 74 08              7613 	mov	a,#0x08
   2634 26                 7614 	add	a,@r0
   2635 FF                 7615 	mov	r7,a
   2636 E4                 7616 	clr	a
   2637 08                 7617 	inc	r0
   2638 36                 7618 	addc	a,@r0
   2639 FE                 7619 	mov	r6,a
   263A 08                 7620 	inc	r0
   263B 86 05              7621 	mov	ar5,@r0
   263D 7Ar1A              7622 	mov	r2,#(_uip_aligned_buf + 0x000e)
   263F 7Bs00              7623 	mov	r3,#((_uip_aligned_buf + 0x000e) >> 8)
   2641 74 18              7624 	mov	a,#0x18
   2643 2A                 7625 	add	a,r2
   2644 F5 82              7626 	mov	dpl,a
   2646 E4                 7627 	clr	a
   2647 3B                 7628 	addc	a,r3
   2648 F5 83              7629 	mov	dph,a
   264A E0                 7630 	movx	a,@dptr
   264B 8F 82              7631 	mov	dpl,r7
   264D 8E 83              7632 	mov	dph,r6
   264F 8D F0              7633 	mov	b,r5
   2651 12s00r00           7634 	lcall	__gptrput
                           7635 ;	../../core/net/uip.c:1586: uip_connr->rcv_nxt[1] = BUF->seqno[1];
   2654 A8*00              7636 	mov	r0,_bp
   2656 08                 7637 	inc	r0
   2657 74 08              7638 	mov	a,#0x08
   2659 26                 7639 	add	a,@r0
   265A FF                 7640 	mov	r7,a
   265B E4                 7641 	clr	a
   265C 08                 7642 	inc	r0
   265D 36                 7643 	addc	a,@r0
   265E FE                 7644 	mov	r6,a
   265F 08                 7645 	inc	r0
   2660 86 05              7646 	mov	ar5,@r0
   2662 E5*00              7647 	mov	a,_bp
   2664 24 08              7648 	add	a,#0x08
   2666 F8                 7649 	mov	r0,a
   2667 74 01              7650 	mov	a,#0x01
   2669 2F                 7651 	add	a,r7
   266A F6                 7652 	mov	@r0,a
   266B E4                 7653 	clr	a
   266C 3E                 7654 	addc	a,r6
   266D 08                 7655 	inc	r0
   266E F6                 7656 	mov	@r0,a
   266F 08                 7657 	inc	r0
   2670 A6 05              7658 	mov	@r0,ar5
   2672 7Ar1A              7659 	mov	r2,#(_uip_aligned_buf + 0x000e)
   2674 7Bs00              7660 	mov	r3,#((_uip_aligned_buf + 0x000e) >> 8)
   2676 74 19              7661 	mov	a,#0x19
   2678 2A                 7662 	add	a,r2
   2679 F5 82              7663 	mov	dpl,a
   267B E4                 7664 	clr	a
   267C 3B                 7665 	addc	a,r3
   267D F5 83              7666 	mov	dph,a
   267F E0                 7667 	movx	a,@dptr
   2680 FB                 7668 	mov	r3,a
   2681 E5*00              7669 	mov	a,_bp
   2683 24 08              7670 	add	a,#0x08
   2685 F8                 7671 	mov	r0,a
   2686 86 82              7672 	mov	dpl,@r0
   2688 08                 7673 	inc	r0
   2689 86 83              7674 	mov	dph,@r0
   268B 08                 7675 	inc	r0
   268C 86 F0              7676 	mov	b,@r0
   268E EB                 7677 	mov	a,r3
   268F 12s00r00           7678 	lcall	__gptrput
                           7679 ;	../../core/net/uip.c:1587: uip_connr->rcv_nxt[2] = BUF->seqno[2];
   2692 E5*00              7680 	mov	a,_bp
   2694 24 08              7681 	add	a,#0x08
   2696 F8                 7682 	mov	r0,a
   2697 74 02              7683 	mov	a,#0x02
   2699 2F                 7684 	add	a,r7
   269A F6                 7685 	mov	@r0,a
   269B E4                 7686 	clr	a
   269C 3E                 7687 	addc	a,r6
   269D 08                 7688 	inc	r0
   269E F6                 7689 	mov	@r0,a
   269F 08                 7690 	inc	r0
   26A0 A6 05              7691 	mov	@r0,ar5
   26A2 7Ar1A              7692 	mov	r2,#(_uip_aligned_buf + 0x000e)
   26A4 7Bs00              7693 	mov	r3,#((_uip_aligned_buf + 0x000e) >> 8)
   26A6 74 1A              7694 	mov	a,#0x1A
   26A8 2A                 7695 	add	a,r2
   26A9 F5 82              7696 	mov	dpl,a
   26AB E4                 7697 	clr	a
   26AC 3B                 7698 	addc	a,r3
   26AD F5 83              7699 	mov	dph,a
   26AF E0                 7700 	movx	a,@dptr
   26B0 FB                 7701 	mov	r3,a
   26B1 E5*00              7702 	mov	a,_bp
   26B3 24 08              7703 	add	a,#0x08
   26B5 F8                 7704 	mov	r0,a
   26B6 86 82              7705 	mov	dpl,@r0
   26B8 08                 7706 	inc	r0
   26B9 86 83              7707 	mov	dph,@r0
   26BB 08                 7708 	inc	r0
   26BC 86 F0              7709 	mov	b,@r0
   26BE EB                 7710 	mov	a,r3
   26BF 12s00r00           7711 	lcall	__gptrput
                           7712 ;	../../core/net/uip.c:1588: uip_connr->rcv_nxt[3] = BUF->seqno[3];
   26C2 74 03              7713 	mov	a,#0x03
   26C4 2F                 7714 	add	a,r7
   26C5 FF                 7715 	mov	r7,a
   26C6 E4                 7716 	clr	a
   26C7 3E                 7717 	addc	a,r6
   26C8 FE                 7718 	mov	r6,a
   26C9 7Ar1A              7719 	mov	r2,#(_uip_aligned_buf + 0x000e)
   26CB 7Bs00              7720 	mov	r3,#((_uip_aligned_buf + 0x000e) >> 8)
   26CD 74 1B              7721 	mov	a,#0x1B
   26CF 2A                 7722 	add	a,r2
   26D0 F5 82              7723 	mov	dpl,a
   26D2 E4                 7724 	clr	a
   26D3 3B                 7725 	addc	a,r3
   26D4 F5 83              7726 	mov	dph,a
   26D6 E0                 7727 	movx	a,@dptr
   26D7 8F 82              7728 	mov	dpl,r7
   26D9 8E 83              7729 	mov	dph,r6
   26DB 8D F0              7730 	mov	b,r5
   26DD 12s00r00           7731 	lcall	__gptrput
                           7732 ;	../../core/net/uip.c:1589: uip_add_rcv_nxt(1);
   26E0 90 00 01           7733 	mov	dptr,#0x0001
   26E3 12s0Ar27           7734 	lcall	_uip_add_rcv_nxt
                           7735 ;	../../core/net/uip.c:1590: uip_flags = UIP_CONNECTED | UIP_NEWDATA;
   26E6 90s00r82           7736 	mov	dptr,#_uip_flags
   26E9 74 42              7737 	mov	a,#0x42
   26EB F0                 7738 	movx	@dptr,a
                           7739 ;	../../core/net/uip.c:1591: uip_connr->len = 0;
   26EC A8*00              7740 	mov	r0,_bp
   26EE 08                 7741 	inc	r0
   26EF 74 10              7742 	mov	a,#0x10
   26F1 26                 7743 	add	a,@r0
   26F2 FF                 7744 	mov	r7,a
   26F3 E4                 7745 	clr	a
   26F4 08                 7746 	inc	r0
   26F5 36                 7747 	addc	a,@r0
   26F6 FE                 7748 	mov	r6,a
   26F7 08                 7749 	inc	r0
   26F8 86 05              7750 	mov	ar5,@r0
   26FA 8F 82              7751 	mov	dpl,r7
   26FC 8E 83              7752 	mov	dph,r6
   26FE 8D F0              7753 	mov	b,r5
   2700 E4                 7754 	clr	a
   2701 12s00r00           7755 	lcall	__gptrput
   2704 A3                 7756 	inc	dptr
   2705 E4                 7757 	clr	a
   2706 12s00r00           7758 	lcall	__gptrput
                           7759 ;	../../core/net/uip.c:1592: uip_len = 0;
   2709 90s00r7E           7760 	mov	dptr,#_uip_len
                           7761 ;	../../core/net/uip.c:1593: uip_slen = 0;
   270C E4                 7762 	clr	a
   270D F0                 7763 	movx	@dptr,a
   270E A3                 7764 	inc	dptr
   270F F0                 7765 	movx	@dptr,a
   2710 90s00r80           7766 	mov	dptr,#_uip_slen
   2713 F0                 7767 	movx	@dptr,a
   2714 A3                 7768 	inc	dptr
   2715 E4                 7769 	clr	a
   2716 F0                 7770 	movx	@dptr,a
                           7771 ;	../../core/net/uip.c:1594: UIP_APPCALL();
   2717 12s00r00           7772 	lcall	_tcpip_uipcall
                           7773 ;	../../core/net/uip.c:1595: goto appsend;
   271A 02s29r89           7774 	ljmp	00328$
   271D                    7775 00309$:
                           7776 ;	../../core/net/uip.c:1598: uip_flags = UIP_ABORT;
   271D 90s00r82           7777 	mov	dptr,#_uip_flags
   2720 74 20              7778 	mov	a,#0x20
   2722 F0                 7779 	movx	@dptr,a
                           7780 ;	../../core/net/uip.c:1599: UIP_APPCALL();
   2723 12s00r00           7781 	lcall	_tcpip_uipcall
                           7782 ;	../../core/net/uip.c:1601: uip_conn->tcpstateflags = UIP_CLOSED;
   2726 90s00r83           7783 	mov	dptr,#_uip_conn
   2729 E5*00              7784 	mov	a,_bp
   272B 24 0B              7785 	add	a,#0x0b
   272D F8                 7786 	mov	r0,a
   272E E0                 7787 	movx	a,@dptr
   272F F6                 7788 	mov	@r0,a
   2730 A3                 7789 	inc	dptr
   2731 E0                 7790 	movx	a,@dptr
   2732 08                 7791 	inc	r0
   2733 F6                 7792 	mov	@r0,a
   2734 A3                 7793 	inc	dptr
   2735 E0                 7794 	movx	a,@dptr
   2736 08                 7795 	inc	r0
   2737 F6                 7796 	mov	@r0,a
   2738 E5*00              7797 	mov	a,_bp
   273A 24 0B              7798 	add	a,#0x0b
   273C F8                 7799 	mov	r0,a
   273D 74 19              7800 	mov	a,#0x19
   273F 26                 7801 	add	a,@r0
   2740 F6                 7802 	mov	@r0,a
   2741 E4                 7803 	clr	a
   2742 08                 7804 	inc	r0
   2743 36                 7805 	addc	a,@r0
   2744 F6                 7806 	mov	@r0,a
   2745 E5*00              7807 	mov	a,_bp
   2747 24 0B              7808 	add	a,#0x0b
   2749 F8                 7809 	mov	r0,a
   274A 86 82              7810 	mov	dpl,@r0
   274C 08                 7811 	inc	r0
   274D 86 83              7812 	mov	dph,@r0
   274F 08                 7813 	inc	r0
   2750 86 F0              7814 	mov	b,@r0
   2752 E4                 7815 	clr	a
   2753 12s00r00           7816 	lcall	__gptrput
                           7817 ;	../../core/net/uip.c:1602: goto reset;
   2756 02s17r16           7818 	ljmp	00214$
                           7819 ;	../../core/net/uip.c:1605: case UIP_ESTABLISHED:
   2759                    7820 00311$:
                           7821 ;	../../core/net/uip.c:1617: if(BUF->flags & TCP_FIN && !(uip_connr->tcpstateflags & UIP_STOPPED)) {
   2759 7Ar1A              7822 	mov	r2,#(_uip_aligned_buf + 0x000e)
   275B 7Bs00              7823 	mov	r3,#((_uip_aligned_buf + 0x000e) >> 8)
   275D 74 21              7824 	mov	a,#0x21
   275F 2A                 7825 	add	a,r2
   2760 F5 82              7826 	mov	dpl,a
   2762 E4                 7827 	clr	a
   2763 3B                 7828 	addc	a,r3
   2764 F5 83              7829 	mov	dph,a
   2766 E0                 7830 	movx	a,@dptr
   2767 FB                 7831 	mov	r3,a
   2768 20 E0 03           7832 	jb	acc.0,00849$
   276B 02s28r3C           7833 	ljmp	00318$
   276E                    7834 00849$:
   276E EC                 7835 	mov	a,r4
   276F 30 E4 03           7836 	jnb	acc.4,00850$
   2772 02s28r3C           7837 	ljmp	00318$
   2775                    7838 00850$:
                           7839 ;	../../core/net/uip.c:1618: if(uip_outstanding(uip_connr)) {
   2775 A8*00              7840 	mov	r0,_bp
   2777 08                 7841 	inc	r0
   2778 E5*00              7842 	mov	a,_bp
   277A 24 0B              7843 	add	a,#0x0b
   277C F9                 7844 	mov	r1,a
   277D 74 10              7845 	mov	a,#0x10
   277F 26                 7846 	add	a,@r0
   2780 F7                 7847 	mov	@r1,a
   2781 E4                 7848 	clr	a
   2782 08                 7849 	inc	r0
   2783 36                 7850 	addc	a,@r0
   2784 09                 7851 	inc	r1
   2785 F7                 7852 	mov	@r1,a
   2786 08                 7853 	inc	r0
   2787 09                 7854 	inc	r1
   2788 E6                 7855 	mov	a,@r0
   2789 F7                 7856 	mov	@r1,a
   278A E5*00              7857 	mov	a,_bp
   278C 24 0B              7858 	add	a,#0x0b
   278E F8                 7859 	mov	r0,a
   278F 86 82              7860 	mov	dpl,@r0
   2791 08                 7861 	inc	r0
   2792 86 83              7862 	mov	dph,@r0
   2794 08                 7863 	inc	r0
   2795 86 F0              7864 	mov	b,@r0
   2797 12s00r00           7865 	lcall	__gptrget
   279A FA                 7866 	mov	r2,a
   279B A3                 7867 	inc	dptr
   279C 12s00r00           7868 	lcall	__gptrget
   279F FB                 7869 	mov	r3,a
   27A0 4A                 7870 	orl	a,r2
   27A1 60 03              7871 	jz	00851$
   27A3 02s30rFB           7872 	ljmp	00387$
   27A6                    7873 00851$:
                           7874 ;	../../core/net/uip.c:1621: uip_add_rcv_nxt(1 + uip_len);
   27A6 90s00r7E           7875 	mov	dptr,#_uip_len
   27A9 E0                 7876 	movx	a,@dptr
   27AA FA                 7877 	mov	r2,a
   27AB A3                 7878 	inc	dptr
   27AC E0                 7879 	movx	a,@dptr
   27AD FB                 7880 	mov	r3,a
   27AE 0A                 7881 	inc	r2
   27AF BA 00 01           7882 	cjne	r2,#0x00,00852$
   27B2 0B                 7883 	inc	r3
   27B3                    7884 00852$:
   27B3 8A 82              7885 	mov	dpl,r2
   27B5 8B 83              7886 	mov	dph,r3
   27B7 C0 07              7887 	push	ar7
   27B9 C0 06              7888 	push	ar6
   27BB C0 05              7889 	push	ar5
   27BD 12s0Ar27           7890 	lcall	_uip_add_rcv_nxt
   27C0 D0 05              7891 	pop	ar5
   27C2 D0 06              7892 	pop	ar6
   27C4 D0 07              7893 	pop	ar7
                           7894 ;	../../core/net/uip.c:1622: uip_flags |= UIP_CLOSE;
   27C6 90s00r82           7895 	mov	dptr,#_uip_flags
   27C9 E0                 7896 	movx	a,@dptr
   27CA 44 10              7897 	orl	a,#0x10
   27CC F0                 7898 	movx	@dptr,a
                           7899 ;	../../core/net/uip.c:1623: if(uip_len > 0) {
   27CD 90s00r7E           7900 	mov	dptr,#_uip_len
   27D0 E0                 7901 	movx	a,@dptr
   27D1 FA                 7902 	mov	r2,a
   27D2 A3                 7903 	inc	dptr
   27D3 E0                 7904 	movx	a,@dptr
   27D4 FB                 7905 	mov	r3,a
   27D5 4A                 7906 	orl	a,r2
   27D6 60 08              7907 	jz	00315$
                           7908 ;	../../core/net/uip.c:1624: uip_flags |= UIP_NEWDATA;
   27D8 90s00r82           7909 	mov	dptr,#_uip_flags
   27DB E0                 7910 	movx	a,@dptr
   27DC FB                 7911 	mov	r3,a
   27DD 44 02              7912 	orl	a,#0x02
   27DF F0                 7913 	movx	@dptr,a
   27E0                    7914 00315$:
                           7915 ;	../../core/net/uip.c:1626: UIP_APPCALL();
   27E0 C0 07              7916 	push	ar7
   27E2 C0 06              7917 	push	ar6
   27E4 C0 05              7918 	push	ar5
   27E6 12s00r00           7919 	lcall	_tcpip_uipcall
   27E9 D0 05              7920 	pop	ar5
   27EB D0 06              7921 	pop	ar6
   27ED D0 07              7922 	pop	ar7
                           7923 ;	../../core/net/uip.c:1627: uip_connr->len = 1;
   27EF E5*00              7924 	mov	a,_bp
   27F1 24 0B              7925 	add	a,#0x0b
   27F3 F8                 7926 	mov	r0,a
   27F4 86 82              7927 	mov	dpl,@r0
   27F6 08                 7928 	inc	r0
   27F7 86 83              7929 	mov	dph,@r0
   27F9 08                 7930 	inc	r0
   27FA 86 F0              7931 	mov	b,@r0
   27FC 74 01              7932 	mov	a,#0x01
   27FE 12s00r00           7933 	lcall	__gptrput
   2801 A3                 7934 	inc	dptr
   2802 E4                 7935 	clr	a
   2803 12s00r00           7936 	lcall	__gptrput
                           7937 ;	../../core/net/uip.c:1628: uip_connr->tcpstateflags = UIP_LAST_ACK;
   2806 8D 82              7938 	mov	dpl,r5
   2808 8E 83              7939 	mov	dph,r6
   280A 8F F0              7940 	mov	b,r7
   280C 74 08              7941 	mov	a,#0x08
   280E 12s00r00           7942 	lcall	__gptrput
                           7943 ;	../../core/net/uip.c:1629: uip_connr->nrtx = 0;
   2811 A8*00              7944 	mov	r0,_bp
   2813 08                 7945 	inc	r0
   2814 74 1B              7946 	mov	a,#0x1B
   2816 26                 7947 	add	a,@r0
   2817 FF                 7948 	mov	r7,a
   2818 E4                 7949 	clr	a
   2819 08                 7950 	inc	r0
   281A 36                 7951 	addc	a,@r0
   281B FE                 7952 	mov	r6,a
   281C 08                 7953 	inc	r0
   281D 86 05              7954 	mov	ar5,@r0
   281F 8F 82              7955 	mov	dpl,r7
   2821 8E 83              7956 	mov	dph,r6
   2823 8D F0              7957 	mov	b,r5
   2825 E4                 7958 	clr	a
   2826 12s00r00           7959 	lcall	__gptrput
                           7960 ;	../../core/net/uip.c:1630: tcp_send_finack:
   2829                    7961 00316$:
                           7962 ;	../../core/net/uip.c:1631: BUF->flags = TCP_FIN | TCP_ACK;
   2829 7Ar1A              7963 	mov	r2,#(_uip_aligned_buf + 0x000e)
   282B 7Bs00              7964 	mov	r3,#((_uip_aligned_buf + 0x000e) >> 8)
   282D 74 21              7965 	mov	a,#0x21
   282F 2A                 7966 	add	a,r2
   2830 F5 82              7967 	mov	dpl,a
   2832 E4                 7968 	clr	a
   2833 3B                 7969 	addc	a,r3
   2834 F5 83              7970 	mov	dph,a
   2836 74 11              7971 	mov	a,#0x11
   2838 F0                 7972 	movx	@dptr,a
                           7973 ;	../../core/net/uip.c:1632: goto tcp_send_nodata;
   2839 02s2Dr32           7974 	ljmp	00379$
   283C                    7975 00318$:
                           7976 ;	../../core/net/uip.c:1637: if((BUF->flags & TCP_URG) != 0) {
   283C 7Ar1A              7977 	mov	r2,#(_uip_aligned_buf + 0x000e)
   283E 7Bs00              7978 	mov	r3,#((_uip_aligned_buf + 0x000e) >> 8)
   2840 74 21              7979 	mov	a,#0x21
   2842 2A                 7980 	add	a,r2
   2843 F5 82              7981 	mov	dpl,a
   2845 E4                 7982 	clr	a
   2846 3B                 7983 	addc	a,r3
   2847 F5 83              7984 	mov	dph,a
   2849 E0                 7985 	movx	a,@dptr
   284A FB                 7986 	mov	r3,a
   284B 20 E5 03           7987 	jb	acc.5,00854$
   284E 02s28rD3           7988 	ljmp	00321$
   2851                    7989 00854$:
                           7990 ;	../../core/net/uip.c:1651: uip_appdata = ((char *)uip_appdata) + ((BUF->urgp[0] << 8) | BUF->urgp[1]);
   2851 C0 04              7991 	push	ar4
   2853 90s00r78           7992 	mov	dptr,#_uip_appdata
   2856 E0                 7993 	movx	a,@dptr
   2857 FA                 7994 	mov	r2,a
   2858 A3                 7995 	inc	dptr
   2859 E0                 7996 	movx	a,@dptr
   285A FB                 7997 	mov	r3,a
   285B A3                 7998 	inc	dptr
   285C E0                 7999 	movx	a,@dptr
   285D FC                 8000 	mov	r4,a
   285E E5*00              8001 	mov	a,_bp
   2860 24 0B              8002 	add	a,#0x0b
   2862 F8                 8003 	mov	r0,a
   2863 A6 02              8004 	mov	@r0,ar2
   2865 08                 8005 	inc	r0
   2866 A6 03              8006 	mov	@r0,ar3
   2868 08                 8007 	inc	r0
   2869 A6 04              8008 	mov	@r0,ar4
   286B 7Br1A              8009 	mov	r3,#(_uip_aligned_buf + 0x000e)
   286D 7Cs00              8010 	mov	r4,#((_uip_aligned_buf + 0x000e) >> 8)
   286F 74 27              8011 	mov	a,#0x27
   2871 2B                 8012 	add	a,r3
   2872 F5 82              8013 	mov	dpl,a
   2874 E4                 8014 	clr	a
   2875 3C                 8015 	addc	a,r4
   2876 F5 83              8016 	mov	dph,a
   2878 E0                 8017 	movx	a,@dptr
   2879 FC                 8018 	mov	r4,a
   287A E5*00              8019 	mov	a,_bp
   287C 24 0B              8020 	add	a,#0x0b
   287E F8                 8021 	mov	r0,a
   287F EC                 8022 	mov	a,r4
   2880 26                 8023 	add	a,@r0
   2881 FC                 8024 	mov	r4,a
   2882 E4                 8025 	clr	a
   2883 08                 8026 	inc	r0
   2884 36                 8027 	addc	a,@r0
   2885 FB                 8028 	mov	r3,a
   2886 08                 8029 	inc	r0
   2887 86 02              8030 	mov	ar2,@r0
   2889 90s00r78           8031 	mov	dptr,#_uip_appdata
   288C EC                 8032 	mov	a,r4
   288D F0                 8033 	movx	@dptr,a
   288E A3                 8034 	inc	dptr
   288F EB                 8035 	mov	a,r3
   2890 F0                 8036 	movx	@dptr,a
   2891 A3                 8037 	inc	dptr
   2892 EA                 8038 	mov	a,r2
   2893 F0                 8039 	movx	@dptr,a
                           8040 ;	../../core/net/uip.c:1652: uip_len -= (BUF->urgp[0] << 8) | BUF->urgp[1];
   2894 7Br1A              8041 	mov	r3,#(_uip_aligned_buf + 0x000e)
   2896 7Cs00              8042 	mov	r4,#((_uip_aligned_buf + 0x000e) >> 8)
   2898 74 26              8043 	mov	a,#0x26
   289A 2B                 8044 	add	a,r3
   289B F5 82              8045 	mov	dpl,a
   289D E4                 8046 	clr	a
   289E 3C                 8047 	addc	a,r4
   289F F5 83              8048 	mov	dph,a
   28A1 E0                 8049 	movx	a,@dptr
   28A2 FE                 8050 	mov	r6,a
   28A3 7F 00              8051 	mov	r7,#0x00
   28A5 7Ar1A              8052 	mov	r2,#(_uip_aligned_buf + 0x000e)
   28A7 7Cs00              8053 	mov	r4,#((_uip_aligned_buf + 0x000e) >> 8)
   28A9 74 27              8054 	mov	a,#0x27
   28AB 2A                 8055 	add	a,r2
   28AC F5 82              8056 	mov	dpl,a
   28AE E4                 8057 	clr	a
   28AF 3C                 8058 	addc	a,r4
   28B0 F5 83              8059 	mov	dph,a
   28B2 E0                 8060 	movx	a,@dptr
   28B3 7B 00              8061 	mov	r3,#0x00
   28B5 42 07              8062 	orl	ar7,a
   28B7 EB                 8063 	mov	a,r3
   28B8 42 06              8064 	orl	ar6,a
   28BA 90s00r7E           8065 	mov	dptr,#_uip_len
   28BD E0                 8066 	movx	a,@dptr
   28BE FD                 8067 	mov	r5,a
   28BF A3                 8068 	inc	dptr
   28C0 E0                 8069 	movx	a,@dptr
   28C1 FA                 8070 	mov	r2,a
   28C2 8F 03              8071 	mov	ar3,r7
   28C4 8E 04              8072 	mov	ar4,r6
   28C6 90s00r7E           8073 	mov	dptr,#_uip_len
   28C9 ED                 8074 	mov	a,r5
   28CA C3                 8075 	clr	c
   28CB 9B                 8076 	subb	a,r3
   28CC F0                 8077 	movx	@dptr,a
   28CD EA                 8078 	mov	a,r2
   28CE 9C                 8079 	subb	a,r4
   28CF A3                 8080 	inc	dptr
   28D0 F0                 8081 	movx	@dptr,a
                           8082 ;	../../core/net/uip.c:1938: return;
   28D1 D0 04              8083 	pop	ar4
                           8084 ;	../../core/net/uip.c:1652: uip_len -= (BUF->urgp[0] << 8) | BUF->urgp[1];
   28D3                    8085 00321$:
                           8086 ;	../../core/net/uip.c:1661: if(uip_len > 0 && !(uip_connr->tcpstateflags & UIP_STOPPED)) {
   28D3 90s00r7E           8087 	mov	dptr,#_uip_len
   28D6 E0                 8088 	movx	a,@dptr
   28D7 FA                 8089 	mov	r2,a
   28D8 A3                 8090 	inc	dptr
   28D9 E0                 8091 	movx	a,@dptr
   28DA FB                 8092 	mov	r3,a
   28DB 4A                 8093 	orl	a,r2
   28DC 60 12              8094 	jz	00323$
   28DE EC                 8095 	mov	a,r4
   28DF 20 E4 0E           8096 	jb	acc.4,00323$
                           8097 ;	../../core/net/uip.c:1662: uip_flags |= UIP_NEWDATA;
   28E2 90s00r82           8098 	mov	dptr,#_uip_flags
   28E5 E0                 8099 	movx	a,@dptr
   28E6 44 02              8100 	orl	a,#0x02
   28E8 F0                 8101 	movx	@dptr,a
                           8102 ;	../../core/net/uip.c:1663: uip_add_rcv_nxt(uip_len);
   28E9 8A 82              8103 	mov	dpl,r2
   28EB 8B 83              8104 	mov	dph,r3
   28ED 12s0Ar27           8105 	lcall	_uip_add_rcv_nxt
   28F0                    8106 00323$:
                           8107 ;	../../core/net/uip.c:1678: tmp16 = ((uint16_t)BUF->wnd[0] << 8) + (uint16_t)BUF->wnd[1];
   28F0 7Br1A              8108 	mov	r3,#(_uip_aligned_buf + 0x000e)
   28F2 7Cs00              8109 	mov	r4,#((_uip_aligned_buf + 0x000e) >> 8)
   28F4 74 22              8110 	mov	a,#0x22
   28F6 2B                 8111 	add	a,r3
   28F7 F5 82              8112 	mov	dpl,a
   28F9 E4                 8113 	clr	a
   28FA 3C                 8114 	addc	a,r4
   28FB F5 83              8115 	mov	dph,a
   28FD E0                 8116 	movx	a,@dptr
   28FE FE                 8117 	mov	r6,a
   28FF 7F 00              8118 	mov	r7,#0x00
   2901 7Ar1A              8119 	mov	r2,#(_uip_aligned_buf + 0x000e)
   2903 7Cs00              8120 	mov	r4,#((_uip_aligned_buf + 0x000e) >> 8)
   2905 74 23              8121 	mov	a,#0x23
   2907 2A                 8122 	add	a,r2
   2908 F5 82              8123 	mov	dpl,a
   290A E4                 8124 	clr	a
   290B 3C                 8125 	addc	a,r4
   290C F5 83              8126 	mov	dph,a
   290E E0                 8127 	movx	a,@dptr
   290F 7B 00              8128 	mov	r3,#0x00
   2911 2F                 8129 	add	a,r7
   2912 FF                 8130 	mov	r7,a
   2913 EB                 8131 	mov	a,r3
   2914 3E                 8132 	addc	a,r6
   2915 FE                 8133 	mov	r6,a
   2916 90s02rA9           8134 	mov	dptr,#_tmp16
   2919 EF                 8135 	mov	a,r7
   291A F0                 8136 	movx	@dptr,a
   291B A3                 8137 	inc	dptr
   291C EE                 8138 	mov	a,r6
   291D F0                 8139 	movx	@dptr,a
                           8140 ;	../../core/net/uip.c:1679: if(tmp16 > uip_connr->initialmss ||
   291E A8*00              8141 	mov	r0,_bp
   2920 08                 8142 	inc	r0
   2921 74 14              8143 	mov	a,#0x14
   2923 26                 8144 	add	a,@r0
   2924 FA                 8145 	mov	r2,a
   2925 E4                 8146 	clr	a
   2926 08                 8147 	inc	r0
   2927 36                 8148 	addc	a,@r0
   2928 FB                 8149 	mov	r3,a
   2929 08                 8150 	inc	r0
   292A 86 04              8151 	mov	ar4,@r0
   292C 8A 82              8152 	mov	dpl,r2
   292E 8B 83              8153 	mov	dph,r3
   2930 8C F0              8154 	mov	b,r4
   2932 12s00r00           8155 	lcall	__gptrget
   2935 FB                 8156 	mov	r3,a
   2936 A3                 8157 	inc	dptr
   2937 12s00r00           8158 	lcall	__gptrget
   293A FC                 8159 	mov	r4,a
   293B C3                 8160 	clr	c
   293C EB                 8161 	mov	a,r3
   293D 9F                 8162 	subb	a,r7
   293E EC                 8163 	mov	a,r4
   293F 9E                 8164 	subb	a,r6
   2940 40 04              8165 	jc	00325$
                           8166 ;	../../core/net/uip.c:1680: tmp16 == 0) {
   2942 EF                 8167 	mov	a,r7
   2943 4E                 8168 	orl	a,r6
   2944 70 08              8169 	jnz	00326$
   2946                    8170 00325$:
                           8171 ;	../../core/net/uip.c:1681: tmp16 = uip_connr->initialmss;
   2946 90s02rA9           8172 	mov	dptr,#_tmp16
   2949 EB                 8173 	mov	a,r3
   294A F0                 8174 	movx	@dptr,a
   294B A3                 8175 	inc	dptr
   294C EC                 8176 	mov	a,r4
   294D F0                 8177 	movx	@dptr,a
   294E                    8178 00326$:
                           8179 ;	../../core/net/uip.c:1683: uip_connr->mss = tmp16;
   294E A8*00              8180 	mov	r0,_bp
   2950 08                 8181 	inc	r0
   2951 74 12              8182 	mov	a,#0x12
   2953 26                 8183 	add	a,@r0
   2954 FF                 8184 	mov	r7,a
   2955 E4                 8185 	clr	a
   2956 08                 8186 	inc	r0
   2957 36                 8187 	addc	a,@r0
   2958 FE                 8188 	mov	r6,a
   2959 08                 8189 	inc	r0
   295A 86 05              8190 	mov	ar5,@r0
   295C 90s02rA9           8191 	mov	dptr,#_tmp16
   295F E0                 8192 	movx	a,@dptr
   2960 FB                 8193 	mov	r3,a
   2961 A3                 8194 	inc	dptr
   2962 E0                 8195 	movx	a,@dptr
   2963 FC                 8196 	mov	r4,a
   2964 8F 82              8197 	mov	dpl,r7
   2966 8E 83              8198 	mov	dph,r6
   2968 8D F0              8199 	mov	b,r5
   296A EB                 8200 	mov	a,r3
   296B 12s00r00           8201 	lcall	__gptrput
   296E A3                 8202 	inc	dptr
   296F EC                 8203 	mov	a,r4
   2970 12s00r00           8204 	lcall	__gptrput
                           8205 ;	../../core/net/uip.c:1701: if(uip_flags & (UIP_NEWDATA | UIP_ACKDATA)) {
   2973 90s00r82           8206 	mov	dptr,#_uip_flags
   2976 E0                 8207 	movx	a,@dptr
   2977 FC                 8208 	mov	r4,a
   2978 54 03              8209 	anl	a,#0x03
   297A 70 03              8210 	jnz	00859$
   297C 02s30rFB           8211 	ljmp	00387$
   297F                    8212 00859$:
                           8213 ;	../../core/net/uip.c:1702: uip_slen = 0;
   297F 90s00r80           8214 	mov	dptr,#_uip_slen
   2982 E4                 8215 	clr	a
   2983 F0                 8216 	movx	@dptr,a
   2984 A3                 8217 	inc	dptr
   2985 F0                 8218 	movx	@dptr,a
                           8219 ;	../../core/net/uip.c:1703: UIP_APPCALL();
   2986 12s00r00           8220 	lcall	_tcpip_uipcall
                           8221 ;	../../core/net/uip.c:1705: appsend:
   2989                    8222 00328$:
                           8223 ;	../../core/net/uip.c:1707: if(uip_flags & UIP_ABORT) {
   2989 90s00r82           8224 	mov	dptr,#_uip_flags
   298C E0                 8225 	movx	a,@dptr
   298D FC                 8226 	mov	r4,a
   298E 30 E5 32           8227 	jnb	acc.5,00330$
                           8228 ;	../../core/net/uip.c:1708: uip_slen = 0;
   2991 90s00r80           8229 	mov	dptr,#_uip_slen
   2994 E4                 8230 	clr	a
   2995 F0                 8231 	movx	@dptr,a
   2996 A3                 8232 	inc	dptr
   2997 F0                 8233 	movx	@dptr,a
                           8234 ;	../../core/net/uip.c:1709: uip_connr->tcpstateflags = UIP_CLOSED;
   2998 A8*00              8235 	mov	r0,_bp
   299A 08                 8236 	inc	r0
   299B 74 19              8237 	mov	a,#0x19
   299D 26                 8238 	add	a,@r0
   299E FF                 8239 	mov	r7,a
   299F E4                 8240 	clr	a
   29A0 08                 8241 	inc	r0
   29A1 36                 8242 	addc	a,@r0
   29A2 FE                 8243 	mov	r6,a
   29A3 08                 8244 	inc	r0
   29A4 86 05              8245 	mov	ar5,@r0
   29A6 8F 82              8246 	mov	dpl,r7
   29A8 8E 83              8247 	mov	dph,r6
   29AA 8D F0              8248 	mov	b,r5
   29AC E4                 8249 	clr	a
   29AD 12s00r00           8250 	lcall	__gptrput
                           8251 ;	../../core/net/uip.c:1710: BUF->flags = TCP_RST | TCP_ACK;
   29B0 7Ar1A              8252 	mov	r2,#(_uip_aligned_buf + 0x000e)
   29B2 7Bs00              8253 	mov	r3,#((_uip_aligned_buf + 0x000e) >> 8)
   29B4 74 21              8254 	mov	a,#0x21
   29B6 2A                 8255 	add	a,r2
   29B7 F5 82              8256 	mov	dpl,a
   29B9 E4                 8257 	clr	a
   29BA 3B                 8258 	addc	a,r3
   29BB F5 83              8259 	mov	dph,a
   29BD 74 14              8260 	mov	a,#0x14
   29BF F0                 8261 	movx	@dptr,a
                           8262 ;	../../core/net/uip.c:1711: goto tcp_send_nodata;
   29C0 02s2Dr32           8263 	ljmp	00379$
   29C3                    8264 00330$:
                           8265 ;	../../core/net/uip.c:1714: if(uip_flags & UIP_CLOSE) {
   29C3 EC                 8266 	mov	a,r4
   29C4 30 E4 69           8267 	jnb	acc.4,00332$
                           8268 ;	../../core/net/uip.c:1715: uip_slen = 0;
   29C7 90s00r80           8269 	mov	dptr,#_uip_slen
   29CA E4                 8270 	clr	a
   29CB F0                 8271 	movx	@dptr,a
   29CC A3                 8272 	inc	dptr
   29CD F0                 8273 	movx	@dptr,a
                           8274 ;	../../core/net/uip.c:1716: uip_connr->len = 1;
   29CE A8*00              8275 	mov	r0,_bp
   29D0 08                 8276 	inc	r0
   29D1 74 10              8277 	mov	a,#0x10
   29D3 26                 8278 	add	a,@r0
   29D4 FF                 8279 	mov	r7,a
   29D5 E4                 8280 	clr	a
   29D6 08                 8281 	inc	r0
   29D7 36                 8282 	addc	a,@r0
   29D8 FE                 8283 	mov	r6,a
   29D9 08                 8284 	inc	r0
   29DA 86 05              8285 	mov	ar5,@r0
   29DC 8F 82              8286 	mov	dpl,r7
   29DE 8E 83              8287 	mov	dph,r6
   29E0 8D F0              8288 	mov	b,r5
   29E2 74 01              8289 	mov	a,#0x01
   29E4 12s00r00           8290 	lcall	__gptrput
   29E7 A3                 8291 	inc	dptr
   29E8 E4                 8292 	clr	a
   29E9 12s00r00           8293 	lcall	__gptrput
                           8294 ;	../../core/net/uip.c:1717: uip_connr->tcpstateflags = UIP_FIN_WAIT_1;
   29EC A8*00              8295 	mov	r0,_bp
   29EE 08                 8296 	inc	r0
   29EF 74 19              8297 	mov	a,#0x19
   29F1 26                 8298 	add	a,@r0
   29F2 FF                 8299 	mov	r7,a
   29F3 E4                 8300 	clr	a
   29F4 08                 8301 	inc	r0
   29F5 36                 8302 	addc	a,@r0
   29F6 FE                 8303 	mov	r6,a
   29F7 08                 8304 	inc	r0
   29F8 86 05              8305 	mov	ar5,@r0
   29FA 8F 82              8306 	mov	dpl,r7
   29FC 8E 83              8307 	mov	dph,r6
   29FE 8D F0              8308 	mov	b,r5
   2A00 74 04              8309 	mov	a,#0x04
   2A02 12s00r00           8310 	lcall	__gptrput
                           8311 ;	../../core/net/uip.c:1718: uip_connr->nrtx = 0;
   2A05 A8*00              8312 	mov	r0,_bp
   2A07 08                 8313 	inc	r0
   2A08 74 1B              8314 	mov	a,#0x1B
   2A0A 26                 8315 	add	a,@r0
   2A0B FF                 8316 	mov	r7,a
   2A0C E4                 8317 	clr	a
   2A0D 08                 8318 	inc	r0
   2A0E 36                 8319 	addc	a,@r0
   2A0F FE                 8320 	mov	r6,a
   2A10 08                 8321 	inc	r0
   2A11 86 05              8322 	mov	ar5,@r0
   2A13 8F 82              8323 	mov	dpl,r7
   2A15 8E 83              8324 	mov	dph,r6
   2A17 8D F0              8325 	mov	b,r5
   2A19 E4                 8326 	clr	a
   2A1A 12s00r00           8327 	lcall	__gptrput
                           8328 ;	../../core/net/uip.c:1719: BUF->flags = TCP_FIN | TCP_ACK;
   2A1D 7Ar1A              8329 	mov	r2,#(_uip_aligned_buf + 0x000e)
   2A1F 7Bs00              8330 	mov	r3,#((_uip_aligned_buf + 0x000e) >> 8)
   2A21 74 21              8331 	mov	a,#0x21
   2A23 2A                 8332 	add	a,r2
   2A24 F5 82              8333 	mov	dpl,a
   2A26 E4                 8334 	clr	a
   2A27 3B                 8335 	addc	a,r3
   2A28 F5 83              8336 	mov	dph,a
   2A2A 74 11              8337 	mov	a,#0x11
   2A2C F0                 8338 	movx	@dptr,a
                           8339 ;	../../core/net/uip.c:1720: goto tcp_send_nodata;
   2A2D 02s2Dr32           8340 	ljmp	00379$
   2A30                    8341 00332$:
                           8342 ;	../../core/net/uip.c:1724: if(uip_slen > 0) {
   2A30 90s00r80           8343 	mov	dptr,#_uip_slen
   2A33 E0                 8344 	movx	a,@dptr
   2A34 FF                 8345 	mov	r7,a
   2A35 A3                 8346 	inc	dptr
   2A36 E0                 8347 	movx	a,@dptr
   2A37 FE                 8348 	mov	r6,a
   2A38 4F                 8349 	orl	a,r7
   2A39 70 03              8350 	jnz	00862$
   2A3B 02s2ArE1           8351 	ljmp	00341$
   2A3E                    8352 00862$:
                           8353 ;	../../core/net/uip.c:1728: if((uip_flags & UIP_ACKDATA) != 0) {
   2A3E EC                 8354 	mov	a,r4
   2A3F 30 E0 1D           8355 	jnb	acc.0,00334$
                           8356 ;	../../core/net/uip.c:1729: uip_connr->len = 0;
   2A42 A8*00              8357 	mov	r0,_bp
   2A44 08                 8358 	inc	r0
   2A45 74 10              8359 	mov	a,#0x10
   2A47 26                 8360 	add	a,@r0
   2A48 FA                 8361 	mov	r2,a
   2A49 E4                 8362 	clr	a
   2A4A 08                 8363 	inc	r0
   2A4B 36                 8364 	addc	a,@r0
   2A4C FB                 8365 	mov	r3,a
   2A4D 08                 8366 	inc	r0
   2A4E 86 04              8367 	mov	ar4,@r0
   2A50 8A 82              8368 	mov	dpl,r2
   2A52 8B 83              8369 	mov	dph,r3
   2A54 8C F0              8370 	mov	b,r4
   2A56 E4                 8371 	clr	a
   2A57 12s00r00           8372 	lcall	__gptrput
   2A5A A3                 8373 	inc	dptr
   2A5B E4                 8374 	clr	a
   2A5C 12s00r00           8375 	lcall	__gptrput
   2A5F                    8376 00334$:
                           8377 ;	../../core/net/uip.c:1735: if(uip_connr->len == 0) {
   2A5F A8*00              8378 	mov	r0,_bp
   2A61 08                 8379 	inc	r0
   2A62 E5*00              8380 	mov	a,_bp
   2A64 24 05              8381 	add	a,#0x05
   2A66 F9                 8382 	mov	r1,a
   2A67 74 10              8383 	mov	a,#0x10
   2A69 26                 8384 	add	a,@r0
   2A6A F7                 8385 	mov	@r1,a
   2A6B E4                 8386 	clr	a
   2A6C 08                 8387 	inc	r0
   2A6D 36                 8388 	addc	a,@r0
   2A6E 09                 8389 	inc	r1
   2A6F F7                 8390 	mov	@r1,a
   2A70 08                 8391 	inc	r0
   2A71 09                 8392 	inc	r1
   2A72 E6                 8393 	mov	a,@r0
   2A73 F7                 8394 	mov	@r1,a
   2A74 E5*00              8395 	mov	a,_bp
   2A76 24 05              8396 	add	a,#0x05
   2A78 F8                 8397 	mov	r0,a
   2A79 86 82              8398 	mov	dpl,@r0
   2A7B 08                 8399 	inc	r0
   2A7C 86 83              8400 	mov	dph,@r0
   2A7E 08                 8401 	inc	r0
   2A7F 86 F0              8402 	mov	b,@r0
   2A81 12s00r00           8403 	lcall	__gptrget
   2A84 FD                 8404 	mov	r5,a
   2A85 A3                 8405 	inc	dptr
   2A86 12s00r00           8406 	lcall	__gptrget
   2A89 FC                 8407 	mov	r4,a
   2A8A 4D                 8408 	orl	a,r5
   2A8B 70 4C              8409 	jnz	00338$
                           8410 ;	../../core/net/uip.c:1740: if(uip_slen > uip_connr->mss) {
   2A8D A8*00              8411 	mov	r0,_bp
   2A8F 08                 8412 	inc	r0
   2A90 74 12              8413 	mov	a,#0x12
   2A92 26                 8414 	add	a,@r0
   2A93 FA                 8415 	mov	r2,a
   2A94 E4                 8416 	clr	a
   2A95 08                 8417 	inc	r0
   2A96 36                 8418 	addc	a,@r0
   2A97 FB                 8419 	mov	r3,a
   2A98 08                 8420 	inc	r0
   2A99 86 04              8421 	mov	ar4,@r0
   2A9B 8A 82              8422 	mov	dpl,r2
   2A9D 8B 83              8423 	mov	dph,r3
   2A9F 8C F0              8424 	mov	b,r4
   2AA1 12s00r00           8425 	lcall	__gptrget
   2AA4 FD                 8426 	mov	r5,a
   2AA5 A3                 8427 	inc	dptr
   2AA6 12s00r00           8428 	lcall	__gptrget
   2AA9 FC                 8429 	mov	r4,a
   2AAA C3                 8430 	clr	c
   2AAB ED                 8431 	mov	a,r5
   2AAC 9F                 8432 	subb	a,r7
   2AAD EC                 8433 	mov	a,r4
   2AAE 9E                 8434 	subb	a,r6
   2AAF 50 08              8435 	jnc	00336$
                           8436 ;	../../core/net/uip.c:1741: uip_slen = uip_connr->mss;
   2AB1 90s00r80           8437 	mov	dptr,#_uip_slen
   2AB4 ED                 8438 	mov	a,r5
   2AB5 F0                 8439 	movx	@dptr,a
   2AB6 A3                 8440 	inc	dptr
   2AB7 EC                 8441 	mov	a,r4
   2AB8 F0                 8442 	movx	@dptr,a
   2AB9                    8443 00336$:
                           8444 ;	../../core/net/uip.c:1746: uip_connr->len = uip_slen;
   2AB9 90s00r80           8445 	mov	dptr,#_uip_slen
   2ABC E0                 8446 	movx	a,@dptr
   2ABD FB                 8447 	mov	r3,a
   2ABE A3                 8448 	inc	dptr
   2ABF E0                 8449 	movx	a,@dptr
   2AC0 FC                 8450 	mov	r4,a
   2AC1 E5*00              8451 	mov	a,_bp
   2AC3 24 05              8452 	add	a,#0x05
   2AC5 F8                 8453 	mov	r0,a
   2AC6 86 82              8454 	mov	dpl,@r0
   2AC8 08                 8455 	inc	r0
   2AC9 86 83              8456 	mov	dph,@r0
   2ACB 08                 8457 	inc	r0
   2ACC 86 F0              8458 	mov	b,@r0
   2ACE EB                 8459 	mov	a,r3
   2ACF 12s00r00           8460 	lcall	__gptrput
   2AD2 A3                 8461 	inc	dptr
   2AD3 EC                 8462 	mov	a,r4
   2AD4 12s00r00           8463 	lcall	__gptrput
   2AD7 80 08              8464 	sjmp	00341$
   2AD9                    8465 00338$:
                           8466 ;	../../core/net/uip.c:1752: uip_slen = uip_connr->len;
   2AD9 90s00r80           8467 	mov	dptr,#_uip_slen
   2ADC ED                 8468 	mov	a,r5
   2ADD F0                 8469 	movx	@dptr,a
   2ADE A3                 8470 	inc	dptr
   2ADF EC                 8471 	mov	a,r4
   2AE0 F0                 8472 	movx	@dptr,a
   2AE1                    8473 00341$:
                           8474 ;	../../core/net/uip.c:1755: uip_connr->nrtx = 0;
   2AE1 A8*00              8475 	mov	r0,_bp
   2AE3 08                 8476 	inc	r0
   2AE4 74 1B              8477 	mov	a,#0x1B
   2AE6 26                 8478 	add	a,@r0
   2AE7 FA                 8479 	mov	r2,a
   2AE8 E4                 8480 	clr	a
   2AE9 08                 8481 	inc	r0
   2AEA 36                 8482 	addc	a,@r0
   2AEB FB                 8483 	mov	r3,a
   2AEC 08                 8484 	inc	r0
   2AED 86 04              8485 	mov	ar4,@r0
   2AEF 8A 82              8486 	mov	dpl,r2
   2AF1 8B 83              8487 	mov	dph,r3
   2AF3 8C F0              8488 	mov	b,r4
   2AF5 E4                 8489 	clr	a
   2AF6 12s00r00           8490 	lcall	__gptrput
                           8491 ;	../../core/net/uip.c:1756: apprexmit:
   2AF9                    8492 00342$:
                           8493 ;	../../core/net/uip.c:1757: uip_appdata = uip_sappdata;
   2AF9 90s00r7B           8494 	mov	dptr,#_uip_sappdata
   2AFC E0                 8495 	movx	a,@dptr
   2AFD FA                 8496 	mov	r2,a
   2AFE A3                 8497 	inc	dptr
   2AFF E0                 8498 	movx	a,@dptr
   2B00 FB                 8499 	mov	r3,a
   2B01 A3                 8500 	inc	dptr
   2B02 E0                 8501 	movx	a,@dptr
   2B03 FC                 8502 	mov	r4,a
   2B04 90s00r78           8503 	mov	dptr,#_uip_appdata
   2B07 EA                 8504 	mov	a,r2
   2B08 F0                 8505 	movx	@dptr,a
   2B09 A3                 8506 	inc	dptr
   2B0A EB                 8507 	mov	a,r3
   2B0B F0                 8508 	movx	@dptr,a
   2B0C A3                 8509 	inc	dptr
   2B0D EC                 8510 	mov	a,r4
   2B0E F0                 8511 	movx	@dptr,a
                           8512 ;	../../core/net/uip.c:1761: if(uip_slen > 0 && uip_connr->len > 0) {
   2B0F 90s00r80           8513 	mov	dptr,#_uip_slen
   2B12 E0                 8514 	movx	a,@dptr
   2B13 FB                 8515 	mov	r3,a
   2B14 A3                 8516 	inc	dptr
   2B15 E0                 8517 	movx	a,@dptr
   2B16 FC                 8518 	mov	r4,a
   2B17 4B                 8519 	orl	a,r3
   2B18 60 3E              8520 	jz	00344$
   2B1A A8*00              8521 	mov	r0,_bp
   2B1C 08                 8522 	inc	r0
   2B1D 74 10              8523 	mov	a,#0x10
   2B1F 26                 8524 	add	a,@r0
   2B20 FA                 8525 	mov	r2,a
   2B21 E4                 8526 	clr	a
   2B22 08                 8527 	inc	r0
   2B23 36                 8528 	addc	a,@r0
   2B24 FB                 8529 	mov	r3,a
   2B25 08                 8530 	inc	r0
   2B26 86 04              8531 	mov	ar4,@r0
   2B28 8A 82              8532 	mov	dpl,r2
   2B2A 8B 83              8533 	mov	dph,r3
   2B2C 8C F0              8534 	mov	b,r4
   2B2E 12s00r00           8535 	lcall	__gptrget
   2B31 FB                 8536 	mov	r3,a
   2B32 A3                 8537 	inc	dptr
   2B33 12s00r00           8538 	lcall	__gptrget
   2B36 FC                 8539 	mov	r4,a
   2B37 4B                 8540 	orl	a,r3
   2B38 60 1E              8541 	jz	00344$
                           8542 ;	../../core/net/uip.c:1763: uip_len = uip_connr->len + UIP_TCPIP_HLEN;
   2B3A 90s00r7E           8543 	mov	dptr,#_uip_len
   2B3D 74 28              8544 	mov	a,#0x28
   2B3F 2B                 8545 	add	a,r3
   2B40 F0                 8546 	movx	@dptr,a
   2B41 E4                 8547 	clr	a
   2B42 3C                 8548 	addc	a,r4
   2B43 A3                 8549 	inc	dptr
   2B44 F0                 8550 	movx	@dptr,a
                           8551 ;	../../core/net/uip.c:1765: BUF->flags = TCP_ACK | TCP_PSH;
   2B45 7Br1A              8552 	mov	r3,#(_uip_aligned_buf + 0x000e)
   2B47 7Cs00              8553 	mov	r4,#((_uip_aligned_buf + 0x000e) >> 8)
   2B49 74 21              8554 	mov	a,#0x21
   2B4B 2B                 8555 	add	a,r3
   2B4C F5 82              8556 	mov	dpl,a
   2B4E E4                 8557 	clr	a
   2B4F 3C                 8558 	addc	a,r4
   2B50 F5 83              8559 	mov	dph,a
   2B52 74 18              8560 	mov	a,#0x18
   2B54 F0                 8561 	movx	@dptr,a
                           8562 ;	../../core/net/uip.c:1767: goto tcp_send_noopts;
   2B55 02s2Dr3B           8563 	ljmp	00380$
   2B58                    8564 00344$:
                           8565 ;	../../core/net/uip.c:1771: if(uip_flags & UIP_NEWDATA) {
   2B58 90s00r82           8566 	mov	dptr,#_uip_flags
   2B5B E0                 8567 	movx	a,@dptr
   2B5C FC                 8568 	mov	r4,a
   2B5D 20 E1 03           8569 	jb	acc.1,00868$
   2B60 02s30rFB           8570 	ljmp	00387$
   2B63                    8571 00868$:
                           8572 ;	../../core/net/uip.c:1772: uip_len = UIP_TCPIP_HLEN;
   2B63 90s00r7E           8573 	mov	dptr,#_uip_len
   2B66 74 28              8574 	mov	a,#0x28
   2B68 F0                 8575 	movx	@dptr,a
   2B69 A3                 8576 	inc	dptr
   2B6A E4                 8577 	clr	a
   2B6B F0                 8578 	movx	@dptr,a
                           8579 ;	../../core/net/uip.c:1773: BUF->flags = TCP_ACK;
   2B6C 7Br1A              8580 	mov	r3,#(_uip_aligned_buf + 0x000e)
   2B6E 7Cs00              8581 	mov	r4,#((_uip_aligned_buf + 0x000e) >> 8)
   2B70 74 21              8582 	mov	a,#0x21
   2B72 2B                 8583 	add	a,r3
   2B73 F5 82              8584 	mov	dpl,a
   2B75 E4                 8585 	clr	a
   2B76 3C                 8586 	addc	a,r4
   2B77 F5 83              8587 	mov	dph,a
   2B79 74 10              8588 	mov	a,#0x10
   2B7B F0                 8589 	movx	@dptr,a
                           8590 ;	../../core/net/uip.c:1774: goto tcp_send_noopts;
   2B7C 02s2Dr3B           8591 	ljmp	00380$
                           8592 ;	../../core/net/uip.c:1778: case UIP_LAST_ACK:
   2B7F                    8593 00350$:
                           8594 ;	../../core/net/uip.c:1781: if(uip_flags & UIP_ACKDATA) {
   2B7F 90s00r82           8595 	mov	dptr,#_uip_flags
   2B82 E0                 8596 	movx	a,@dptr
   2B83 FC                 8597 	mov	r4,a
   2B84 20 E0 03           8598 	jb	acc.0,00869$
   2B87 02s30rFB           8599 	ljmp	00387$
   2B8A                    8600 00869$:
                           8601 ;	../../core/net/uip.c:1782: uip_connr->tcpstateflags = UIP_CLOSED;
   2B8A 8D 82              8602 	mov	dpl,r5
   2B8C 8E 83              8603 	mov	dph,r6
   2B8E 8F F0              8604 	mov	b,r7
   2B90 E4                 8605 	clr	a
   2B91 12s00r00           8606 	lcall	__gptrput
                           8607 ;	../../core/net/uip.c:1783: uip_flags = UIP_CLOSE;
   2B94 90s00r82           8608 	mov	dptr,#_uip_flags
   2B97 74 10              8609 	mov	a,#0x10
   2B99 F0                 8610 	movx	@dptr,a
                           8611 ;	../../core/net/uip.c:1784: UIP_APPCALL();
   2B9A 12s00r00           8612 	lcall	_tcpip_uipcall
                           8613 ;	../../core/net/uip.c:1786: break;
   2B9D 02s30rFB           8614 	ljmp	00387$
                           8615 ;	../../core/net/uip.c:1788: case UIP_FIN_WAIT_1:
   2BA0                    8616 00353$:
                           8617 ;	../../core/net/uip.c:1792: if(uip_len > 0) {
   2BA0 90s00r7E           8618 	mov	dptr,#_uip_len
   2BA3 E0                 8619 	movx	a,@dptr
   2BA4 FB                 8620 	mov	r3,a
   2BA5 A3                 8621 	inc	dptr
   2BA6 E0                 8622 	movx	a,@dptr
   2BA7 FC                 8623 	mov	r4,a
   2BA8 4B                 8624 	orl	a,r3
   2BA9 60 13              8625 	jz	00355$
                           8626 ;	../../core/net/uip.c:1793: uip_add_rcv_nxt(uip_len);
   2BAB 8B 82              8627 	mov	dpl,r3
   2BAD 8C 83              8628 	mov	dph,r4
   2BAF C0 07              8629 	push	ar7
   2BB1 C0 06              8630 	push	ar6
   2BB3 C0 05              8631 	push	ar5
   2BB5 12s0Ar27           8632 	lcall	_uip_add_rcv_nxt
   2BB8 D0 05              8633 	pop	ar5
   2BBA D0 06              8634 	pop	ar6
   2BBC D0 07              8635 	pop	ar7
   2BBE                    8636 00355$:
                           8637 ;	../../core/net/uip.c:1795: if(BUF->flags & TCP_FIN) {
   2BBE 7Br1A              8638 	mov	r3,#(_uip_aligned_buf + 0x000e)
   2BC0 7Cs00              8639 	mov	r4,#((_uip_aligned_buf + 0x000e) >> 8)
   2BC2 74 21              8640 	mov	a,#0x21
   2BC4 2B                 8641 	add	a,r3
   2BC5 F5 82              8642 	mov	dpl,a
   2BC7 E4                 8643 	clr	a
   2BC8 3C                 8644 	addc	a,r4
   2BC9 F5 83              8645 	mov	dph,a
   2BCB E0                 8646 	movx	a,@dptr
   2BCC FC                 8647 	mov	r4,a
   2BCD 30 E0 67           8648 	jnb	acc.0,00362$
                           8649 ;	../../core/net/uip.c:1796: if(uip_flags & UIP_ACKDATA) {
   2BD0 90s00r82           8650 	mov	dptr,#_uip_flags
   2BD3 E0                 8651 	movx	a,@dptr
   2BD4 FC                 8652 	mov	r4,a
   2BD5 30 E0 42           8653 	jnb	acc.0,00357$
                           8654 ;	../../core/net/uip.c:1797: uip_connr->tcpstateflags = UIP_TIME_WAIT;
   2BD8 8D 82              8655 	mov	dpl,r5
   2BDA 8E 83              8656 	mov	dph,r6
   2BDC 8F F0              8657 	mov	b,r7
   2BDE 74 07              8658 	mov	a,#0x07
   2BE0 12s00r00           8659 	lcall	__gptrput
                           8660 ;	../../core/net/uip.c:1798: uip_connr->timer = 0;
   2BE3 A8*00              8661 	mov	r0,_bp
   2BE5 08                 8662 	inc	r0
   2BE6 74 1A              8663 	mov	a,#0x1A
   2BE8 26                 8664 	add	a,@r0
   2BE9 FA                 8665 	mov	r2,a
   2BEA E4                 8666 	clr	a
   2BEB 08                 8667 	inc	r0
   2BEC 36                 8668 	addc	a,@r0
   2BED FB                 8669 	mov	r3,a
   2BEE 08                 8670 	inc	r0
   2BEF 86 04              8671 	mov	ar4,@r0
   2BF1 8A 82              8672 	mov	dpl,r2
   2BF3 8B 83              8673 	mov	dph,r3
   2BF5 8C F0              8674 	mov	b,r4
   2BF7 E4                 8675 	clr	a
   2BF8 12s00r00           8676 	lcall	__gptrput
                           8677 ;	../../core/net/uip.c:1799: uip_connr->len = 0;
   2BFB A8*00              8678 	mov	r0,_bp
   2BFD 08                 8679 	inc	r0
   2BFE 74 10              8680 	mov	a,#0x10
   2C00 26                 8681 	add	a,@r0
   2C01 FA                 8682 	mov	r2,a
   2C02 E4                 8683 	clr	a
   2C03 08                 8684 	inc	r0
   2C04 36                 8685 	addc	a,@r0
   2C05 FB                 8686 	mov	r3,a
   2C06 08                 8687 	inc	r0
   2C07 86 04              8688 	mov	ar4,@r0
   2C09 8A 82              8689 	mov	dpl,r2
   2C0B 8B 83              8690 	mov	dph,r3
   2C0D 8C F0              8691 	mov	b,r4
   2C0F E4                 8692 	clr	a
   2C10 12s00r00           8693 	lcall	__gptrput
   2C13 A3                 8694 	inc	dptr
   2C14 E4                 8695 	clr	a
   2C15 12s00r00           8696 	lcall	__gptrput
   2C18 80 0B              8697 	sjmp	00358$
   2C1A                    8698 00357$:
                           8699 ;	../../core/net/uip.c:1801: uip_connr->tcpstateflags = UIP_CLOSING;
   2C1A 8D 82              8700 	mov	dpl,r5
   2C1C 8E 83              8701 	mov	dph,r6
   2C1E 8F F0              8702 	mov	b,r7
   2C20 74 06              8703 	mov	a,#0x06
   2C22 12s00r00           8704 	lcall	__gptrput
   2C25                    8705 00358$:
                           8706 ;	../../core/net/uip.c:1803: uip_add_rcv_nxt(1);
   2C25 90 00 01           8707 	mov	dptr,#0x0001
   2C28 12s0Ar27           8708 	lcall	_uip_add_rcv_nxt
                           8709 ;	../../core/net/uip.c:1804: uip_flags = UIP_CLOSE;
   2C2B 90s00r82           8710 	mov	dptr,#_uip_flags
   2C2E 74 10              8711 	mov	a,#0x10
   2C30 F0                 8712 	movx	@dptr,a
                           8713 ;	../../core/net/uip.c:1805: UIP_APPCALL();
   2C31 12s00r00           8714 	lcall	_tcpip_uipcall
                           8715 ;	../../core/net/uip.c:1806: goto tcp_send_ack;
   2C34 02s2Dr22           8716 	ljmp	00378$
   2C37                    8717 00362$:
                           8718 ;	../../core/net/uip.c:1807: } else if(uip_flags & UIP_ACKDATA) {
   2C37 90s00r82           8719 	mov	dptr,#_uip_flags
   2C3A E0                 8720 	movx	a,@dptr
   2C3B FC                 8721 	mov	r4,a
   2C3C 30 E0 2B           8722 	jnb	acc.0,00363$
                           8723 ;	../../core/net/uip.c:1808: uip_connr->tcpstateflags = UIP_FIN_WAIT_2;
   2C3F 8D 82              8724 	mov	dpl,r5
   2C41 8E 83              8725 	mov	dph,r6
   2C43 8F F0              8726 	mov	b,r7
   2C45 74 05              8727 	mov	a,#0x05
   2C47 12s00r00           8728 	lcall	__gptrput
                           8729 ;	../../core/net/uip.c:1809: uip_connr->len = 0;
   2C4A A8*00              8730 	mov	r0,_bp
   2C4C 08                 8731 	inc	r0
   2C4D 74 10              8732 	mov	a,#0x10
   2C4F 26                 8733 	add	a,@r0
   2C50 FA                 8734 	mov	r2,a
   2C51 E4                 8735 	clr	a
   2C52 08                 8736 	inc	r0
   2C53 36                 8737 	addc	a,@r0
   2C54 FB                 8738 	mov	r3,a
   2C55 08                 8739 	inc	r0
   2C56 86 04              8740 	mov	ar4,@r0
   2C58 8A 82              8741 	mov	dpl,r2
   2C5A 8B 83              8742 	mov	dph,r3
   2C5C 8C F0              8743 	mov	b,r4
   2C5E E4                 8744 	clr	a
   2C5F 12s00r00           8745 	lcall	__gptrput
   2C62 A3                 8746 	inc	dptr
   2C63 E4                 8747 	clr	a
   2C64 12s00r00           8748 	lcall	__gptrput
                           8749 ;	../../core/net/uip.c:1810: goto drop;
   2C67 02s30rFB           8750 	ljmp	00387$
   2C6A                    8751 00363$:
                           8752 ;	../../core/net/uip.c:1812: if(uip_len > 0) {
   2C6A 90s00r7E           8753 	mov	dptr,#_uip_len
   2C6D E0                 8754 	movx	a,@dptr
   2C6E FB                 8755 	mov	r3,a
   2C6F A3                 8756 	inc	dptr
   2C70 E0                 8757 	movx	a,@dptr
   2C71 FC                 8758 	mov	r4,a
   2C72 4B                 8759 	orl	a,r3
   2C73 70 03              8760 	jnz	00874$
   2C75 02s30rFB           8761 	ljmp	00387$
   2C78                    8762 00874$:
                           8763 ;	../../core/net/uip.c:1813: goto tcp_send_ack;
   2C78 02s2Dr22           8764 	ljmp	00378$
                           8765 ;	../../core/net/uip.c:1817: case UIP_FIN_WAIT_2:
   2C7B                    8766 00366$:
                           8767 ;	../../core/net/uip.c:1818: if(uip_len > 0) {
   2C7B 90s00r7E           8768 	mov	dptr,#_uip_len
   2C7E E0                 8769 	movx	a,@dptr
   2C7F FB                 8770 	mov	r3,a
   2C80 A3                 8771 	inc	dptr
   2C81 E0                 8772 	movx	a,@dptr
   2C82 FC                 8773 	mov	r4,a
   2C83 4B                 8774 	orl	a,r3
   2C84 60 13              8775 	jz	00368$
                           8776 ;	../../core/net/uip.c:1819: uip_add_rcv_nxt(uip_len);
   2C86 8B 82              8777 	mov	dpl,r3
   2C88 8C 83              8778 	mov	dph,r4
   2C8A C0 07              8779 	push	ar7
   2C8C C0 06              8780 	push	ar6
   2C8E C0 05              8781 	push	ar5
   2C90 12s0Ar27           8782 	lcall	_uip_add_rcv_nxt
   2C93 D0 05              8783 	pop	ar5
   2C95 D0 06              8784 	pop	ar6
   2C97 D0 07              8785 	pop	ar7
   2C99                    8786 00368$:
                           8787 ;	../../core/net/uip.c:1821: if(BUF->flags & TCP_FIN) {
   2C99 7Br1A              8788 	mov	r3,#(_uip_aligned_buf + 0x000e)
   2C9B 7Cs00              8789 	mov	r4,#((_uip_aligned_buf + 0x000e) >> 8)
   2C9D 74 21              8790 	mov	a,#0x21
   2C9F 2B                 8791 	add	a,r3
   2CA0 F5 82              8792 	mov	dpl,a
   2CA2 E4                 8793 	clr	a
   2CA3 3C                 8794 	addc	a,r4
   2CA4 F5 83              8795 	mov	dph,a
   2CA6 E0                 8796 	movx	a,@dptr
   2CA7 FC                 8797 	mov	r4,a
   2CA8 30 E0 34           8798 	jnb	acc.0,00370$
                           8799 ;	../../core/net/uip.c:1822: uip_connr->tcpstateflags = UIP_TIME_WAIT;
   2CAB 8D 82              8800 	mov	dpl,r5
   2CAD 8E 83              8801 	mov	dph,r6
   2CAF 8F F0              8802 	mov	b,r7
   2CB1 74 07              8803 	mov	a,#0x07
   2CB3 12s00r00           8804 	lcall	__gptrput
                           8805 ;	../../core/net/uip.c:1823: uip_connr->timer = 0;
   2CB6 A8*00              8806 	mov	r0,_bp
   2CB8 08                 8807 	inc	r0
   2CB9 74 1A              8808 	mov	a,#0x1A
   2CBB 26                 8809 	add	a,@r0
   2CBC FA                 8810 	mov	r2,a
   2CBD E4                 8811 	clr	a
   2CBE 08                 8812 	inc	r0
   2CBF 36                 8813 	addc	a,@r0
   2CC0 FB                 8814 	mov	r3,a
   2CC1 08                 8815 	inc	r0
   2CC2 86 04              8816 	mov	ar4,@r0
   2CC4 8A 82              8817 	mov	dpl,r2
   2CC6 8B 83              8818 	mov	dph,r3
   2CC8 8C F0              8819 	mov	b,r4
   2CCA E4                 8820 	clr	a
   2CCB 12s00r00           8821 	lcall	__gptrput
                           8822 ;	../../core/net/uip.c:1824: uip_add_rcv_nxt(1);
   2CCE 90 00 01           8823 	mov	dptr,#0x0001
   2CD1 12s0Ar27           8824 	lcall	_uip_add_rcv_nxt
                           8825 ;	../../core/net/uip.c:1825: uip_flags = UIP_CLOSE;
   2CD4 90s00r82           8826 	mov	dptr,#_uip_flags
   2CD7 74 10              8827 	mov	a,#0x10
   2CD9 F0                 8828 	movx	@dptr,a
                           8829 ;	../../core/net/uip.c:1826: UIP_APPCALL();
   2CDA 12s00r00           8830 	lcall	_tcpip_uipcall
                           8831 ;	../../core/net/uip.c:1827: goto tcp_send_ack;
   2CDD 80 43              8832 	sjmp	00378$
   2CDF                    8833 00370$:
                           8834 ;	../../core/net/uip.c:1829: if(uip_len > 0) {
   2CDF 90s00r7E           8835 	mov	dptr,#_uip_len
   2CE2 E0                 8836 	movx	a,@dptr
   2CE3 FB                 8837 	mov	r3,a
   2CE4 A3                 8838 	inc	dptr
   2CE5 E0                 8839 	movx	a,@dptr
   2CE6 FC                 8840 	mov	r4,a
   2CE7 4B                 8841 	orl	a,r3
   2CE8 70 03              8842 	jnz	00877$
   2CEA 02s30rFB           8843 	ljmp	00387$
   2CED                    8844 00877$:
                           8845 ;	../../core/net/uip.c:1830: goto tcp_send_ack;
                           8846 ;	../../core/net/uip.c:1834: case UIP_TIME_WAIT:
   2CED 80 33              8847 	sjmp	00378$
   2CEF                    8848 00373$:
                           8849 ;	../../core/net/uip.c:1835: goto tcp_send_ack;
                           8850 ;	../../core/net/uip.c:1837: case UIP_CLOSING:
   2CEF 80 31              8851 	sjmp	00378$
   2CF1                    8852 00374$:
                           8853 ;	../../core/net/uip.c:1838: if(uip_flags & UIP_ACKDATA) {
   2CF1 90s00r82           8854 	mov	dptr,#_uip_flags
   2CF4 E0                 8855 	movx	a,@dptr
   2CF5 FC                 8856 	mov	r4,a
   2CF6 20 E0 03           8857 	jb	acc.0,00878$
   2CF9 02s30rFB           8858 	ljmp	00387$
   2CFC                    8859 00878$:
                           8860 ;	../../core/net/uip.c:1839: uip_connr->tcpstateflags = UIP_TIME_WAIT;
   2CFC 8D 82              8861 	mov	dpl,r5
   2CFE 8E 83              8862 	mov	dph,r6
   2D00 8F F0              8863 	mov	b,r7
   2D02 74 07              8864 	mov	a,#0x07
   2D04 12s00r00           8865 	lcall	__gptrput
                           8866 ;	../../core/net/uip.c:1840: uip_connr->timer = 0;
   2D07 A8*00              8867 	mov	r0,_bp
   2D09 08                 8868 	inc	r0
   2D0A 74 1A              8869 	mov	a,#0x1A
   2D0C 26                 8870 	add	a,@r0
   2D0D FD                 8871 	mov	r5,a
   2D0E E4                 8872 	clr	a
   2D0F 08                 8873 	inc	r0
   2D10 36                 8874 	addc	a,@r0
   2D11 FE                 8875 	mov	r6,a
   2D12 08                 8876 	inc	r0
   2D13 86 07              8877 	mov	ar7,@r0
   2D15 8D 82              8878 	mov	dpl,r5
   2D17 8E 83              8879 	mov	dph,r6
   2D19 8F F0              8880 	mov	b,r7
   2D1B E4                 8881 	clr	a
   2D1C 12s00r00           8882 	lcall	__gptrput
                           8883 ;	../../core/net/uip.c:1842: }
   2D1F                    8884 00377$:
                           8885 ;	../../core/net/uip.c:1843: goto drop;
   2D1F 02s30rFB           8886 	ljmp	00387$
                           8887 ;	../../core/net/uip.c:1847: tcp_send_ack:
   2D22                    8888 00378$:
                           8889 ;	../../core/net/uip.c:1848: BUF->flags = TCP_ACK;
   2D22 7Er1A              8890 	mov	r6,#(_uip_aligned_buf + 0x000e)
   2D24 7Fs00              8891 	mov	r7,#((_uip_aligned_buf + 0x000e) >> 8)
   2D26 74 21              8892 	mov	a,#0x21
   2D28 2E                 8893 	add	a,r6
   2D29 F5 82              8894 	mov	dpl,a
   2D2B E4                 8895 	clr	a
   2D2C 3F                 8896 	addc	a,r7
   2D2D F5 83              8897 	mov	dph,a
   2D2F 74 10              8898 	mov	a,#0x10
   2D31 F0                 8899 	movx	@dptr,a
                           8900 ;	../../core/net/uip.c:1850: tcp_send_nodata:
   2D32                    8901 00379$:
                           8902 ;	../../core/net/uip.c:1851: uip_len = UIP_IPTCPH_LEN;
   2D32 90s00r7E           8903 	mov	dptr,#_uip_len
   2D35 74 28              8904 	mov	a,#0x28
   2D37 F0                 8905 	movx	@dptr,a
   2D38 A3                 8906 	inc	dptr
   2D39 E4                 8907 	clr	a
   2D3A F0                 8908 	movx	@dptr,a
                           8909 ;	../../core/net/uip.c:1853: tcp_send_noopts:
   2D3B                    8910 00380$:
                           8911 ;	../../core/net/uip.c:1854: BUF->tcpoffset = (UIP_TCPH_LEN / 4) << 4;
   2D3B 7Er1A              8912 	mov	r6,#(_uip_aligned_buf + 0x000e)
   2D3D 7Fs00              8913 	mov	r7,#((_uip_aligned_buf + 0x000e) >> 8)
   2D3F 74 20              8914 	mov	a,#0x20
   2D41 2E                 8915 	add	a,r6
   2D42 F5 82              8916 	mov	dpl,a
   2D44 E4                 8917 	clr	a
   2D45 3F                 8918 	addc	a,r7
   2D46 F5 83              8919 	mov	dph,a
   2D48 74 50              8920 	mov	a,#0x50
   2D4A F0                 8921 	movx	@dptr,a
                           8922 ;	../../core/net/uip.c:1860: tcp_send:
   2D4B                    8923 00381$:
                           8924 ;	../../core/net/uip.c:1861: BUF->ackno[0] = uip_connr->rcv_nxt[0];
   2D4B 7Er1A              8925 	mov	r6,#(_uip_aligned_buf + 0x000e)
   2D4D 7Fs00              8926 	mov	r7,#((_uip_aligned_buf + 0x000e) >> 8)
   2D4F 74 1C              8927 	mov	a,#0x1C
   2D51 2E                 8928 	add	a,r6
   2D52 FE                 8929 	mov	r6,a
   2D53 E4                 8930 	clr	a
   2D54 3F                 8931 	addc	a,r7
   2D55 FF                 8932 	mov	r7,a
   2D56 A8*00              8933 	mov	r0,_bp
   2D58 08                 8934 	inc	r0
   2D59 74 08              8935 	mov	a,#0x08
   2D5B 26                 8936 	add	a,@r0
   2D5C FB                 8937 	mov	r3,a
   2D5D E4                 8938 	clr	a
   2D5E 08                 8939 	inc	r0
   2D5F 36                 8940 	addc	a,@r0
   2D60 FC                 8941 	mov	r4,a
   2D61 08                 8942 	inc	r0
   2D62 86 05              8943 	mov	ar5,@r0
   2D64 8B 82              8944 	mov	dpl,r3
   2D66 8C 83              8945 	mov	dph,r4
   2D68 8D F0              8946 	mov	b,r5
   2D6A 12s00r00           8947 	lcall	__gptrget
   2D6D 8E 82              8948 	mov	dpl,r6
   2D6F 8F 83              8949 	mov	dph,r7
   2D71 F0                 8950 	movx	@dptr,a
                           8951 ;	../../core/net/uip.c:1862: BUF->ackno[1] = uip_connr->rcv_nxt[1];
   2D72 7Er1A              8952 	mov	r6,#(_uip_aligned_buf + 0x000e)
   2D74 7Fs00              8953 	mov	r7,#((_uip_aligned_buf + 0x000e) >> 8)
   2D76 E5*00              8954 	mov	a,_bp
   2D78 24 0E              8955 	add	a,#0x0e
   2D7A F8                 8956 	mov	r0,a
   2D7B 74 1D              8957 	mov	a,#0x1D
   2D7D 2E                 8958 	add	a,r6
   2D7E F6                 8959 	mov	@r0,a
   2D7F E4                 8960 	clr	a
   2D80 3F                 8961 	addc	a,r7
   2D81 08                 8962 	inc	r0
   2D82 F6                 8963 	mov	@r0,a
   2D83 74 01              8964 	mov	a,#0x01
   2D85 2B                 8965 	add	a,r3
   2D86 FA                 8966 	mov	r2,a
   2D87 E4                 8967 	clr	a
   2D88 3C                 8968 	addc	a,r4
   2D89 FE                 8969 	mov	r6,a
   2D8A 8D 07              8970 	mov	ar7,r5
   2D8C 8A 82              8971 	mov	dpl,r2
   2D8E 8E 83              8972 	mov	dph,r6
   2D90 8F F0              8973 	mov	b,r7
   2D92 12s00r00           8974 	lcall	__gptrget
   2D95 FA                 8975 	mov	r2,a
   2D96 E5*00              8976 	mov	a,_bp
   2D98 24 0E              8977 	add	a,#0x0e
   2D9A F8                 8978 	mov	r0,a
   2D9B 86 82              8979 	mov	dpl,@r0
   2D9D 08                 8980 	inc	r0
   2D9E 86 83              8981 	mov	dph,@r0
   2DA0 EA                 8982 	mov	a,r2
   2DA1 F0                 8983 	movx	@dptr,a
                           8984 ;	../../core/net/uip.c:1863: BUF->ackno[2] = uip_connr->rcv_nxt[2];
   2DA2 7Er1A              8985 	mov	r6,#(_uip_aligned_buf + 0x000e)
   2DA4 7Fs00              8986 	mov	r7,#((_uip_aligned_buf + 0x000e) >> 8)
   2DA6 E5*00              8987 	mov	a,_bp
   2DA8 24 0E              8988 	add	a,#0x0e
   2DAA F8                 8989 	mov	r0,a
   2DAB 74 1E              8990 	mov	a,#0x1E
   2DAD 2E                 8991 	add	a,r6
   2DAE F6                 8992 	mov	@r0,a
   2DAF E4                 8993 	clr	a
   2DB0 3F                 8994 	addc	a,r7
   2DB1 08                 8995 	inc	r0
   2DB2 F6                 8996 	mov	@r0,a
   2DB3 74 02              8997 	mov	a,#0x02
   2DB5 2B                 8998 	add	a,r3
   2DB6 FA                 8999 	mov	r2,a
   2DB7 E4                 9000 	clr	a
   2DB8 3C                 9001 	addc	a,r4
   2DB9 FE                 9002 	mov	r6,a
   2DBA 8D 07              9003 	mov	ar7,r5
   2DBC 8A 82              9004 	mov	dpl,r2
   2DBE 8E 83              9005 	mov	dph,r6
   2DC0 8F F0              9006 	mov	b,r7
   2DC2 12s00r00           9007 	lcall	__gptrget
   2DC5 FA                 9008 	mov	r2,a
   2DC6 E5*00              9009 	mov	a,_bp
   2DC8 24 0E              9010 	add	a,#0x0e
   2DCA F8                 9011 	mov	r0,a
   2DCB 86 82              9012 	mov	dpl,@r0
   2DCD 08                 9013 	inc	r0
   2DCE 86 83              9014 	mov	dph,@r0
   2DD0 EA                 9015 	mov	a,r2
   2DD1 F0                 9016 	movx	@dptr,a
                           9017 ;	../../core/net/uip.c:1864: BUF->ackno[3] = uip_connr->rcv_nxt[3];
   2DD2 7Er1A              9018 	mov	r6,#(_uip_aligned_buf + 0x000e)
   2DD4 7Fs00              9019 	mov	r7,#((_uip_aligned_buf + 0x000e) >> 8)
   2DD6 74 1F              9020 	mov	a,#0x1F
   2DD8 2E                 9021 	add	a,r6
   2DD9 FE                 9022 	mov	r6,a
   2DDA E4                 9023 	clr	a
   2DDB 3F                 9024 	addc	a,r7
   2DDC FF                 9025 	mov	r7,a
   2DDD 74 03              9026 	mov	a,#0x03
   2DDF 2B                 9027 	add	a,r3
   2DE0 FB                 9028 	mov	r3,a
   2DE1 E4                 9029 	clr	a
   2DE2 3C                 9030 	addc	a,r4
   2DE3 FC                 9031 	mov	r4,a
   2DE4 8B 82              9032 	mov	dpl,r3
   2DE6 8C 83              9033 	mov	dph,r4
   2DE8 8D F0              9034 	mov	b,r5
   2DEA 12s00r00           9035 	lcall	__gptrget
   2DED 8E 82              9036 	mov	dpl,r6
   2DEF 8F 83              9037 	mov	dph,r7
   2DF1 F0                 9038 	movx	@dptr,a
                           9039 ;	../../core/net/uip.c:1866: BUF->seqno[0] = uip_connr->snd_nxt[0];
   2DF2 7Er1A              9040 	mov	r6,#(_uip_aligned_buf + 0x000e)
   2DF4 7Fs00              9041 	mov	r7,#((_uip_aligned_buf + 0x000e) >> 8)
   2DF6 74 18              9042 	mov	a,#0x18
   2DF8 2E                 9043 	add	a,r6
   2DF9 FE                 9044 	mov	r6,a
   2DFA E4                 9045 	clr	a
   2DFB 3F                 9046 	addc	a,r7
   2DFC FF                 9047 	mov	r7,a
   2DFD A8*00              9048 	mov	r0,_bp
   2DFF 08                 9049 	inc	r0
   2E00 74 0C              9050 	mov	a,#0x0C
   2E02 26                 9051 	add	a,@r0
   2E03 FB                 9052 	mov	r3,a
   2E04 E4                 9053 	clr	a
   2E05 08                 9054 	inc	r0
   2E06 36                 9055 	addc	a,@r0
   2E07 FC                 9056 	mov	r4,a
   2E08 08                 9057 	inc	r0
   2E09 86 05              9058 	mov	ar5,@r0
   2E0B 8B 82              9059 	mov	dpl,r3
   2E0D 8C 83              9060 	mov	dph,r4
   2E0F 8D F0              9061 	mov	b,r5
   2E11 12s00r00           9062 	lcall	__gptrget
   2E14 8E 82              9063 	mov	dpl,r6
   2E16 8F 83              9064 	mov	dph,r7
   2E18 F0                 9065 	movx	@dptr,a
                           9066 ;	../../core/net/uip.c:1867: BUF->seqno[1] = uip_connr->snd_nxt[1];
   2E19 7Er1A              9067 	mov	r6,#(_uip_aligned_buf + 0x000e)
   2E1B 7Fs00              9068 	mov	r7,#((_uip_aligned_buf + 0x000e) >> 8)
   2E1D E5*00              9069 	mov	a,_bp
   2E1F 24 0E              9070 	add	a,#0x0e
   2E21 F8                 9071 	mov	r0,a
   2E22 74 19              9072 	mov	a,#0x19
   2E24 2E                 9073 	add	a,r6
   2E25 F6                 9074 	mov	@r0,a
   2E26 E4                 9075 	clr	a
   2E27 3F                 9076 	addc	a,r7
   2E28 08                 9077 	inc	r0
   2E29 F6                 9078 	mov	@r0,a
   2E2A 74 01              9079 	mov	a,#0x01
   2E2C 2B                 9080 	add	a,r3
   2E2D FA                 9081 	mov	r2,a
   2E2E E4                 9082 	clr	a
   2E2F 3C                 9083 	addc	a,r4
   2E30 FE                 9084 	mov	r6,a
   2E31 8D 07              9085 	mov	ar7,r5
   2E33 8A 82              9086 	mov	dpl,r2
   2E35 8E 83              9087 	mov	dph,r6
   2E37 8F F0              9088 	mov	b,r7
   2E39 12s00r00           9089 	lcall	__gptrget
   2E3C FA                 9090 	mov	r2,a
   2E3D E5*00              9091 	mov	a,_bp
   2E3F 24 0E              9092 	add	a,#0x0e
   2E41 F8                 9093 	mov	r0,a
   2E42 86 82              9094 	mov	dpl,@r0
   2E44 08                 9095 	inc	r0
   2E45 86 83              9096 	mov	dph,@r0
   2E47 EA                 9097 	mov	a,r2
   2E48 F0                 9098 	movx	@dptr,a
                           9099 ;	../../core/net/uip.c:1868: BUF->seqno[2] = uip_connr->snd_nxt[2];
   2E49 7Er1A              9100 	mov	r6,#(_uip_aligned_buf + 0x000e)
   2E4B 7Fs00              9101 	mov	r7,#((_uip_aligned_buf + 0x000e) >> 8)
   2E4D E5*00              9102 	mov	a,_bp
   2E4F 24 0E              9103 	add	a,#0x0e
   2E51 F8                 9104 	mov	r0,a
   2E52 74 1A              9105 	mov	a,#0x1A
   2E54 2E                 9106 	add	a,r6
   2E55 F6                 9107 	mov	@r0,a
   2E56 E4                 9108 	clr	a
   2E57 3F                 9109 	addc	a,r7
   2E58 08                 9110 	inc	r0
   2E59 F6                 9111 	mov	@r0,a
   2E5A 74 02              9112 	mov	a,#0x02
   2E5C 2B                 9113 	add	a,r3
   2E5D FA                 9114 	mov	r2,a
   2E5E E4                 9115 	clr	a
   2E5F 3C                 9116 	addc	a,r4
   2E60 FE                 9117 	mov	r6,a
   2E61 8D 07              9118 	mov	ar7,r5
   2E63 8A 82              9119 	mov	dpl,r2
   2E65 8E 83              9120 	mov	dph,r6
   2E67 8F F0              9121 	mov	b,r7
   2E69 12s00r00           9122 	lcall	__gptrget
   2E6C FA                 9123 	mov	r2,a
   2E6D E5*00              9124 	mov	a,_bp
   2E6F 24 0E              9125 	add	a,#0x0e
   2E71 F8                 9126 	mov	r0,a
   2E72 86 82              9127 	mov	dpl,@r0
   2E74 08                 9128 	inc	r0
   2E75 86 83              9129 	mov	dph,@r0
   2E77 EA                 9130 	mov	a,r2
   2E78 F0                 9131 	movx	@dptr,a
                           9132 ;	../../core/net/uip.c:1869: BUF->seqno[3] = uip_connr->snd_nxt[3];
   2E79 7Er1A              9133 	mov	r6,#(_uip_aligned_buf + 0x000e)
   2E7B 7Fs00              9134 	mov	r7,#((_uip_aligned_buf + 0x000e) >> 8)
   2E7D 74 1B              9135 	mov	a,#0x1B
   2E7F 2E                 9136 	add	a,r6
   2E80 FE                 9137 	mov	r6,a
   2E81 E4                 9138 	clr	a
   2E82 3F                 9139 	addc	a,r7
   2E83 FF                 9140 	mov	r7,a
   2E84 74 03              9141 	mov	a,#0x03
   2E86 2B                 9142 	add	a,r3
   2E87 FB                 9143 	mov	r3,a
   2E88 E4                 9144 	clr	a
   2E89 3C                 9145 	addc	a,r4
   2E8A FC                 9146 	mov	r4,a
   2E8B 8B 82              9147 	mov	dpl,r3
   2E8D 8C 83              9148 	mov	dph,r4
   2E8F 8D F0              9149 	mov	b,r5
   2E91 12s00r00           9150 	lcall	__gptrget
   2E94 8E 82              9151 	mov	dpl,r6
   2E96 8F 83              9152 	mov	dph,r7
   2E98 F0                 9153 	movx	@dptr,a
                           9154 ;	../../core/net/uip.c:1871: BUF->proto = UIP_PROTO_TCP;
   2E99 7Er1A              9155 	mov	r6,#(_uip_aligned_buf + 0x000e)
   2E9B 7Fs00              9156 	mov	r7,#((_uip_aligned_buf + 0x000e) >> 8)
   2E9D 74 09              9157 	mov	a,#0x09
   2E9F 2E                 9158 	add	a,r6
   2EA0 F5 82              9159 	mov	dpl,a
   2EA2 E4                 9160 	clr	a
   2EA3 3F                 9161 	addc	a,r7
   2EA4 F5 83              9162 	mov	dph,a
   2EA6 74 06              9163 	mov	a,#0x06
   2EA8 F0                 9164 	movx	@dptr,a
                           9165 ;	../../core/net/uip.c:1873: BUF->srcport  = uip_connr->lport;
   2EA9 7Er1A              9166 	mov	r6,#(_uip_aligned_buf + 0x000e)
   2EAB 7Fs00              9167 	mov	r7,#((_uip_aligned_buf + 0x000e) >> 8)
   2EAD 74 14              9168 	mov	a,#0x14
   2EAF 2E                 9169 	add	a,r6
   2EB0 FE                 9170 	mov	r6,a
   2EB1 E4                 9171 	clr	a
   2EB2 3F                 9172 	addc	a,r7
   2EB3 FF                 9173 	mov	r7,a
   2EB4 A8*00              9174 	mov	r0,_bp
   2EB6 08                 9175 	inc	r0
   2EB7 74 04              9176 	mov	a,#0x04
   2EB9 26                 9177 	add	a,@r0
   2EBA FB                 9178 	mov	r3,a
   2EBB E4                 9179 	clr	a
   2EBC 08                 9180 	inc	r0
   2EBD 36                 9181 	addc	a,@r0
   2EBE FC                 9182 	mov	r4,a
   2EBF 08                 9183 	inc	r0
   2EC0 86 05              9184 	mov	ar5,@r0
   2EC2 8B 82              9185 	mov	dpl,r3
   2EC4 8C 83              9186 	mov	dph,r4
   2EC6 8D F0              9187 	mov	b,r5
   2EC8 12s00r00           9188 	lcall	__gptrget
   2ECB FB                 9189 	mov	r3,a
   2ECC A3                 9190 	inc	dptr
   2ECD 12s00r00           9191 	lcall	__gptrget
   2ED0 FC                 9192 	mov	r4,a
   2ED1 8E 82              9193 	mov	dpl,r6
   2ED3 8F 83              9194 	mov	dph,r7
   2ED5 EB                 9195 	mov	a,r3
   2ED6 F0                 9196 	movx	@dptr,a
   2ED7 A3                 9197 	inc	dptr
   2ED8 EC                 9198 	mov	a,r4
   2ED9 F0                 9199 	movx	@dptr,a
                           9200 ;	../../core/net/uip.c:1874: BUF->destport = uip_connr->rport;
   2EDA 7Er1A              9201 	mov	r6,#(_uip_aligned_buf + 0x000e)
   2EDC 7Fs00              9202 	mov	r7,#((_uip_aligned_buf + 0x000e) >> 8)
   2EDE 74 16              9203 	mov	a,#0x16
   2EE0 2E                 9204 	add	a,r6
   2EE1 FE                 9205 	mov	r6,a
   2EE2 E4                 9206 	clr	a
   2EE3 3F                 9207 	addc	a,r7
   2EE4 FF                 9208 	mov	r7,a
   2EE5 A8*00              9209 	mov	r0,_bp
   2EE7 08                 9210 	inc	r0
   2EE8 74 06              9211 	mov	a,#0x06
   2EEA 26                 9212 	add	a,@r0
   2EEB FB                 9213 	mov	r3,a
   2EEC E4                 9214 	clr	a
   2EED 08                 9215 	inc	r0
   2EEE 36                 9216 	addc	a,@r0
   2EEF FC                 9217 	mov	r4,a
   2EF0 08                 9218 	inc	r0
   2EF1 86 05              9219 	mov	ar5,@r0
   2EF3 8B 82              9220 	mov	dpl,r3
   2EF5 8C 83              9221 	mov	dph,r4
   2EF7 8D F0              9222 	mov	b,r5
   2EF9 12s00r00           9223 	lcall	__gptrget
   2EFC FB                 9224 	mov	r3,a
   2EFD A3                 9225 	inc	dptr
   2EFE 12s00r00           9226 	lcall	__gptrget
   2F01 FC                 9227 	mov	r4,a
   2F02 8E 82              9228 	mov	dpl,r6
   2F04 8F 83              9229 	mov	dph,r7
   2F06 EB                 9230 	mov	a,r3
   2F07 F0                 9231 	movx	@dptr,a
   2F08 A3                 9232 	inc	dptr
   2F09 EC                 9233 	mov	a,r4
   2F0A F0                 9234 	movx	@dptr,a
                           9235 ;	../../core/net/uip.c:1876: uip_ipaddr_copy(&BUF->srcipaddr, &uip_hostaddr);
   2F0B 7Er1A              9236 	mov	r6,#(_uip_aligned_buf + 0x000e)
   2F0D 7Fs00              9237 	mov	r7,#((_uip_aligned_buf + 0x000e) >> 8)
   2F0F 74 0C              9238 	mov	a,#0x0C
   2F11 2E                 9239 	add	a,r6
   2F12 FE                 9240 	mov	r6,a
   2F13 E4                 9241 	clr	a
   2F14 3F                 9242 	addc	a,r7
   2F15 FF                 9243 	mov	r7,a
   2F16 7D 00              9244 	mov	r5,#0x00
   2F18 74 04              9245 	mov	a,#0x04
   2F1A C0 E0              9246 	push	acc
   2F1C E4                 9247 	clr	a
   2F1D C0 E0              9248 	push	acc
   2F1F 74r00              9249 	mov	a,#_uip_hostaddr
   2F21 C0 E0              9250 	push	acc
   2F23 74s00              9251 	mov	a,#(_uip_hostaddr >> 8)
   2F25 C0 E0              9252 	push	acc
   2F27 E4                 9253 	clr	a
   2F28 C0 E0              9254 	push	acc
   2F2A 8E 82              9255 	mov	dpl,r6
   2F2C 8F 83              9256 	mov	dph,r7
   2F2E 8D F0              9257 	mov	b,r5
   2F30 12s00r00           9258 	lcall	_memcpy
   2F33 E5 81              9259 	mov	a,sp
   2F35 24 FB              9260 	add	a,#0xfb
   2F37 F5 81              9261 	mov	sp,a
                           9262 ;	../../core/net/uip.c:1877: uip_ipaddr_copy(&BUF->destipaddr, &uip_connr->ripaddr);
   2F39 A8*00              9263 	mov	r0,_bp
   2F3B 08                 9264 	inc	r0
   2F3C 86 05              9265 	mov	ar5,@r0
   2F3E 08                 9266 	inc	r0
   2F3F 86 06              9267 	mov	ar6,@r0
   2F41 08                 9268 	inc	r0
   2F42 86 07              9269 	mov	ar7,@r0
   2F44 7Br1A              9270 	mov	r3,#(_uip_aligned_buf + 0x000e)
   2F46 7Cs00              9271 	mov	r4,#((_uip_aligned_buf + 0x000e) >> 8)
   2F48 74 10              9272 	mov	a,#0x10
   2F4A 2B                 9273 	add	a,r3
   2F4B FB                 9274 	mov	r3,a
   2F4C E4                 9275 	clr	a
   2F4D 3C                 9276 	addc	a,r4
   2F4E FC                 9277 	mov	r4,a
   2F4F 7A 00              9278 	mov	r2,#0x00
   2F51 74 04              9279 	mov	a,#0x04
   2F53 C0 E0              9280 	push	acc
   2F55 E4                 9281 	clr	a
   2F56 C0 E0              9282 	push	acc
   2F58 C0 05              9283 	push	ar5
   2F5A C0 06              9284 	push	ar6
   2F5C C0 07              9285 	push	ar7
   2F5E 8B 82              9286 	mov	dpl,r3
   2F60 8C 83              9287 	mov	dph,r4
   2F62 8A F0              9288 	mov	b,r2
   2F64 12s00r00           9289 	lcall	_memcpy
   2F67 E5 81              9290 	mov	a,sp
   2F69 24 FB              9291 	add	a,#0xfb
   2F6B F5 81              9292 	mov	sp,a
                           9293 ;	../../core/net/uip.c:1879: if(uip_connr->tcpstateflags & UIP_STOPPED) {
   2F6D A8*00              9294 	mov	r0,_bp
   2F6F 08                 9295 	inc	r0
   2F70 74 19              9296 	mov	a,#0x19
   2F72 26                 9297 	add	a,@r0
   2F73 FD                 9298 	mov	r5,a
   2F74 E4                 9299 	clr	a
   2F75 08                 9300 	inc	r0
   2F76 36                 9301 	addc	a,@r0
   2F77 FE                 9302 	mov	r6,a
   2F78 08                 9303 	inc	r0
   2F79 86 07              9304 	mov	ar7,@r0
   2F7B 8D 82              9305 	mov	dpl,r5
   2F7D 8E 83              9306 	mov	dph,r6
   2F7F 8F F0              9307 	mov	b,r7
   2F81 12s00r00           9308 	lcall	__gptrget
   2F84 FD                 9309 	mov	r5,a
   2F85 30 E4 22           9310 	jnb	acc.4,00383$
                           9311 ;	../../core/net/uip.c:1882: BUF->wnd[0] = BUF->wnd[1] = 0;
   2F88 7Er1A              9312 	mov	r6,#(_uip_aligned_buf + 0x000e)
   2F8A 7Fs00              9313 	mov	r7,#((_uip_aligned_buf + 0x000e) >> 8)
   2F8C 74 22              9314 	mov	a,#0x22
   2F8E 2E                 9315 	add	a,r6
   2F8F FE                 9316 	mov	r6,a
   2F90 E4                 9317 	clr	a
   2F91 3F                 9318 	addc	a,r7
   2F92 FF                 9319 	mov	r7,a
   2F93 7Cr1A              9320 	mov	r4,#(_uip_aligned_buf + 0x000e)
   2F95 7Ds00              9321 	mov	r5,#((_uip_aligned_buf + 0x000e) >> 8)
   2F97 74 23              9322 	mov	a,#0x23
   2F99 2C                 9323 	add	a,r4
   2F9A F5 82              9324 	mov	dpl,a
   2F9C E4                 9325 	clr	a
   2F9D 3D                 9326 	addc	a,r5
   2F9E F5 83              9327 	mov	dph,a
   2FA0 E4                 9328 	clr	a
   2FA1 F0                 9329 	movx	@dptr,a
   2FA2 8E 82              9330 	mov	dpl,r6
   2FA4 8F 83              9331 	mov	dph,r7
   2FA6 E4                 9332 	clr	a
   2FA7 F0                 9333 	movx	@dptr,a
   2FA8 80 1F              9334 	sjmp	00385$
   2FAA                    9335 00383$:
                           9336 ;	../../core/net/uip.c:1884: BUF->wnd[0] = ((UIP_RECEIVE_WINDOW) >> 8);
   2FAA 7Er1A              9337 	mov	r6,#(_uip_aligned_buf + 0x000e)
   2FAC 7Fs00              9338 	mov	r7,#((_uip_aligned_buf + 0x000e) >> 8)
   2FAE 74 22              9339 	mov	a,#0x22
   2FB0 2E                 9340 	add	a,r6
   2FB1 F5 82              9341 	mov	dpl,a
   2FB3 E4                 9342 	clr	a
   2FB4 3F                 9343 	addc	a,r7
   2FB5 F5 83              9344 	mov	dph,a
   2FB7 E4                 9345 	clr	a
   2FB8 F0                 9346 	movx	@dptr,a
                           9347 ;	../../core/net/uip.c:1885: BUF->wnd[1] = ((UIP_RECEIVE_WINDOW) & 0xff);
   2FB9 7Er1A              9348 	mov	r6,#(_uip_aligned_buf + 0x000e)
   2FBB 7Fs00              9349 	mov	r7,#((_uip_aligned_buf + 0x000e) >> 8)
   2FBD 74 23              9350 	mov	a,#0x23
   2FBF 2E                 9351 	add	a,r6
   2FC0 F5 82              9352 	mov	dpl,a
   2FC2 E4                 9353 	clr	a
   2FC3 3F                 9354 	addc	a,r7
   2FC4 F5 83              9355 	mov	dph,a
   2FC6 74 36              9356 	mov	a,#0x36
   2FC8 F0                 9357 	movx	@dptr,a
                           9358 ;	../../core/net/uip.c:1888: tcp_send_noconn:
   2FC9                    9359 00385$:
                           9360 ;	../../core/net/uip.c:1889: BUF->ttl = UIP_TTL;
   2FC9 7Er1A              9361 	mov	r6,#(_uip_aligned_buf + 0x000e)
   2FCB 7Fs00              9362 	mov	r7,#((_uip_aligned_buf + 0x000e) >> 8)
   2FCD 74 08              9363 	mov	a,#0x08
   2FCF 2E                 9364 	add	a,r6
   2FD0 F5 82              9365 	mov	dpl,a
   2FD2 E4                 9366 	clr	a
   2FD3 3F                 9367 	addc	a,r7
   2FD4 F5 83              9368 	mov	dph,a
   2FD6 74 40              9369 	mov	a,#0x40
   2FD8 F0                 9370 	movx	@dptr,a
                           9371 ;	../../core/net/uip.c:1896: BUF->len[0] = (uip_len >> 8);
   2FD9 7Er1A              9372 	mov	r6,#(_uip_aligned_buf + 0x000e)
   2FDB 7Fs00              9373 	mov	r7,#((_uip_aligned_buf + 0x000e) >> 8)
   2FDD 74 02              9374 	mov	a,#0x02
   2FDF 2E                 9375 	add	a,r6
   2FE0 FE                 9376 	mov	r6,a
   2FE1 E4                 9377 	clr	a
   2FE2 3F                 9378 	addc	a,r7
   2FE3 FF                 9379 	mov	r7,a
   2FE4 90s00r7E           9380 	mov	dptr,#_uip_len
   2FE7 E0                 9381 	movx	a,@dptr
   2FE8 FC                 9382 	mov	r4,a
   2FE9 A3                 9383 	inc	dptr
   2FEA E0                 9384 	movx	a,@dptr
   2FEB 8E 82              9385 	mov	dpl,r6
   2FED 8F 83              9386 	mov	dph,r7
   2FEF F0                 9387 	movx	@dptr,a
                           9388 ;	../../core/net/uip.c:1897: BUF->len[1] = (uip_len & 0xff);
   2FF0 7Er1A              9389 	mov	r6,#(_uip_aligned_buf + 0x000e)
   2FF2 7Fs00              9390 	mov	r7,#((_uip_aligned_buf + 0x000e) >> 8)
   2FF4 8E 82              9391 	mov	dpl,r6
   2FF6 8F 83              9392 	mov	dph,r7
   2FF8 A3                 9393 	inc	dptr
   2FF9 A3                 9394 	inc	dptr
   2FFA A3                 9395 	inc	dptr
   2FFB EC                 9396 	mov	a,r4
   2FFC F0                 9397 	movx	@dptr,a
                           9398 ;	../../core/net/uip.c:1900: BUF->urgp[0] = BUF->urgp[1] = 0;
   2FFD 7Er1A              9399 	mov	r6,#(_uip_aligned_buf + 0x000e)
   2FFF 7Fs00              9400 	mov	r7,#((_uip_aligned_buf + 0x000e) >> 8)
   3001 74 26              9401 	mov	a,#0x26
   3003 2E                 9402 	add	a,r6
   3004 FE                 9403 	mov	r6,a
   3005 E4                 9404 	clr	a
   3006 3F                 9405 	addc	a,r7
   3007 FF                 9406 	mov	r7,a
   3008 7Cr1A              9407 	mov	r4,#(_uip_aligned_buf + 0x000e)
   300A 7Ds00              9408 	mov	r5,#((_uip_aligned_buf + 0x000e) >> 8)
   300C 74 27              9409 	mov	a,#0x27
   300E 2C                 9410 	add	a,r4
   300F F5 82              9411 	mov	dpl,a
   3011 E4                 9412 	clr	a
   3012 3D                 9413 	addc	a,r5
   3013 F5 83              9414 	mov	dph,a
   3015 E4                 9415 	clr	a
   3016 F0                 9416 	movx	@dptr,a
   3017 8E 82              9417 	mov	dpl,r6
   3019 8F 83              9418 	mov	dph,r7
   301B E4                 9419 	clr	a
   301C F0                 9420 	movx	@dptr,a
                           9421 ;	../../core/net/uip.c:1903: BUF->tcpchksum = 0;
   301D 7Er1A              9422 	mov	r6,#(_uip_aligned_buf + 0x000e)
   301F 7Fs00              9423 	mov	r7,#((_uip_aligned_buf + 0x000e) >> 8)
   3021 74 24              9424 	mov	a,#0x24
   3023 2E                 9425 	add	a,r6
   3024 F5 82              9426 	mov	dpl,a
   3026 E4                 9427 	clr	a
   3027 3F                 9428 	addc	a,r7
   3028 F5 83              9429 	mov	dph,a
   302A E4                 9430 	clr	a
   302B F0                 9431 	movx	@dptr,a
   302C A3                 9432 	inc	dptr
   302D F0                 9433 	movx	@dptr,a
                           9434 ;	../../core/net/uip.c:1904: BUF->tcpchksum = ~(uip_tcpchksum());
   302E 7Er1A              9435 	mov	r6,#(_uip_aligned_buf + 0x000e)
   3030 7Fs00              9436 	mov	r7,#((_uip_aligned_buf + 0x000e) >> 8)
   3032 74 24              9437 	mov	a,#0x24
   3034 2E                 9438 	add	a,r6
   3035 FE                 9439 	mov	r6,a
   3036 E4                 9440 	clr	a
   3037 3F                 9441 	addc	a,r7
   3038 FF                 9442 	mov	r7,a
   3039 C0 07              9443 	push	ar7
   303B C0 06              9444 	push	ar6
   303D 12s03r56           9445 	lcall	_uip_tcpchksum
   3040 AC 82              9446 	mov	r4,dpl
   3042 AD 83              9447 	mov	r5,dph
   3044 D0 06              9448 	pop	ar6
   3046 D0 07              9449 	pop	ar7
   3048 EC                 9450 	mov	a,r4
   3049 F4                 9451 	cpl	a
   304A FC                 9452 	mov	r4,a
   304B ED                 9453 	mov	a,r5
   304C F4                 9454 	cpl	a
   304D FD                 9455 	mov	r5,a
   304E 8E 82              9456 	mov	dpl,r6
   3050 8F 83              9457 	mov	dph,r7
   3052 EC                 9458 	mov	a,r4
   3053 F0                 9459 	movx	@dptr,a
   3054 A3                 9460 	inc	dptr
   3055 ED                 9461 	mov	a,r5
   3056 F0                 9462 	movx	@dptr,a
                           9463 ;	../../core/net/uip.c:1906: ip_send_nolen:
   3057                    9464 00386$:
                           9465 ;	../../core/net/uip.c:1912: BUF->vhl = 0x45;
   3057 90s00r1A           9466 	mov	dptr,#(_uip_aligned_buf + 0x000e)
   305A 74 45              9467 	mov	a,#0x45
   305C F0                 9468 	movx	@dptr,a
                           9469 ;	../../core/net/uip.c:1913: BUF->tos = 0;
   305D 7Er1A              9470 	mov	r6,#(_uip_aligned_buf + 0x000e)
   305F 7Fs00              9471 	mov	r7,#((_uip_aligned_buf + 0x000e) >> 8)
   3061 8E 82              9472 	mov	dpl,r6
   3063 8F 83              9473 	mov	dph,r7
   3065 A3                 9474 	inc	dptr
   3066 E4                 9475 	clr	a
   3067 F0                 9476 	movx	@dptr,a
                           9477 ;	../../core/net/uip.c:1914: BUF->ipoffset[0] = BUF->ipoffset[1] = 0;
   3068 7Er1A              9478 	mov	r6,#(_uip_aligned_buf + 0x000e)
   306A 7Fs00              9479 	mov	r7,#((_uip_aligned_buf + 0x000e) >> 8)
   306C 74 06              9480 	mov	a,#0x06
   306E 2E                 9481 	add	a,r6
   306F FE                 9482 	mov	r6,a
   3070 E4                 9483 	clr	a
   3071 3F                 9484 	addc	a,r7
   3072 FF                 9485 	mov	r7,a
   3073 7Cr1A              9486 	mov	r4,#(_uip_aligned_buf + 0x000e)
   3075 7Ds00              9487 	mov	r5,#((_uip_aligned_buf + 0x000e) >> 8)
   3077 74 07              9488 	mov	a,#0x07
   3079 2C                 9489 	add	a,r4
   307A F5 82              9490 	mov	dpl,a
   307C E4                 9491 	clr	a
   307D 3D                 9492 	addc	a,r5
   307E F5 83              9493 	mov	dph,a
   3080 E4                 9494 	clr	a
   3081 F0                 9495 	movx	@dptr,a
   3082 8E 82              9496 	mov	dpl,r6
   3084 8F 83              9497 	mov	dph,r7
   3086 E4                 9498 	clr	a
   3087 F0                 9499 	movx	@dptr,a
                           9500 ;	../../core/net/uip.c:1915: ++ipid;
   3088 90s02r9B           9501 	mov	dptr,#_ipid
   308B E0                 9502 	movx	a,@dptr
   308C 24 01              9503 	add	a,#0x01
   308E F0                 9504 	movx	@dptr,a
   308F A3                 9505 	inc	dptr
   3090 E0                 9506 	movx	a,@dptr
   3091 34 00              9507 	addc	a,#0x00
   3093 F0                 9508 	movx	@dptr,a
                           9509 ;	../../core/net/uip.c:1916: BUF->ipid[0] = ipid >> 8;
   3094 7Er1A              9510 	mov	r6,#(_uip_aligned_buf + 0x000e)
   3096 7Fs00              9511 	mov	r7,#((_uip_aligned_buf + 0x000e) >> 8)
   3098 74 04              9512 	mov	a,#0x04
   309A 2E                 9513 	add	a,r6
   309B FE                 9514 	mov	r6,a
   309C E4                 9515 	clr	a
   309D 3F                 9516 	addc	a,r7
   309E FF                 9517 	mov	r7,a
   309F 90s02r9B           9518 	mov	dptr,#_ipid
   30A2 E0                 9519 	movx	a,@dptr
   30A3 FC                 9520 	mov	r4,a
   30A4 A3                 9521 	inc	dptr
   30A5 E0                 9522 	movx	a,@dptr
   30A6 8E 82              9523 	mov	dpl,r6
   30A8 8F 83              9524 	mov	dph,r7
   30AA F0                 9525 	movx	@dptr,a
                           9526 ;	../../core/net/uip.c:1917: BUF->ipid[1] = ipid & 0xff;
   30AB 7Er1A              9527 	mov	r6,#(_uip_aligned_buf + 0x000e)
   30AD 7Fs00              9528 	mov	r7,#((_uip_aligned_buf + 0x000e) >> 8)
   30AF 8E 82              9529 	mov	dpl,r6
   30B1 8F 83              9530 	mov	dph,r7
   30B3 A3                 9531 	inc	dptr
   30B4 A3                 9532 	inc	dptr
   30B5 A3                 9533 	inc	dptr
   30B6 A3                 9534 	inc	dptr
   30B7 A3                 9535 	inc	dptr
   30B8 EC                 9536 	mov	a,r4
   30B9 F0                 9537 	movx	@dptr,a
                           9538 ;	../../core/net/uip.c:1919: BUF->ipchksum = 0;
   30BA 7Er1A              9539 	mov	r6,#(_uip_aligned_buf + 0x000e)
   30BC 7Fs00              9540 	mov	r7,#((_uip_aligned_buf + 0x000e) >> 8)
   30BE 74 0A              9541 	mov	a,#0x0A
   30C0 2E                 9542 	add	a,r6
   30C1 F5 82              9543 	mov	dpl,a
   30C3 E4                 9544 	clr	a
   30C4 3F                 9545 	addc	a,r7
   30C5 F5 83              9546 	mov	dph,a
   30C7 E4                 9547 	clr	a
   30C8 F0                 9548 	movx	@dptr,a
   30C9 A3                 9549 	inc	dptr
   30CA F0                 9550 	movx	@dptr,a
                           9551 ;	../../core/net/uip.c:1920: BUF->ipchksum = ~(uip_ipchksum());
   30CB 7Er1A              9552 	mov	r6,#(_uip_aligned_buf + 0x000e)
   30CD 7Fs00              9553 	mov	r7,#((_uip_aligned_buf + 0x000e) >> 8)
   30CF 74 0A              9554 	mov	a,#0x0A
   30D1 2E                 9555 	add	a,r6
   30D2 FE                 9556 	mov	r6,a
   30D3 E4                 9557 	clr	a
   30D4 3F                 9558 	addc	a,r7
   30D5 FF                 9559 	mov	r7,a
   30D6 C0 07              9560 	push	ar7
   30D8 C0 06              9561 	push	ar6
   30DA 12s02r52           9562 	lcall	_uip_ipchksum
   30DD AC 82              9563 	mov	r4,dpl
   30DF AD 83              9564 	mov	r5,dph
   30E1 D0 06              9565 	pop	ar6
   30E3 D0 07              9566 	pop	ar7
   30E5 EC                 9567 	mov	a,r4
   30E6 F4                 9568 	cpl	a
   30E7 FC                 9569 	mov	r4,a
   30E8 ED                 9570 	mov	a,r5
   30E9 F4                 9571 	cpl	a
   30EA FD                 9572 	mov	r5,a
   30EB 8E 82              9573 	mov	dpl,r6
   30ED 8F 83              9574 	mov	dph,r7
   30EF EC                 9575 	mov	a,r4
   30F0 F0                 9576 	movx	@dptr,a
   30F1 A3                 9577 	inc	dptr
   30F2 ED                 9578 	mov	a,r5
   30F3 F0                 9579 	movx	@dptr,a
                           9580 ;	../../core/net/uip.c:1932: uip_flags = 0;
   30F4 90s00r82           9581 	mov	dptr,#_uip_flags
   30F7 E4                 9582 	clr	a
   30F8 F0                 9583 	movx	@dptr,a
                           9584 ;	../../core/net/uip.c:1933: return;
                           9585 ;	../../core/net/uip.c:1935: drop:
   30F9 80 0B              9586 	sjmp	00400$
   30FB                    9587 00387$:
                           9588 ;	../../core/net/uip.c:1936: uip_len = 0;
   30FB 90s00r7E           9589 	mov	dptr,#_uip_len
                           9590 ;	../../core/net/uip.c:1937: uip_flags = 0;
   30FE E4                 9591 	clr	a
   30FF F0                 9592 	movx	@dptr,a
   3100 A3                 9593 	inc	dptr
   3101 F0                 9594 	movx	@dptr,a
   3102 90s00r82           9595 	mov	dptr,#_uip_flags
   3105 F0                 9596 	movx	@dptr,a
                           9597 ;	../../core/net/uip.c:1938: return;
   3106                    9598 00400$:
   3106 85*00 81           9599 	mov	sp,_bp
   3109 D0*00              9600 	pop	_bp
   310B 22                 9601 	ret
                           9602 ;------------------------------------------------------------
                           9603 ;Allocation info for local variables in function 'uip_htons'
                           9604 ;------------------------------------------------------------
                           9605 ;val                       Allocated to registers r6 r7 
                           9606 ;------------------------------------------------------------
                           9607 ;	../../core/net/uip.c:1942: uip_htons(uint16_t val)
                           9608 ;	-----------------------------------------
                           9609 ;	 function uip_htons
                           9610 ;	-----------------------------------------
   310C                    9611 _uip_htons:
   310C AE 82              9612 	mov	r6,dpl
   310E AF 83              9613 	mov	r7,dph
                           9614 ;	../../core/net/uip.c:1944: return UIP_HTONS(val);
   3110 8E 05              9615 	mov	ar5,r6
   3112 7C 00              9616 	mov	r4,#0x00
   3114 8F 06              9617 	mov	ar6,r7
   3116 7F 00              9618 	mov	r7,#0x00
   3118 EE                 9619 	mov	a,r6
   3119 42 04              9620 	orl	ar4,a
   311B EF                 9621 	mov	a,r7
   311C 42 05              9622 	orl	ar5,a
   311E 8C 82              9623 	mov	dpl,r4
   3120 8D 83              9624 	mov	dph,r5
   3122 22                 9625 	ret
                           9626 ;------------------------------------------------------------
                           9627 ;Allocation info for local variables in function 'uip_htonl'
                           9628 ;------------------------------------------------------------
                           9629 ;val                       Allocated to registers r4 r5 r6 r7 
                           9630 ;------------------------------------------------------------
                           9631 ;	../../core/net/uip.c:1948: uip_htonl(uint32_t val)
                           9632 ;	-----------------------------------------
                           9633 ;	 function uip_htonl
                           9634 ;	-----------------------------------------
   3123                    9635 _uip_htonl:
   3123 AC 82              9636 	mov	r4,dpl
   3125 AD 83              9637 	mov	r5,dph
   3127 AE F0              9638 	mov	r6,b
   3129 FF                 9639 	mov	r7,a
                           9640 ;	../../core/net/uip.c:1950: return UIP_HTONL(val);
   312A 8C 02              9641 	mov	ar2,r4
   312C 8D 03              9642 	mov	ar3,r5
   312E 8A 01              9643 	mov	ar1,r2
   3130 78 00              9644 	mov	r0,#0x00
   3132 8B 02              9645 	mov	ar2,r3
   3134 7B 00              9646 	mov	r3,#0x00
   3136 EA                 9647 	mov	a,r2
   3137 42 00              9648 	orl	ar0,a
   3139 EB                 9649 	mov	a,r3
   313A 42 01              9650 	orl	ar1,a
   313C 89 02              9651 	mov	ar2,r1
   313E 88 03              9652 	mov	ar3,r0
   3140 79 00              9653 	mov	r1,#0x00
   3142 78 00              9654 	mov	r0,#0x00
   3144 8E 04              9655 	mov	ar4,r6
   3146 8F 05              9656 	mov	ar5,r7
   3148 8C 07              9657 	mov	ar7,r4
   314A 7E 00              9658 	mov	r6,#0x00
   314C 8D 04              9659 	mov	ar4,r5
   314E 7D 00              9660 	mov	r5,#0x00
   3150 EC                 9661 	mov	a,r4
   3151 42 06              9662 	orl	ar6,a
   3153 ED                 9663 	mov	a,r5
   3154 42 07              9664 	orl	ar7,a
   3156 E4                 9665 	clr	a
   3157 FD                 9666 	mov	r5,a
   3158 FC                 9667 	mov	r4,a
   3159 EE                 9668 	mov	a,r6
   315A 42 00              9669 	orl	ar0,a
   315C EF                 9670 	mov	a,r7
   315D 42 01              9671 	orl	ar1,a
   315F ED                 9672 	mov	a,r5
   3160 42 03              9673 	orl	ar3,a
   3162 EC                 9674 	mov	a,r4
   3163 42 02              9675 	orl	ar2,a
   3165 88 82              9676 	mov	dpl,r0
   3167 89 83              9677 	mov	dph,r1
   3169 8B F0              9678 	mov	b,r3
   316B EA                 9679 	mov	a,r2
   316C 22                 9680 	ret
                           9681 ;------------------------------------------------------------
                           9682 ;Allocation info for local variables in function 'uip_send'
                           9683 ;------------------------------------------------------------
                           9684 ;len                       Allocated to stack - _bp -4
                           9685 ;data                      Allocated to stack - _bp +1
                           9686 ;copylen                   Allocated to registers r6 r7 
                           9687 ;sloc0                     Allocated to stack - _bp +6
                           9688 ;sloc1                     Allocated to stack - _bp +4
                           9689 ;------------------------------------------------------------
                           9690 ;	../../core/net/uip.c:1954: uip_send(const void *data, int len)
                           9691 ;	-----------------------------------------
                           9692 ;	 function uip_send
                           9693 ;	-----------------------------------------
   316D                    9694 _uip_send:
   316D C0*00              9695 	push	_bp
   316F 85 81*00           9696 	mov	_bp,sp
   3172 C0 82              9697 	push	dpl
   3174 C0 83              9698 	push	dph
   3176 C0 F0              9699 	push	b
   3178 05 81              9700 	inc	sp
   317A 05 81              9701 	inc	sp
   317C 05 81              9702 	inc	sp
                           9703 ;	../../core/net/uip.c:1958: copylen = MIN(len, UIP_BUFSIZE - UIP_LLH_LEN - UIP_TCPIP_HLEN -
   317E 90s00r7B           9704 	mov	dptr,#_uip_sappdata
   3181 E5*00              9705 	mov	a,_bp
   3183 24 04              9706 	add	a,#0x04
   3185 F8                 9707 	mov	r0,a
   3186 E0                 9708 	movx	a,@dptr
   3187 F6                 9709 	mov	@r0,a
   3188 A3                 9710 	inc	dptr
   3189 E0                 9711 	movx	a,@dptr
   318A 08                 9712 	inc	r0
   318B F6                 9713 	mov	@r0,a
   318C A3                 9714 	inc	dptr
   318D E0                 9715 	movx	a,@dptr
   318E 08                 9716 	inc	r0
   318F F6                 9717 	mov	@r0,a
   3190 E5*00              9718 	mov	a,_bp
   3192 24 04              9719 	add	a,#0x04
   3194 F8                 9720 	mov	r0,a
   3195 86 02              9721 	mov	ar2,@r0
   3197 08                 9722 	inc	r0
   3198 86 03              9723 	mov	ar3,@r0
   319A 08                 9724 	inc	r0
   319B 86 04              9725 	mov	ar4,@r0
   319D 7Er42              9726 	mov	r6,#(_uip_aligned_buf + 0x0036)
   319F 7Fs00              9727 	mov	r7,#((_uip_aligned_buf + 0x0036) >> 8)
   31A1 EA                 9728 	mov	a,r2
   31A2 C3                 9729 	clr	c
   31A3 9E                 9730 	subb	a,r6
   31A4 FE                 9731 	mov	r6,a
   31A5 EB                 9732 	mov	a,r3
   31A6 9F                 9733 	subb	a,r7
   31A7 FF                 9734 	mov	r7,a
   31A8 74 36              9735 	mov	a,#0x36
   31AA C3                 9736 	clr	c
   31AB 9E                 9737 	subb	a,r6
   31AC FE                 9738 	mov	r6,a
   31AD E4                 9739 	clr	a
   31AE 9F                 9740 	subb	a,r7
   31AF FF                 9741 	mov	r7,a
   31B0 E5*00              9742 	mov	a,_bp
   31B2 24 FC              9743 	add	a,#0xfc
   31B4 F8                 9744 	mov	r0,a
   31B5 C3                 9745 	clr	c
   31B6 E6                 9746 	mov	a,@r0
   31B7 9E                 9747 	subb	a,r6
   31B8 08                 9748 	inc	r0
   31B9 E6                 9749 	mov	a,@r0
   31BA 64 80              9750 	xrl	a,#0x80
   31BC 8F F0              9751 	mov	b,r7
   31BE 63 F0 80           9752 	xrl	b,#0x80
   31C1 95 F0              9753 	subb	a,b
   31C3 50 0C              9754 	jnc	00107$
   31C5 E5*00              9755 	mov	a,_bp
   31C7 24 FC              9756 	add	a,#0xfc
   31C9 F8                 9757 	mov	r0,a
   31CA 86 06              9758 	mov	ar6,@r0
   31CC 08                 9759 	inc	r0
   31CD 86 07              9760 	mov	ar7,@r0
   31CF 80 22              9761 	sjmp	00108$
   31D1                    9762 00107$:
   31D1 E5*00              9763 	mov	a,_bp
   31D3 24 04              9764 	add	a,#0x04
   31D5 F8                 9765 	mov	r0,a
   31D6 86 03              9766 	mov	ar3,@r0
   31D8 08                 9767 	inc	r0
   31D9 86 04              9768 	mov	ar4,@r0
   31DB 08                 9769 	inc	r0
   31DC 86 05              9770 	mov	ar5,@r0
   31DE 8D 07              9771 	mov	ar7,r5
   31E0 7Ar42              9772 	mov	r2,#(_uip_aligned_buf + 0x0036)
   31E2 7Ds00              9773 	mov	r5,#((_uip_aligned_buf + 0x0036) >> 8)
   31E4 EB                 9774 	mov	a,r3
   31E5 C3                 9775 	clr	c
   31E6 9A                 9776 	subb	a,r2
   31E7 FA                 9777 	mov	r2,a
   31E8 EC                 9778 	mov	a,r4
   31E9 9D                 9779 	subb	a,r5
   31EA FD                 9780 	mov	r5,a
   31EB 74 36              9781 	mov	a,#0x36
   31ED C3                 9782 	clr	c
   31EE 9A                 9783 	subb	a,r2
   31EF FE                 9784 	mov	r6,a
   31F0 E4                 9785 	clr	a
   31F1 9D                 9786 	subb	a,r5
   31F2 FF                 9787 	mov	r7,a
   31F3                    9788 00108$:
                           9789 ;	../../core/net/uip.c:1960: if(copylen > 0) {
   31F3 C3                 9790 	clr	c
   31F4 E4                 9791 	clr	a
   31F5 9E                 9792 	subb	a,r6
   31F6 E4                 9793 	clr	a
   31F7 64 80              9794 	xrl	a,#0x80
   31F9 8F F0              9795 	mov	b,r7
   31FB 63 F0 80           9796 	xrl	b,#0x80
   31FE 95 F0              9797 	subb	a,b
   3200 50 56              9798 	jnc	00105$
                           9799 ;	../../core/net/uip.c:1961: uip_slen = copylen;
   3202 90s00r80           9800 	mov	dptr,#_uip_slen
   3205 EE                 9801 	mov	a,r6
   3206 F0                 9802 	movx	@dptr,a
   3207 A3                 9803 	inc	dptr
   3208 EF                 9804 	mov	a,r7
   3209 F0                 9805 	movx	@dptr,a
                           9806 ;	../../core/net/uip.c:1962: if(data != uip_sappdata) {
   320A A8*00              9807 	mov	r0,_bp
   320C 08                 9808 	inc	r0
   320D E5*00              9809 	mov	a,_bp
   320F 24 04              9810 	add	a,#0x04
   3211 F9                 9811 	mov	r1,a
   3212 E7                 9812 	mov	a,@r1
   3213 C0 E0              9813 	push	acc
   3215 09                 9814 	inc	r1
   3216 E7                 9815 	mov	a,@r1
   3217 C0 E0              9816 	push	acc
   3219 09                 9817 	inc	r1
   321A E7                 9818 	mov	a,@r1
   321B C0 E0              9819 	push	acc
   321D 86 82              9820 	mov	dpl,@r0
   321F 08                 9821 	inc	r0
   3220 86 83              9822 	mov	dph,@r0
   3222 08                 9823 	inc	r0
   3223 86 F0              9824 	mov	b,@r0
   3225 12s00r00           9825 	lcall	___gptr_cmp
   3228 15 81              9826 	dec	sp
   322A 15 81              9827 	dec	sp
   322C 15 81              9828 	dec	sp
   322E 60 28              9829 	jz	00105$
                           9830 ;	../../core/net/uip.c:1963: memcpy(uip_sappdata, (data), uip_slen);
   3230 C0 06              9831 	push	ar6
   3232 C0 07              9832 	push	ar7
   3234 A8*00              9833 	mov	r0,_bp
   3236 08                 9834 	inc	r0
   3237 E6                 9835 	mov	a,@r0
   3238 C0 E0              9836 	push	acc
   323A 08                 9837 	inc	r0
   323B E6                 9838 	mov	a,@r0
   323C C0 E0              9839 	push	acc
   323E 08                 9840 	inc	r0
   323F E6                 9841 	mov	a,@r0
   3240 C0 E0              9842 	push	acc
   3242 E5*00              9843 	mov	a,_bp
   3244 24 04              9844 	add	a,#0x04
   3246 F8                 9845 	mov	r0,a
   3247 86 82              9846 	mov	dpl,@r0
   3249 08                 9847 	inc	r0
   324A 86 83              9848 	mov	dph,@r0
   324C 08                 9849 	inc	r0
   324D 86 F0              9850 	mov	b,@r0
   324F 12s00r00           9851 	lcall	_memcpy
   3252 E5 81              9852 	mov	a,sp
   3254 24 FB              9853 	add	a,#0xfb
   3256 F5 81              9854 	mov	sp,a
   3258                    9855 00105$:
   3258 85*00 81           9856 	mov	sp,_bp
   325B D0*00              9857 	pop	_bp
   325D 22                 9858 	ret
                           9859 	.area CSEG    (CODE)
                           9860 	.area CONST   (CODE)
   0000                    9861 _uip_broadcast_addr:
   0000 FF                 9862 	.db #0xFF	; 255
   0001 FF                 9863 	.db #0xFF	; 255
   0002 FF                 9864 	.db #0xFF	; 255
   0003 FF                 9865 	.db #0xFF	; 255
   0004                    9866 _uip_all_zeroes_addr:
   0004 00                 9867 	.db #0x00	; 0
   0005 00                 9868 	.db 0x00
   0006 00                 9869 	.db 0x00
   0007 00                 9870 	.db 0x00
                           9871 	.area XINIT   (CODE)
   0000                    9872 __xinit__uip_ethaddr:
   0000 00                 9873 	.db #0x00	; 0
   0001 00                 9874 	.db #0x00	; 0
   0002 00                 9875 	.db #0x00	; 0
   0003 00                 9876 	.db #0x00	; 0
   0004 00                 9877 	.db #0x00	; 0
   0005 00                 9878 	.db #0x00	; 0
                           9879 	.area CABS    (ABS,CODE)
