ASxxxx Linker V02.00 + NoICE + sdld,  page 1.
Hexadecimal  [32-Bits]

Area                                    Addr        Size        Decimal Bytes (Attributes)
--------------------------------        ----        ----        ------- ----- ------------
CABS                                00000000    00000000 =           0. bytes (ABS,CON,CODE)

      Value  Global                              Global Defined In Module
      -----  --------------------------------   ------------------------
     0C:   00000000  l_CABS                          
     0C:   00000000  l_GSINIT1                       
     0C:   00000000  l_GSINIT5                       
     0C:   00000000  l_IABS                          
     0C:   00000000  l_ISEG                          
     0C:   00000000  l_OSEG                          
     0C:   00000000  l_PSEG                          
     0C:   00000000  l_REG_BANK_1                    
     0C:   00000000  l_REG_BANK_2                    
     0C:   00000000  l_REG_BANK_3                    
     0C:   00000000  l_RSEG                          
     0C:   00000000  l_RSEG0                         
     0C:   00000000  l_RSEG1                         
     0C:   00000000  l_XABS                          
     0C:   00000000  l__CODE                         
     0C:   00000000  s_BSEG                          
     0C:   00000000  s_CABS                          
     0C:   00000000  s_DSEG                          
     0C:   00000000  s_HOME                          
     0C:   00000000  s_IABS                          
     0C:   00000000  s_ISEG                          
     0C:   00000000  s_REG_BANK_0                    
     0C:   00000000  s_RSEG                          
     0C:   00000000  s_RSEG0                         
     0C:   00000000  s_RSEG1                         
     0C:   00000000  s_XABS                          
     0C:   00000001  l_BIT_BANK                      
     0C:   00000001  l_BSEG                          
     0C:   00000001  l_BSEG_BYTES                    
     0C:   00000003  l_GSFINAL                       
     0C:   00000003  l_GSINIT0                       
     0C:   00000008  l_REG_BANK_0                    
     0C:   00000008  s_REG_BANK_1                    
     0C:   0000000A  l_GSINIT2                       
     0C:   0000000F  l_GSINIT                        
     0C:   00000010  s_REG_BANK_2                    
     0C:   00000018  s_REG_BANK_3                    
     0C:   00000020  s_BSEG_BYTES                    
     0C:   00000020  s__CODE                         
     0C:   00000021  s_BIT_BANK                      
     0C:   00000021  s_OSEG                          
     0C:   00000022  l_GSINIT3                       
     0C:   00000022  s_SSEG                          
     0C:   0000002A  l_GSINIT4                       
     0C:   0000007B  l_DSEG                          
     0C:   0000009F  l_XINIT                         
     0C:   0000009F  l_XISEG                         
     0C:   000000B3  l_HOME                          
     0C:   000000B3  s_GSINIT0                       
     0C:   000000B6  s_GSINIT1                       
ASxxxx Linker V02.00 + NoICE + sdld,  page 2.
Hexadecimal  [32-Bits]

Area                                    Addr        Size        Decimal Bytes (Attributes)
--------------------------------        ----        ----        ------- ----- ------------
CABS                                00000000    00000000 =           0. bytes (ABS,CON,CODE)

      Value  Global                              Global Defined In Module
      -----  --------------------------------   ------------------------
     0C:   000000B6  s_GSINIT2                       
     0C:   000000C0  s_GSINIT3                       
     0C:   000000DE  l_SSEG                          
     0C:   000000E2  s_GSINIT4                       
     0C:   00000100  l_IRAM                          
     0C:   00000103  l_CONST                         
     0C:   0000010C  s_GSINIT                        
     0C:   0000010C  s_GSINIT5                       
     0C:   0000011B  s_GSFINAL                       
     0C:   0000011E  s_CSEG                          
     0C:   00000B04  l_XSEG                          
     0C:   0000B157  l_CSEG                          
     0C:   0000B275  s_CONST                         
     0C:   0000B378  s_XINIT                         
     0C:   0000E000  s_PSEG                          
     0C:   0000E000  s_XSEG                          
     0C:   0000EB04  s_XISEG                         

ASxxxx Linker V02.00 + NoICE + sdld,  page 3.
Hexadecimal  [32-Bits]

Area                                    Addr        Size        Decimal Bytes (Attributes)
--------------------------------        ----        ----        ------- ----- ------------
.	.ABS.                             00000000    00000000 =           0. bytes (ABS,CON)

      Value  Global                              Global Defined In Module
      -----  --------------------------------   ------------------------
           00000000  .__.ABS.                           _divuint
           00000080  _P0                                chameleon_bitopt
           00000080  _P0_0                              chameleon_bitopt
           00000081  _P0_1                              chameleon_bitopt
           00000081  _SP                                chameleon_bitopt
           00000082  _DPL0                              chameleon_bitopt
           00000082  _P0_2                              chameleon_bitopt
           00000083  _DPH0                              chameleon_bitopt
           00000083  _P0_3                              chameleon_bitopt
           00000084  _DPL1                              chameleon_bitopt
           00000084  _P0_4                              chameleon_bitopt
           00000085  _DPH1                              chameleon_bitopt
           00000085  _P0_5                              chameleon_bitopt
           00000086  _P0_6                              chameleon_bitopt
           00000086  _U0CSR                             chameleon_bitopt
           00000087  _P0_7                              chameleon_bitopt
           00000087  _PCON                              chameleon_bitopt
           00000088  _TCON                              chameleon_bitopt
           00000088  _TCON_IT0                          chameleon_bitopt
           00000089  _P0IFG                             chameleon_bitopt
           00000089  _TCON_RFERRIF                      chameleon_bitopt
           0000008A  _P1IFG                             chameleon_bitopt
           0000008A  _TCON_IT1                          chameleon_bitopt
           0000008B  _P2IFG                             chameleon_bitopt
           0000008B  _TCON_URX0IF                       chameleon_bitopt
           0000008C  _PICTL                             chameleon_bitopt
           0000008D  _P1IEN                             chameleon_bitopt
           0000008D  _TCON_ADCIF                        chameleon_bitopt
           0000008F  _P0INP                             chameleon_bitopt
           0000008F  _TCON_URX1IF                       chameleon_bitopt
           00000090  _P1                                chameleon_bitopt
           00000090  _P1_0                              chameleon_bitopt
           00000091  _P1_1                              chameleon_bitopt
           00000091  _RFIM                              chameleon_bitopt
           00000092  _DPS                               chameleon_bitopt
           00000092  _P1_2                              chameleon_bitopt
           00000093  _P1_3                              chameleon_bitopt
           00000093  __XPAGE                            chameleon_bitopt
           00000094  _P1_4                              chameleon_bitopt
           00000094  _T2CMP                             chameleon_bitopt
           00000095  _P1_5                              chameleon_bitopt
           00000095  _ST0                               chameleon_bitopt
           00000096  _P1_6                              chameleon_bitopt
           00000096  _ST1                               chameleon_bitopt
           00000097  _P1_7                              chameleon_bitopt
           00000097  _ST2                               chameleon_bitopt
           00000098  _S0CON                             chameleon_bitopt
           00000098  _S0CON_ENCIF_0                     chameleon_bitopt
           00000099  _HSRC                              chameleon_bitopt
           00000099  _S0CON_ENCIF_1                     chameleon_bitopt
ASxxxx Linker V02.00 + NoICE + sdld,  page 4.
Hexadecimal  [32-Bits]

Area                                    Addr        Size        Decimal Bytes (Attributes)
--------------------------------        ----        ----        ------- ----- ------------
.	.ABS.                             00000000    00000000 =           0. bytes (ABS,CON)

      Value  Global                              Global Defined In Module
      -----  --------------------------------   ------------------------
           0000009A  _IEN2                              chameleon_bitopt
           0000009B  _S1CON                             chameleon_bitopt
           0000009C  _T2PEROF0                          chameleon_bitopt
           0000009D  _T2PEROF1                          chameleon_bitopt
           0000009E  _T2PEROF2                          chameleon_bitopt
           0000009F  _FMAP                              chameleon_bitopt
           0000009F  _PSBANK                            chameleon_bitopt
           000000A0  _P2                                chameleon_bitopt
           000000A0  _P2_0                              chameleon_bitopt
           000000A1  _P2_1                              chameleon_bitopt
           000000A1  _T2OF0                             chameleon_bitopt
           000000A2  _P2_2                              chameleon_bitopt
           000000A2  _T2OF1                             chameleon_bitopt
           000000A3  _P2_3                              chameleon_bitopt
           000000A3  _T2OF2                             chameleon_bitopt
           000000A4  _P2_4                              chameleon_bitopt
           000000A4  _T2CAPLPL                          chameleon_bitopt
           000000A5  _T2CAPHPH                          chameleon_bitopt
           000000A6  _T2TLD                             chameleon_bitopt
           000000A7  _T2THD                             chameleon_bitopt
           000000A8  _IE                                chameleon_bitopt
           000000A8  _IEN0                              chameleon_bitopt
           000000A8  _IEN0_RFERRIE                      chameleon_bitopt
           000000A9  _IEN0_ADCIE                        chameleon_bitopt
           000000A9  _IP0                               chameleon_bitopt
           000000AA  _IEN0_URX0IE                       chameleon_bitopt
           000000AB  _FWT                               chameleon_bitopt
           000000AB  _IEN0_URX1IE                       chameleon_bitopt
           000000AC  _FADDRL                            chameleon_bitopt
           000000AC  _IEN0_ENCIE                        chameleon_bitopt
           000000AD  _FADDRH                            chameleon_bitopt
           000000AD  _IEN0_STIE                         chameleon_bitopt
           000000AE  _FCTL                              chameleon_bitopt
           000000AF  _EA                                chameleon_bitopt
           000000AF  _FWDATA                            chameleon_bitopt
           000000AF  _IEN0_EA                           chameleon_bitopt
           000000B1  _ENCDI                             chameleon_bitopt
           000000B2  _ENCDO                             chameleon_bitopt
           000000B3  _ENCCS                             chameleon_bitopt
           000000B4  _ADCCON1                           chameleon_bitopt
           000000B5  _ADCCON2                           chameleon_bitopt
           000000B6  _ADCCON3                           chameleon_bitopt
           000000B7  _RCCTL                             chameleon_bitopt
           000000B8  _IEN1                              chameleon_bitopt
           000000B8  _IEN1_DMAIE                        chameleon_bitopt
           000000B9  _IEN1_T1IE                         chameleon_bitopt
           000000B9  _IP1                               chameleon_bitopt
           000000BA  _ADCL                              chameleon_bitopt
           000000BA  _IEN1_T2IE                         chameleon_bitopt
           000000BB  _ADCH                              chameleon_bitopt
           000000BB  _IEN1_T3IE                         chameleon_bitopt
ASxxxx Linker V02.00 + NoICE + sdld,  page 5.
Hexadecimal  [32-Bits]

Area                                    Addr        Size        Decimal Bytes (Attributes)
--------------------------------        ----        ----        ------- ----- ------------
.	.ABS.                             00000000    00000000 =           0. bytes (ABS,CON)

      Value  Global                              Global Defined In Module
      -----  --------------------------------   ------------------------
           000000BC  _IEN1_T4IE                         chameleon_bitopt
           000000BC  _RNDL                              chameleon_bitopt
           000000BD  _IEN1_P0IE                         chameleon_bitopt
           000000BD  _RNDH                              chameleon_bitopt
           000000BE  _SLEEP                             chameleon_bitopt
           000000C0  _IRCON                             chameleon_bitopt
           000000C0  _IRCON_DMAIF                       chameleon_bitopt
           000000C1  _IRCON_T1IF                        chameleon_bitopt
           000000C1  _U0BUF                             chameleon_bitopt
           000000C2  _IRCON_T2IF                        chameleon_bitopt
           000000C2  _U0BAUD                            chameleon_bitopt
           000000C3  _IRCON_T3IF                        chameleon_bitopt
           000000C3  _T2CNF                             chameleon_bitopt
           000000C4  _IRCON_T4IF                        chameleon_bitopt
           000000C4  _U0UCR                             chameleon_bitopt
           000000C5  _IRCON_P0IF                        chameleon_bitopt
           000000C5  _U0GCR                             chameleon_bitopt
           000000C6  _CLKCON                            chameleon_bitopt
           000000C7  _IRCON_STIF                        chameleon_bitopt
           000000C7  _MEMCTR                            chameleon_bitopt
           000000C8  _T2CON                             chameleon_bitopt
           000000C9  _WDCTL                             chameleon_bitopt
           000000CA  _T3CNT                             chameleon_bitopt
           000000CB  _T3CTL                             chameleon_bitopt
           000000CC  _T3CCTL0                           chameleon_bitopt
           000000CD  _T3CC0                             chameleon_bitopt
           000000CE  _T3CCTL1                           chameleon_bitopt
           000000CF  _T3CC1                             chameleon_bitopt
           000000D0  _P                                 chameleon_bitopt
           000000D0  _PSW                               chameleon_bitopt
           000000D1  _DMAIRQ                            chameleon_bitopt
           000000D1  _F1                                chameleon_bitopt
           000000D2  _DMA1CFGL                          chameleon_bitopt
           000000D2  _OV                                chameleon_bitopt
           000000D3  _DMA1CFGH                          chameleon_bitopt
           000000D3  _RS0                               chameleon_bitopt
           000000D4  _DMA0CFGL                          chameleon_bitopt
           000000D4  _RS1                               chameleon_bitopt
           000000D5  _DMA0CFGH                          chameleon_bitopt
           000000D5  _F0                                chameleon_bitopt
           000000D6  _AC                                chameleon_bitopt
           000000D6  _DMAARM                            chameleon_bitopt
           000000D7  _CY                                chameleon_bitopt
           000000D7  _DMAREQ                            chameleon_bitopt
           000000D8  _TIMIF                             chameleon_bitopt
           000000D9  _RFD                               chameleon_bitopt
           000000DA  _T1CC0L                            chameleon_bitopt
           000000DB  _T1CC0H                            chameleon_bitopt
           000000DC  _T1CC1L                            chameleon_bitopt
           000000DD  _T1CC1H                            chameleon_bitopt
           000000DE  _T1CC2L                            chameleon_bitopt
ASxxxx Linker V02.00 + NoICE + sdld,  page 6.
Hexadecimal  [32-Bits]

Area                                    Addr        Size        Decimal Bytes (Attributes)
--------------------------------        ----        ----        ------- ----- ------------
.	.ABS.                             00000000    00000000 =           0. bytes (ABS,CON)

      Value  Global                              Global Defined In Module
      -----  --------------------------------   ------------------------
           000000DF  _T1CC2H                            chameleon_bitopt
           000000E0  _ACC                               chameleon_bitopt
           000000E1  _RFST                              chameleon_bitopt
           000000E2  _T1CNTL                            chameleon_bitopt
           000000E3  _T1CNTH                            chameleon_bitopt
           000000E4  _T1CTL                             chameleon_bitopt
           000000E5  _T1CCTL0                           chameleon_bitopt
           000000E6  _T1CCTL1                           chameleon_bitopt
           000000E7  _T1CCTL2                           chameleon_bitopt
           000000E8  _IRCON2                            chameleon_bitopt
           000000E8  _IRCON2_P2IF                       chameleon_bitopt
           000000E9  _IRCON2_UTX0IF                     chameleon_bitopt
           000000E9  _RFIF                              chameleon_bitopt
           000000EA  _IRCON2_UTX1IF                     chameleon_bitopt
           000000EA  _T4CNT                             chameleon_bitopt
           000000EB  _IRCON2_P1IF                       chameleon_bitopt
           000000EB  _T4CTL                             chameleon_bitopt
           000000EC  _IRCON2_WDTIF                      chameleon_bitopt
           000000EC  _T4CCTL0                           chameleon_bitopt
           000000ED  _T4CC0                             chameleon_bitopt
           000000EE  _T4CCTL1                           chameleon_bitopt
           000000EF  _T4CC1                             chameleon_bitopt
           000000F0  _B                                 chameleon_bitopt
           000000F1  _PERCFG                            chameleon_bitopt
           000000F2  _ADCCFG                            chameleon_bitopt
           000000F3  _P0SEL                             chameleon_bitopt
           000000F4  _P1SEL                             chameleon_bitopt
           000000F5  _B_5                               _gptrget
           000000F5  _P2SEL                             chameleon_bitopt
           000000F6  _B_6                               _gptrget
           000000F6  _P1INP                             chameleon_bitopt
           000000F7  _B_7                               _gptrget
           000000F7  _P2INP                             chameleon_bitopt
           000000F8  _U1CSR                             chameleon_bitopt
           000000F9  _U1BUF                             chameleon_bitopt
           000000FA  _U1BAUD                            chameleon_bitopt
           000000FB  _U1UCR                             chameleon_bitopt
           000000FC  _U1GCR                             chameleon_bitopt
           000000FD  _P0DIR                             chameleon_bitopt
           000000FE  _P1DIR                             chameleon_bitopt
           000000FF  _P2DIR                             chameleon_bitopt
           0000DF02  _MDMCTRL0H                         chameleon_bitopt
           0000DF03  _MDMCTRL0L                         chameleon_bitopt
           0000DF04  _MDMCTRL1H                         chameleon_bitopt
           0000DF05  _MDMCTRL1L                         chameleon_bitopt
           0000DF06  _RSSIH                             chameleon_bitopt
           0000DF07  _RSSIL                             chameleon_bitopt
           0000DF08  _SYNCWORDH                         chameleon_bitopt
           0000DF09  _SYNCWORDL                         chameleon_bitopt
           0000DF0A  _TXCTRLH                           chameleon_bitopt
           0000DF0B  _TXCTRLL                           chameleon_bitopt
ASxxxx Linker V02.00 + NoICE + sdld,  page 7.
Hexadecimal  [32-Bits]

Area                                    Addr        Size        Decimal Bytes (Attributes)
--------------------------------        ----        ----        ------- ----- ------------
.	.ABS.                             00000000    00000000 =           0. bytes (ABS,CON)

      Value  Global                              Global Defined In Module
      -----  --------------------------------   ------------------------
           0000DF0C  _RXCTRL0H                          chameleon_bitopt
           0000DF0D  _RXCTRL0L                          chameleon_bitopt
           0000DF0E  _RXCTRL1H                          chameleon_bitopt
           0000DF0F  _RXCTRL1L                          chameleon_bitopt
           0000DF10  _FSCTRLH                           chameleon_bitopt
           0000DF11  _FSCTRLL                           chameleon_bitopt
           0000DF12  _CSPX                              chameleon_bitopt
           0000DF13  _CSPY                              chameleon_bitopt
           0000DF14  _CSPZ                              chameleon_bitopt
           0000DF15  _CSPCTRL                           chameleon_bitopt
           0000DF16  _CSPT                              chameleon_bitopt
           0000DF17  _RFPWR                             chameleon_bitopt
           0000DF20  _FSMTCH                            chameleon_bitopt
           0000DF21  _FSMTCL                            chameleon_bitopt
           0000DF22  _MANANDH                           chameleon_bitopt
           0000DF23  _MANANDL                           chameleon_bitopt
           0000DF24  _MANORH                            chameleon_bitopt
           0000DF25  _MANORL                            chameleon_bitopt
           0000DF26  _AGCCTRLH                          chameleon_bitopt
           0000DF27  _AGCCTRLL                          chameleon_bitopt
           0000DF39  _FSMSTATE                          chameleon_bitopt
           0000DF3A  _ADCTSTH                           chameleon_bitopt
           0000DF3B  _ADCTSTL                           chameleon_bitopt
           0000DF3C  _DACTSTH                           chameleon_bitopt
           0000DF3D  _DACTSTL                           chameleon_bitopt
           0000DF43  _IEEE_ADDR0                        chameleon_bitopt
           0000DF44  _IEEE_ADDR1                        chameleon_bitopt
           0000DF45  _IEEE_ADDR2                        chameleon_bitopt
           0000DF46  _IEEE_ADDR3                        chameleon_bitopt
           0000DF47  _IEEE_ADDR4                        chameleon_bitopt
           0000DF48  _IEEE_ADDR5                        chameleon_bitopt
           0000DF49  _IEEE_ADDR6                        chameleon_bitopt
           0000DF4A  _IEEE_ADDR7                        chameleon_bitopt
           0000DF4B  _PANIDH                            chameleon_bitopt
           0000DF4C  _PANIDL                            chameleon_bitopt
           0000DF4D  _SHORTADDRH                        chameleon_bitopt
           0000DF4E  _SHORTADDRL                        chameleon_bitopt
           0000DF4F  _IOCFG0                            chameleon_bitopt
           0000DF50  _IOCFG1                            chameleon_bitopt
           0000DF51  _IOCFG2                            chameleon_bitopt
           0000DF52  _IOCFG3                            chameleon_bitopt
           0000DF53  _RXFIFOCNT                         chameleon_bitopt
           0000DF54  _FSMTC1                            chameleon_bitopt
           0000DF60  _CHVER                             chameleon_bitopt
           0000DF61  _CHIPID                            chameleon_bitopt
           0000DF62  _RFSTATUS                          chameleon_bitopt
           0000DFBA  _ADC_SHADOW                        chameleon_bitopt
           0000DFC1  _U0BUF_SHADOW                      chameleon_bitopt
           0000DFD9  _RFD_SHADOW                        chameleon_bitopt
           0000DFF9  _U1BUF_SHADOW                      chameleon_bitopt

ASxxxx Linker V02.00 + NoICE + sdld,  page 8.
Hexadecimal  [32-Bits]

Area                                    Addr        Size        Decimal Bytes (Attributes)
--------------------------------        ----        ----        ------- ----- ------------
BSEG_BYTES                          00000020    00000001 =           1. bytes (REL,CON)

      Value  Global                              Global Defined In Module
      -----  --------------------------------   ------------------------
ASxxxx Linker V02.00 + NoICE + sdld,  page 9.
Hexadecimal  [32-Bits]

Area                                    Addr        Size        Decimal Bytes (Attributes)
--------------------------------        ----        ----        ------- ----- ------------
REG_BANK_0                          00000000    00000008 =           8. bytes (REL,OVR)

      Value  Global                              Global Defined In Module
      -----  --------------------------------   ------------------------
ASxxxx Linker V02.00 + NoICE + sdld,  page 10.
Hexadecimal  [32-Bits]

Area                                    Addr        Size        Decimal Bytes (Attributes)
--------------------------------        ----        ----        ------- ----- ------------
BSEG                                00000000    00000001 =           1. bytes (REL,CON,BIT)

      Value  Global                              Global Defined In Module
      -----  --------------------------------   ------------------------
     0B:   00000000  _sleep_flag                        clock

ASxxxx Linker V02.00 + NoICE + sdld,  page 11.
Hexadecimal  [32-Bits]

Area                                    Addr        Size        Decimal Bytes (Attributes)
--------------------------------        ----        ----        ------- ----- ------------
BIT_BANK                            00000021    00000001 =           1. bytes (REL,OVR)

      Value  Global                              Global Defined In Module
      -----  --------------------------------   ------------------------
ASxxxx Linker V02.00 + NoICE + sdld,  page 12.
Hexadecimal  [32-Bits]

Area                                    Addr        Size        Decimal Bytes (Attributes)
--------------------------------        ----        ----        ------- ----- ------------
DSEG                                00000000    0000007B =         123. bytes (REL,CON)

      Value  Global                              Global Defined In Module
      -----  --------------------------------   ------------------------
           0000001A  _bp                                _bp

ASxxxx Linker V02.00 + NoICE + sdld,  page 13.
Hexadecimal  [32-Bits]

Area                                    Addr        Size        Decimal Bytes (Attributes)
--------------------------------        ----        ----        ------- ----- ------------
SSEG                                00000022    000000DE =         222. bytes (REL,OVR)

      Value  Global                              Global Defined In Module
      -----  --------------------------------   ------------------------
           00000022  __start__stack                     contiki_sensinode_main

ASxxxx Linker V02.00 + NoICE + sdld,  page 14.
Hexadecimal  [32-Bits]

Area                                    Addr        Size        Decimal Bytes (Attributes)
--------------------------------        ----        ----        ------- ----- ------------
XSEG                                0000E000    00000B04 =        2820. bytes (REL,CON,XDATA)

      Value  Global                              Global Defined In Module
      -----  --------------------------------   ------------------------
     0D:   0000E002  _sensors_flags                     sensinode_sensors
     0D:   0000E098  _serial_line_event_message         serial_line
     0D:   0000E20B  _sensors_event                     sensors
     0D:   0000E212  _packetbuf_attrs                   packetbuf
     0D:   0000E242  _packetbuf_addrs                   packetbuf
     0D:   0000E304  _rimeaddr_node_addr                rimeaddr
     0D:   0000E3DD  _rimestats                         rimestats

ASxxxx Linker V02.00 + NoICE + sdld,  page 15.
Hexadecimal  [32-Bits]

Area                                    Addr        Size        Decimal Bytes (Attributes)
--------------------------------        ----        ----        ------- ----- ------------
XISEG                               0000EB04    0000009F =         159. bytes (REL,CON,XDATA)

      Value  Global                              Global Defined In Module
      -----  --------------------------------   ------------------------
     0D:   0000EB04  _node_id                           contiki_sensinode_main
     0D:   0000EB06  _hello_world_process               hello_world
     0D:   0000EB0F  _sensors                           sensinode_sensors
     0D:   0000EB1B  _etimer_process                    etimer
     0D:   0000EB24  _serial_line_process               serial_line
     0D:   0000EB2D  _process_list                      process
     0D:   0000EB30  _process_current                   process
     0D:   0000EB33  _sensors_process                   sensors
     0D:   0000EB69  _ctimer_process                    ctimer
ASxxxx Linker V02.00 + NoICE + sdld,  page 16.
Hexadecimal  [32-Bits]

Area                                    Addr        Size        Decimal Bytes (Attributes)
--------------------------------        ----        ----        ------- ----- ------------
HOME                                00000000    000000B3 =         179. bytes (REL,CON,CODE)

      Value  Global                              Global Defined In Module
      -----  --------------------------------   ------------------------
     0C:   0000007E  __sdcc_program_startup             contiki_sensinode_main
     0C:   00000083  __sdcc_call_dptr                   
     0C:   00000085  ___gptr_cmp                        
ASxxxx Linker V02.00 + NoICE + sdld,  page 17.
Hexadecimal  [32-Bits]

Area                                    Addr        Size        Decimal Bytes (Attributes)
--------------------------------        ----        ----        ------- ----- ------------
GSINIT0                             000000B3    00000003 =           3. bytes (REL,CON,CODE)

      Value  Global                              Global Defined In Module
      -----  --------------------------------   ------------------------
     0C:   000000B3  __sdcc_gsinit_startup              

ASxxxx Linker V02.00 + NoICE + sdld,  page 18.
Hexadecimal  [32-Bits]

Area                                    Addr        Size        Decimal Bytes (Attributes)
--------------------------------        ----        ----        ------- ----- ------------
GSINIT2                             000000B6    0000000A =          10. bytes (REL,CON,CODE)

      Value  Global                              Global Defined In Module
      -----  --------------------------------   ------------------------
ASxxxx Linker V02.00 + NoICE + sdld,  page 19.
Hexadecimal  [32-Bits]

Area                                    Addr        Size        Decimal Bytes (Attributes)
--------------------------------        ----        ----        ------- ----- ------------
GSINIT3                             000000C0    00000022 =          34. bytes (REL,CON,CODE)

      Value  Global                              Global Defined In Module
      -----  --------------------------------   ------------------------
     0C:   000000C0  __mcs51_genXINIT                   

ASxxxx Linker V02.00 + NoICE + sdld,  page 20.
Hexadecimal  [32-Bits]

Area                                    Addr        Size        Decimal Bytes (Attributes)
--------------------------------        ----        ----        ------- ----- ------------
GSINIT4                             000000E2    0000002A =          42. bytes (REL,CON,CODE)

      Value  Global                              Global Defined In Module
      -----  --------------------------------   ------------------------
     0C:   000000E2  __mcs51_genRAMCLEAR                
     0C:   000000E8  __mcs51_genXRAMCLEAR               

ASxxxx Linker V02.00 + NoICE + sdld,  page 21.
Hexadecimal  [32-Bits]

Area                                    Addr        Size        Decimal Bytes (Attributes)
--------------------------------        ----        ----        ------- ----- ------------
GSINIT                              0000010C    0000000F =          15. bytes (REL,CON,CODE)

      Value  Global                              Global Defined In Module
      -----  --------------------------------   ------------------------
ASxxxx Linker V02.00 + NoICE + sdld,  page 22.
Hexadecimal  [32-Bits]

Area                                    Addr        Size        Decimal Bytes (Attributes)
--------------------------------        ----        ----        ------- ----- ------------
GSFINAL                             0000011B    00000003 =           3. bytes (REL,CON,CODE)

      Value  Global                              Global Defined In Module
      -----  --------------------------------   ------------------------
ASxxxx Linker V02.00 + NoICE + sdld,  page 23.
Hexadecimal  [32-Bits]

Area                                    Addr        Size        Decimal Bytes (Attributes)
--------------------------------        ----        ----        ------- ----- ------------
CSEG                                0000011E    0000B157 =       45399. bytes (REL,CON,CODE)

      Value  Global                              Global Defined In Module
      -----  --------------------------------   ------------------------
     0C:   00000297  _main                              contiki_sensinode_main
     0C:   000006D3  _port_0_ISR                        button_sensor
     0C:   00000753  _port_1_ISR                        button_sensor
     0C:   000007D3  _sensinode_sensors_activate        sensinode_sensors
     0C:   0000083F  _sensinode_sensors_deactivate      sensinode_sensors
     0C:   000008A9  _watchdog_init                     watchdog_cc2430
     0C:   000008AD  _watchdog_start                    watchdog_cc2430
     0C:   000008B1  _watchdog_periodic                 watchdog_cc2430
     0C:   000008C2  _watchdog_stop                     watchdog_cc2430
     0C:   000008C5  _watchdog_reboot                   watchdog_cc2430
     0C:   000008CE  _model_init                        models
     0C:   000008E2  _model_uart_intr_en                models
     0C:   000008F9  _leds_init                         leds
     0C:   00000906  _leds_blink                        leds
     0C:   00000928  _leds_get                          leds
     0C:   0000092B  _leds_on                           leds
     0C:   00000942  _leds_off                          leds
     0C:   00000958  _leds_toggle                       leds
     0C:   0000095B  _leds_invert                       leds
     0C:   00000F3E  _etimer_request_poll               etimer
     0C:   0000105D  _etimer_set                        etimer
     0C:   00001099  _etimer_reset                      etimer
     0C:   000010B7  _etimer_restart                    etimer
     0C:   000010D5  _etimer_adjust                     etimer
     0C:   00001121  _etimer_expired                    etimer
     0C:   0000116A  _etimer_expiration_time            etimer
     0C:   00001199  _etimer_start_time                 etimer
     0C:   000011A6  _etimer_pending                    etimer
     0C:   000011DE  _etimer_next_expiration_time       etimer
     0C:   000011FD  _etimer_stop                       etimer
     0C:   00001348  _rtimer_init                       rtimer
     0C:   0000134B  _rtimer_set                        rtimer
     0C:   000013FA  _rtimer_run_next                   rtimer
     0C:   000014C1  _n740_ser_par_init                 n740
     0C:   000014C8  _n740_ser_par_set                  n740
     0C:   00001503  _n740_ser_par_get                  n740
     0C:   00001507  _n740_analog_switch                n740
     0C:   00001519  _n740_analog_activate              n740
     0C:   0000152D  _n740_analog_deactivate            n740
     0C:   00001542  _uart1_set_input                   uart_intr
     0C:   0000154E  _serial_line_input_byte            serial_line
     0C:   00001756  _serial_line_init                  serial_line
     0C:   0000178B  _process_alloc_event               process
     0C:   00001798  _process_start                     process
     0C:   00001CF3  _process_exit                      process
     0C:   00001D17  _process_init                      process
     0C:   00001F73  _process_run                       process
     0C:   00001F96  _process_nevents                   process
     0C:   00001FAC  _process_post                      process
     0C:   0000201E  _process_post_synch                process
ASxxxx Linker V02.00 + NoICE + sdld,  page 24.
Hexadecimal  [32-Bits]

Area                                    Addr        Size        Decimal Bytes (Attributes)
--------------------------------        ----        ----        ------- ----- ------------
CSEG                                0000011E    0000B157 =       45399. bytes (REL,CON,CODE)

      Value  Global                              Global Defined In Module
      -----  --------------------------------   ------------------------
     0C:   00002075  _process_poll                      process
     0C:   000020B3  _process_is_running                process
     0C:   0000218B  _sensors_first                     sensors
     0C:   0000219D  _sensors_next                      sensors
     0C:   000021D7  _sensors_changed                   sensors
     0C:   000021FE  _sensors_find                      sensors
     0C:   00002581  _cc2430_rf_command                 cc2430_rf
     0C:   000025E8  _cc2430_rf_channel_set             cc2430_rf
     0C:   00002651  _cc2430_rf_channel_get             cc2430_rf
     0C:   00002658  _cc2430_rf_power_set               cc2430_rf
     0C:   00002665  _cc2430_rf_set_addr                cc2430_rf
     0C:   000026CF  _cc2430_rf_send_ack                cc2430_rf
     0C:   00002BAA  _rtimer_arch_init                  rtimer_arch
     0C:   00002BBA  _rtimer_arch_schedule              rtimer_arch
     0C:   00002BC6  _cc2430_timer_1_ISR                rtimer_arch
     0C:   00002C17  _putstring                         debug
     0C:   00002C42  _puthex                            debug
     0C:   00002C61  _putbin                            debug
     0C:   00002C8E  _netstack_init                     netstack
     0C:   00002CF3  _energest_type_set                 energest
     0C:   00002CFB  _energest_init                     energest
     0C:   00002CFC  _energest_type_time                energest
     0C:   00002D03  _energest_flush                    energest
     0C:   00002D04  _timer_set                         timer
     0C:   00002D52  _timer_reset                       timer
     0C:   00002D8E  _timer_restart                     timer
     0C:   00002DB6  _timer_expired                     timer
     0C:   00002E1B  _timer_remaining                   timer
     0C:   00002E60  _autostart_start                   autostart
     0C:   00002F26  _autostart_exit                    autostart
     0C:   00002FDF  __gptrput                          _gptrput
     0C:   00002FF8  _putchar                           putchar
     0C:   00002FFB  __mulint                           _mulint
     0C:   000030B8  _leds_arch_init                    leds_arch
     0C:   000030B9  _leds_arch_get                     leds_arch
     0C:   000030D4  _leds_arch_set                     leds_arch
     0C:   00003104  _packetbuf_clear                   packetbuf
     0C:   00003134  _packetbuf_clear_hdr               packetbuf
     0C:   0000313B  _packetbuf_copyfrom                packetbuf
     0C:   000031AD  _packetbuf_compact                 packetbuf
     0C:   000032C9  _packetbuf_copyto_hdr              packetbuf
     0C:   00003348  _packetbuf_copyto                  packetbuf
     0C:   0000345D  _packetbuf_hdralloc                packetbuf
     0C:   000034AA  _packetbuf_hdr_remove              packetbuf
     0C:   000034B6  _packetbuf_hdrreduce               packetbuf
     0C:   000034EE  _packetbuf_set_datalen             packetbuf
     0C:   000034FA  _packetbuf_dataptr                 packetbuf
     0C:   00003525  _packetbuf_hdrptr                  packetbuf
     0C:   00003541  _packetbuf_reference               packetbuf
     0C:   00003577  _packetbuf_is_reference            packetbuf
     0C:   000035BE  _packetbuf_reference_ptr           packetbuf
ASxxxx Linker V02.00 + NoICE + sdld,  page 25.
Hexadecimal  [32-Bits]

Area                                    Addr        Size        Decimal Bytes (Attributes)
--------------------------------        ----        ----        ------- ----- ------------
CSEG                                0000011E    0000B157 =       45399. bytes (REL,CON,CODE)

      Value  Global                              Global Defined In Module
      -----  --------------------------------   ------------------------
     0C:   000035D0  _packetbuf_datalen                 packetbuf
     0C:   000035DC  _packetbuf_hdrlen                  packetbuf
     0C:   000035E8  _packetbuf_totlen                  packetbuf
     0C:   00003604  _packetbuf_attr_clear              packetbuf
     0C:   0000367E  _packetbuf_attr_copyto             packetbuf
     0C:   000036DB  _packetbuf_attr_copyfrom           packetbuf
     0C:   0000372E  _packetbuf_set_attr                packetbuf
     0C:   00003751  _packetbuf_attr                    packetbuf
     0C:   00003767  _packetbuf_set_addr                packetbuf
     0C:   000037A0  _packetbuf_addr                    packetbuf
     0C:   000037B6  _ringbuf_init                      ringbuf
     0C:   00003835  _ringbuf_put                       ringbuf
     0C:   00003942  _ringbuf_get                       ringbuf
     0C:   00003A1C  _ringbuf_size                      ringbuf
     0C:   00003A3F  _ringbuf_elements                  ringbuf
     0C:   00003A92  _uart1_init                        uart1
     0C:   00003ABC  _uart1_writeb                      uart1
     0C:   00003AC8  _strncmp                           _strncmp
     0C:   00003B8E  _rimeaddr_copy                     rimeaddr
     0C:   00003BF7  _rimeaddr_cmp                      rimeaddr
     0C:   00003C6F  _rimeaddr_set_node_addr            rimeaddr
     0C:   00003C8B  _clock_delay_usec                  clock
     0C:   00003CAB  _clock_wait                        clock
     0C:   00003CE4  _clock_time                        clock
     0C:   00003CEB  _clock_seconds                     clock
     0C:   00003CFB  _clock_init                        clock
     0C:   00003D54  _clock_ISR                         clock
     0C:   00003E03  _memcpy                            _memcpy
     0C:   00004C3A  _mac_call_sent_callback            mac
     0C:   00004C95  _vprintf                           vprintf
     0C:   00004CCC  _printf                            vprintf
     0C:   00004D06  _random_rand                       random
     0C:   00004D1C  _random_init                       random
     0C:   0000506E  _ctimer_init                       ctimer
     0C:   0000509E  _ctimer_set                        ctimer
     0C:   00005208  _ctimer_reset                      ctimer
     0C:   000052C2  _ctimer_restart                    ctimer
     0C:   0000537C  _ctimer_stop                       ctimer
     0C:   00005431  _ctimer_expired                    ctimer
     0C:   000054C5  _rime_sniffer_add                  rime
     0C:   000054EC  _rime_sniffer_remove               rime
     0C:   0000575D  _rime_output                       rime
     0C:   000057EF  _strlen                            _strlen
     0C:   00005807  _list_init                         list
     0C:   00005815  _list_head                         list
     0C:   0000582A  _list_copy                         list
     0C:   0000586D  _list_tail                         list
     0C:   000058C2  _list_add                          list
     0C:   00005979  _list_push                         list
     0C:   00005A08  _list_chop                         list
     0C:   00005B57  _list_pop                          list
ASxxxx Linker V02.00 + NoICE + sdld,  page 26.
Hexadecimal  [32-Bits]

Area                                    Addr        Size        Decimal Bytes (Attributes)
--------------------------------        ----        ----        ------- ----- ------------
CSEG                                0000011E    0000B157 =       45399. bytes (REL,CON,CODE)

      Value  Global                              Global Defined In Module
      -----  --------------------------------   ------------------------
     0C:   00005BC4  _list_remove                       list
     0C:   00005D25  _list_length                       list
     0C:   00005D71  _list_insert                       list
     0C:   00005E20  _list_item_next                    list
     0C:   00005E53  __gptrget                          _gptrget
     0C:   00005E6F  __modsint                          _modsint
     0C:   00005EF4  _bus_init                          bus
     0C:   00005F04  _announcement_init                 announcement
     0C:   00005F18  _announcement_register             announcement
     0C:   00006057  _announcement_remove               announcement
     0C:   0000607E  _announcement_remove_value         announcement
     0C:   000060E6  _announcement_set_value            announcement
     0C:   000061B9  _announcement_bump                 announcement
     0C:   00006237  _announcement_listen               announcement
     0C:   0000625E  _announcement_register_listen_ca   announcement
     0C:   0000626A  _announcement_register_observer_   announcement
     0C:   00006276  _announcement_list                 announcement
     0C:   0000628A  _announcement_heard                announcement
     0C:   00006419  _m25p16_wren                       m25p16
     0C:   0000642E  _m25p16_wrdi                       m25p16
     0C:   0000643A  _m25p16_rdid                       m25p16
     0C:   00006551  _m25p16_rdsr                       m25p16
     0C:   00006569  _m25p16_wrsr                       m25p16
     0C:   00006583  _m25p16_read                       m25p16
     0C:   0000660E  _m25p16_pp                         m25p16
     0C:   00006688  _m25p16_se                         m25p16
     0C:   000066AE  _m25p16_be                         m25p16
     0C:   000066BD  _m25p16_dp                         m25p16
     0C:   000066C9  _m25p16_res                        m25p16
     0C:   000066DE  _m25p16_res_res                    m25p16
     0C:   00006714  __moduint                          _moduint
     0C:   00006F94  _memb_init                         memb
     0C:   00007086  _memb_alloc                        memb
     0C:   000071D6  _memb_free                         memb
     0C:   00007322  _memb_inmemb                       memb
     0C:   0000745A  _queuebuf_init                     queuebuf
     0C:   00007475  _queuebuf_new_from_packetbuf       queuebuf
     0C:   0000764F  _queuebuf_update_attr_from_packe   queuebuf
     0C:   0000767E  _queuebuf_free                     queuebuf
     0C:   00007749  _queuebuf_to_packetbuf             queuebuf
     0C:   00007930  _queuebuf_dataptr                  queuebuf
     0C:   000079DA  _queuebuf_datalen                  queuebuf
     0C:   000079EA  _queuebuf_addr                     queuebuf
     0C:   00007A17  _queuebuf_attr                     queuebuf
     0C:   00007A4F  _queuebuf_debug_print              queuebuf
     0C:   00007A50  _chameleon_init                    chameleon
     0C:   00007A53  _chameleon_parse                   chameleon
     0C:   00007AA7  _chameleon_create                  chameleon
     0C:   00007B12  _chameleon_hdrsize                 chameleon
     0C:   00007B36  _channel_init                      channel
     0C:   00007B4A  _channel_set_attributes            channel
ASxxxx Linker V02.00 + NoICE + sdld,  page 27.
Hexadecimal  [32-Bits]

Area                                    Addr        Size        Decimal Bytes (Attributes)
--------------------------------        ----        ----        ------- ----- ------------
CSEG                                0000011E    0000B157 =       45399. bytes (REL,CON,CODE)

      Value  Global                              Global Defined In Module
      -----  --------------------------------   ------------------------
     0C:   00007BB4  _channel_open                      channel
     0C:   00007C00  _channel_close                     channel
     0C:   00007C27  _channel_lookup                    channel
     0C:   00007CBD  __sdcc_external_startup            _startup
     0C:   00008128  _broadcast_announcement_init       broadcast_announcement
     0C:   00008183  _broadcast_announcement_stop       broadcast_announcement
     0C:   0000819E  _broadcast_announcement_beacon_i   broadcast_announcement
     0C:   000082E8  __print_format                     printf_large
     0C:   00009022  _abc_open                          abc
     0C:   00009096  _abc_close                         abc
     0C:   00009099  _abc_send                          abc
     0C:   0000909C  _abc_input                         abc
     0C:   000090EA  _abc_sent                          abc
     0C:   00009297  _broadcast_open                    broadcast
     0C:   00009319  _broadcast_close                   broadcast
     0C:   0000931C  _broadcast_send                    broadcast
     0C:   0000934E  _memset                            _memset
     0C:   00009A18  _frame802154_hdrlen                frame802154
     0C:   00009A71  _frame802154_create                frame802154
     0C:   00009EAA  _frame802154_parse                 frame802154
     0C:   0000A4FF  _get_bits_in_byte                  chameleon_bitopt
     0C:   0000A57A  _get_bits                          chameleon_bitopt
     0C:   0000A888  _set_bits_in_byte                  chameleon_bitopt
     0C:   0000A92C  _set_bits                          chameleon_bitopt
     0C:   0000B196  __divsint                          _divsint
     0C:   0000B223  __divuint                          _divuint

ASxxxx Linker V02.00 + NoICE + sdld,  page 28.
Hexadecimal  [32-Bits]

Area                                    Addr        Size        Decimal Bytes (Attributes)
--------------------------------        ----        ----        ------- ----- ------------
CONST                               0000B275    00000103 =         259. bytes (REL,CON,CODE)

      Value  Global                              Global Defined In Module
      -----  --------------------------------   ------------------------
     0C:   0000B2A0  _autostart_processes               hello_world
     0C:   0000B2B4  _button_1_sensor                   button_sensor
     0C:   0000B2BD  _button_2_sensor                   button_sensor
     0C:   0000B2D8  _cc2430_rf_driver                  cc2430_rf
     0C:   0000B300  _rimeaddr_null                     rimeaddr
     0C:   0000B302  _csma_driver                       csma
     0C:   0000B316  _rime_driver                       rime
     0C:   0000B322  _nullrdc_driver                    nullrdc
     0C:   0000B33B  _adc_sensor                        adc_sensor
     0C:   0000B365  _framer_802154                     framer_802154
     0C:   0000B372  _chameleon_bitopt                  chameleon_bitopt

ASxxxx Linker V02.00 + NoICE + sdld,  page 29.
Hexadecimal  [32-Bits]

Area                                    Addr        Size        Decimal Bytes (Attributes)
--------------------------------        ----        ----        ------- ----- ------------
XINIT                               0000B378    0000009F =         159. bytes (REL,CON,CODE)

      Value  Global                              Global Defined In Module
      -----  --------------------------------   ------------------------
ASxxxx Linker V02.00 + NoICE + sdld,  page 30.

Files Linked                              [ module(s) ]

obj_sensinode/contiki-sensinode-main.rel  [  ]
obj_sensinode/hello_world.app.rel         [  ]


Libraries Linked                          [ object file ]

contiki-sensinode.lib                     [ obj_sensinode/button-sensor.rel ]
contiki-sensinode.lib                     [ obj_sensinode/sensinode-sensors. ]
contiki-sensinode.lib                     [ obj_sensinode/watchdog-cc2430.re ]
contiki-sensinode.lib                     [ obj_sensinode/models.rel ]
contiki-sensinode.lib                     [ obj_sensinode/leds.rel ]
contiki-sensinode.lib                     [ obj_sensinode/etimer.rel ]
contiki-sensinode.lib                     [ obj_sensinode/rtimer.rel ]
contiki-sensinode.lib                     [ obj_sensinode/n740.rel ]
contiki-sensinode.lib                     [ obj_sensinode/uart_intr.rel ]
/usr/local/bin/../share/sdcc/lib/large-stack-auto/mcs51.lib
                                          [ crtclear.rel ]
contiki-sensinode.lib                     [ obj_sensinode/serial-line.rel ]
contiki-sensinode.lib                     [ obj_sensinode/process.rel ]
contiki-sensinode.lib                     [ obj_sensinode/sensors.rel ]
contiki-sensinode.lib                     [ obj_sensinode/cc2430_rf.rel ]
contiki-sensinode.lib                     [ obj_sensinode/rtimer-arch.rel ]
/usr/local/bin/../share/sdcc/lib/large-stack-auto/mcs51.lib
                                          [ crtxinit.rel ]
contiki-sensinode.lib                     [ obj_sensinode/debug.rel ]
contiki-sensinode.lib                     [ obj_sensinode/netstack.rel ]
contiki-sensinode.lib                     [ obj_sensinode/energest.rel ]
contiki-sensinode.lib                     [ obj_sensinode/timer.rel ]
contiki-sensinode.lib                     [ obj_sensinode/autostart.rel ]
/usr/local/bin/../share/sdcc/lib/large-stack-auto/libsdcc.lib
                                          [ _gptrput.rel ]
contiki-sensinode.lib                     [ obj_sensinode/putchar.rel ]
/usr/local/bin/../share/sdcc/lib/large-stack-auto/libint.lib
                                          [ _mulint.rel ]
contiki-sensinode.lib                     [ obj_sensinode/leds-arch.rel ]
contiki-sensinode.lib                     [ obj_sensinode/packetbuf.rel ]
contiki-sensinode.lib                     [ obj_sensinode/ringbuf.rel ]
/usr/local/bin/../share/sdcc/lib/large-stack-auto/mcs51.lib
                                          [ crtxclear.rel ]
contiki-sensinode.lib                     [ obj_sensinode/uart1.rel ]
/usr/local/bin/../share/sdcc/lib/large-stack-auto/libsdcc.lib
                                          [ _strncmp.rel ]
contiki-sensinode.lib                     [ obj_sensinode/rimeaddr.rel ]
contiki-sensinode.lib                     [ obj_sensinode/clock.rel ]
/usr/local/bin/../share/sdcc/lib/large-stack-auto/libsdcc.lib
                                          [ _memcpy.rel ]
contiki-sensinode.lib                     [ obj_sensinode/csma.rel ]
/usr/local/bin/../share/sdcc/lib/large-stack-auto/mcs51.lib
                                          [ crtcall.rel ]
contiki-sensinode.lib                     [ obj_sensinode/mac.rel ]
/usr/local/bin/../share/sdcc/lib/large-stack-auto/libsdcc.lib
                                          [ _bp.rel ]
/usr/local/bin/../share/sdcc/lib/large-stack-auto/libsdcc.lib
                                          [ vprintf.rel ]
contiki-sensinode.lib                     [ obj_sensinode/random.rel ]
contiki-sensinode.lib                     [ obj_sensinode/ctimer.rel ]
contiki-sensinode.lib                     [ obj_sensinode/rime.rel ]
/usr/local/bin/../share/sdcc/lib/large-stack-auto/libsdcc.lib
                                          [ _strlen.rel ]
/usr/local/bin/../share/sdcc/lib/large-stack-auto/mcs51.lib
                                          [ gptr_cmp.rel ]
contiki-sensinode.lib                     [ obj_sensinode/list.rel ]
/usr/local/bin/../share/sdcc/lib/large-stack-auto/mcs51.lib
                                          [ crtstart.rel ]
contiki-sensinode.lib                     [ obj_sensinode/rimestats.rel ]
/usr/local/bin/../share/sdcc/lib/large-stack-auto/libsdcc.lib
                                          [ _gptrget.rel ]
/usr/local/bin/../share/sdcc/lib/large-stack-auto/libint.lib
                                          [ _modsint.rel ]
contiki-sensinode.lib                     [ obj_sensinode/bus.rel ]
contiki-sensinode.lib                     [ obj_sensinode/announcement.rel ]
contiki-sensinode.lib                     [ obj_sensinode/m25p16.rel ]
/usr/local/bin/../share/sdcc/lib/large-stack-auto/libint.lib
                                          [ _moduint.rel ]
contiki-sensinode.lib                     [ obj_sensinode/nullrdc.rel ]
contiki-sensinode.lib                     [ obj_sensinode/adc-sensor.rel ]
contiki-sensinode.lib                     [ obj_sensinode/memb.rel ]
contiki-sensinode.lib                     [ obj_sensinode/queuebuf.rel ]
contiki-sensinode.lib                     [ obj_sensinode/chameleon.rel ]
contiki-sensinode.lib                     [ obj_sensinode/channel.rel ]
/usr/local/bin/../share/sdcc/lib/large-stack-auto/libsdcc.lib
                                          [ _startup.rel ]
contiki-sensinode.lib                     [ obj_sensinode/broadcast-announce ]
/usr/local/bin/../share/sdcc/lib/large-stack-auto/libsdcc.lib
                                          [ printf_large.rel ]
contiki-sensinode.lib                     [ obj_sensinode/abc.rel ]
contiki-sensinode.lib                     [ obj_sensinode/broadcast.rel ]
/usr/local/bin/../share/sdcc/lib/large-stack-auto/libsdcc.lib
                                          [ _memset.rel ]
contiki-sensinode.lib                     [ obj_sensinode/framer-802154.rel ]
contiki-sensinode.lib                     [ obj_sensinode/frame802154.rel ]
contiki-sensinode.lib                     [ obj_sensinode/chameleon-bitopt.r ]
/usr/local/bin/../share/sdcc/lib/large-stack-auto/libint.lib
                                          [ _divsint.rel ]
/usr/local/bin/../share/sdcc/lib/large-stack-auto/libint.lib
                                          [ _divuint.rel ]

ASxxxx Linker V02.00 + NoICE + sdld,  page 31.

User Base Address Definitions

HOME = 0x0000
XSEG = 0xe000
PSEG = 0xe000
ISEG = 0x0000
BSEG = 0x0000

